
ComponentTester:     file format elf32-avr

Sections:
Idx Name          Size      VMA       LMA       File off  Algn
  0 .data         00000006  00800100  00007f90  00008044  2**0
                  CONTENTS, ALLOC, LOAD, DATA
  1 .text         00007f90  00000000  00000000  000000b4  2**1
                  CONTENTS, ALLOC, LOAD, READONLY, CODE
  2 .bss          000000f3  00800106  00800106  0000804a  2**0
                  ALLOC
  3 .eeprom       00000311  00810000  00810000  0000804a  2**0
                  CONTENTS, ALLOC, LOAD, READONLY, DATA
  4 .comment      00000011  00000000  00000000  0000835b  2**0
                  CONTENTS, READONLY
  5 .note.gnu.avr.deviceinfo 0000003c  00000000  00000000  0000836c  2**2
                  CONTENTS, READONLY
  6 .debug_aranges 00000220  00000000  00000000  000083a8  2**3
                  CONTENTS, READONLY, DEBUGGING
  7 .debug_info   0000c70b  00000000  00000000  000085c8  2**0
                  CONTENTS, READONLY, DEBUGGING
  8 .debug_abbrev 00002299  00000000  00000000  00014cd3  2**0
                  CONTENTS, READONLY, DEBUGGING
  9 .debug_line   00005e43  00000000  00000000  00016f6c  2**0
                  CONTENTS, READONLY, DEBUGGING
 10 .debug_frame  00001108  00000000  00000000  0001cdb0  2**2
                  CONTENTS, READONLY, DEBUGGING
 11 .debug_str    0000180a  00000000  00000000  0001deb8  2**0
                  CONTENTS, READONLY, DEBUGGING
 12 .debug_loc    00008f5d  00000000  00000000  0001f6c2  2**0
                  CONTENTS, READONLY, DEBUGGING
 13 .debug_ranges 00000048  00000000  00000000  0002861f  2**0
                  CONTENTS, READONLY, DEBUGGING

Disassembly of section .text:

00000000 <__vectors>:
       0:	0c 94 55 0b 	jmp	0x16aa	; 0x16aa <__ctors_end>
       4:	0c 94 72 0b 	jmp	0x16e4	; 0x16e4 <__bad_interrupt>
       8:	0c 94 72 0b 	jmp	0x16e4	; 0x16e4 <__bad_interrupt>
       c:	0c 94 72 0b 	jmp	0x16e4	; 0x16e4 <__bad_interrupt>
      10:	0c 94 72 0b 	jmp	0x16e4	; 0x16e4 <__bad_interrupt>
      14:	0c 94 72 0b 	jmp	0x16e4	; 0x16e4 <__bad_interrupt>
      18:	0c 94 72 0b 	jmp	0x16e4	; 0x16e4 <__bad_interrupt>
      1c:	0c 94 91 17 	jmp	0x2f22	; 0x2f22 <__vector_7>
      20:	0c 94 72 0b 	jmp	0x16e4	; 0x16e4 <__bad_interrupt>
      24:	0c 94 72 0b 	jmp	0x16e4	; 0x16e4 <__bad_interrupt>
      28:	0c 94 72 0b 	jmp	0x16e4	; 0x16e4 <__bad_interrupt>
      2c:	0c 94 5a 39 	jmp	0x72b4	; 0x72b4 <__vector_11>
      30:	0c 94 72 0b 	jmp	0x16e4	; 0x16e4 <__bad_interrupt>
      34:	0c 94 72 0b 	jmp	0x16e4	; 0x16e4 <__bad_interrupt>
      38:	0c 94 72 0b 	jmp	0x16e4	; 0x16e4 <__bad_interrupt>
      3c:	0c 94 72 0b 	jmp	0x16e4	; 0x16e4 <__bad_interrupt>
      40:	0c 94 43 39 	jmp	0x7286	; 0x7286 <__vector_16>
      44:	0c 94 72 0b 	jmp	0x16e4	; 0x16e4 <__bad_interrupt>
      48:	0c 94 72 0b 	jmp	0x16e4	; 0x16e4 <__bad_interrupt>
      4c:	0c 94 72 0b 	jmp	0x16e4	; 0x16e4 <__bad_interrupt>
      50:	0c 94 72 0b 	jmp	0x16e4	; 0x16e4 <__bad_interrupt>
      54:	0c 94 72 0b 	jmp	0x16e4	; 0x16e4 <__bad_interrupt>
      58:	0c 94 72 0b 	jmp	0x16e4	; 0x16e4 <__bad_interrupt>
      5c:	0c 94 72 0b 	jmp	0x16e4	; 0x16e4 <__bad_interrupt>
      60:	0c 94 72 0b 	jmp	0x16e4	; 0x16e4 <__bad_interrupt>
      64:	0c 94 72 0b 	jmp	0x16e4	; 0x16e4 <__bad_interrupt>
      68:	f9 16       	cp	r15, r25
      6a:	fc 16       	cp	r15, r28
      6c:	00 17       	cp	r16, r16
      6e:	02 17       	cp	r16, r18
      70:	06 17       	cp	r16, r22
      72:	09 17       	cp	r16, r25
      74:	0c 17       	cp	r16, r28
      76:	0f 17       	cp	r16, r31
      78:	12 17       	cp	r17, r18
      7a:	15 17       	cp	r17, r21
      7c:	20 17       	cp	r18, r16
      7e:	20 17       	cp	r18, r16
      80:	20 17       	cp	r18, r16
      82:	20 17       	cp	r18, r16
      84:	20 17       	cp	r18, r16
      86:	20 17       	cp	r18, r16
      88:	20 17       	cp	r18, r16
      8a:	20 17       	cp	r18, r16
      8c:	18 17       	cp	r17, r24
      8e:	1b 17       	cp	r17, r27
      90:	20 17       	cp	r18, r16
      92:	20 17       	cp	r18, r16
      94:	20 17       	cp	r18, r16
      96:	20 17       	cp	r18, r16
      98:	20 17       	cp	r18, r16
      9a:	20 17       	cp	r18, r16
      9c:	20 17       	cp	r18, r16
      9e:	1e 17       	cp	r17, r30

000000a0 <PinTable>:
      a0:	05 0a 06 05 06 0a 05 0a 06 09 06 0a 05 0a 06 09     ................
      b0:	06 0a 05 0a 06 09 06 0a 05 0a 06 09 06 0a 05 0a     ................
      c0:	06 05 0a 06 09 0a 06 09 0a 06                       ..........

000000ca <SymbolData>:
      ca:	00 00 10 00 00 00 10 00 00 e0 13 00 00 1c 1c 00     ................
      da:	00 03 70 00 80 00 90 00 40 00 10 01 20 0c 08 02     ..p.....@... ...
      ea:	10 0c 04 04 10 0c 02 04 08 0c 01 08 08 8c 00 08     ................
      fa:	08 4c 00 08 04 2c 00 10 04 1c 00 10 ff 0f 00 10     .L...,..........
     10a:	04 1c 00 10 04 2c 00 10 08 4c 00 08 08 8c 04 08     .....,...L......
     11a:	08 0c 07 08 10 0c 07 04 10 8c 07 04 20 0c 08 02     ............ ...
     12a:	40 00 10 01 80 00 90 00 00 03 70 00 00 1c 1c 00     @.........p.....
     13a:	00 e0 13 00 00 00 10 00 00 00 10 00 00 00 00 00     ................
     14a:	00 00 10 00 00 00 10 00 00 e0 13 00 00 1c 1c 00     ................
     15a:	00 03 70 00 80 00 90 00 40 00 10 01 20 00 08 02     ..p.....@... ...
     16a:	10 8c 04 04 10 8c 03 04 08 8c 03 08 08 8c 07 08     ................
     17a:	08 4c 00 08 04 2c 00 10 04 1c 00 10 ff 0f 00 10     .L...,..........
     18a:	04 1c 00 10 04 2c 00 10 08 4c 00 08 08 8c 00 08     .....,...L......
     19a:	08 0c 01 08 10 0c 02 04 10 0c 04 04 20 00 08 02     ............ ...
     1aa:	40 00 10 01 80 00 90 00 00 03 70 00 00 1c 1c 00     @.........p.....
     1ba:	00 e0 13 00 00 00 10 00 00 00 10 00 00 00 00 00     ................
     1ca:	00 00 10 00 00 00 10 00 00 e0 13 00 00 1c 1c 00     ................
     1da:	00 03 70 00 80 00 90 00 40 10 10 01 20 10 10 02     ..p.....@... ...
     1ea:	10 f4 1f 04 10 14 00 04 08 14 00 08 08 04 00 08     ................
     1fa:	08 04 00 08 04 14 02 10 04 14 03 10 04 f4 1f 10     ................
     20a:	04 14 13 10 04 14 12 10 08 04 10 08 08 04 10 08     ................
     21a:	08 14 10 08 10 14 10 04 ff f7 1f 04 20 10 10 02     ............ ...
     22a:	40 10 10 01 80 00 90 00 00 03 70 00 00 1c 1c 00     @.........p.....
     23a:	00 e0 13 00 00 00 10 00 00 00 10 00 00 00 00 00     ................
     24a:	00 00 10 00 00 00 10 00 00 e0 13 00 00 1c 1c 00     ................
     25a:	00 03 70 00 80 00 90 00 40 10 10 01 20 10 10 02     ..p.....@... ...
     26a:	ff f7 1f 04 10 14 10 04 08 14 10 08 08 04 10 08     ................
     27a:	08 04 10 08 04 14 11 10 04 14 13 10 04 f4 1f 10     ................
     28a:	04 14 03 10 04 14 01 10 08 04 00 08 08 04 00 08     ................
     29a:	08 14 00 08 10 14 00 04 10 f4 1f 04 20 10 10 02     ............ ...
     2aa:	40 10 10 01 80 00 90 00 00 03 70 00 00 1c 1c 00     @.........p.....
     2ba:	00 e0 13 00 00 00 10 00 00 00 10 00 00 00 00 00     ................
     2ca:	00 00 10 00 00 00 10 00 00 e0 13 00 00 1c 1c 00     ................
     2da:	00 03 70 00 80 00 90 00 40 10 10 01 20 10 10 02     ..p.....@... ...
     2ea:	10 f4 1f 04 10 14 00 04 08 14 00 08 08 14 00 08     ................
     2fa:	08 14 00 08 04 14 02 10 04 14 03 10 04 f4 1f 10     ................
     30a:	04 14 13 10 04 14 12 10 08 14 10 08 08 14 10 08     ................
     31a:	08 14 10 08 10 14 10 04 ff f7 1f 04 20 10 10 02     ............ ...
     32a:	40 10 10 01 80 00 90 00 00 03 70 00 00 1c 1c 00     @.........p.....
     33a:	00 e0 13 00 00 00 10 00 00 00 10 00 00 00 00 00     ................
     34a:	00 00 10 00 00 00 10 00 00 e0 13 00 00 1c 1c 00     ................
     35a:	00 03 70 00 80 00 90 00 40 10 10 01 20 10 10 02     ..p.....@... ...
     36a:	ff f7 1f 04 10 14 10 04 08 14 10 08 08 14 10 08     ................
     37a:	08 14 10 08 04 14 11 10 04 14 13 10 04 f4 1f 10     ................
     38a:	04 14 03 10 04 14 01 10 08 14 00 08 08 14 00 08     ................
     39a:	08 14 00 08 10 14 00 04 10 f4 1f 04 20 10 10 02     ............ ...
     3aa:	40 10 10 01 80 00 90 00 00 03 70 00 00 1c 1c 00     @.........p.....
     3ba:	00 e0 13 00 00 00 10 00 00 00 10 00 00 00 00 00     ................
     3ca:	00 00 10 00 00 00 10 00 00 e0 13 00 00 1c 1c 00     ................
     3da:	00 03 70 00 80 00 90 00 40 00 10 01 20 10 10 02     ..p.....@... ...
     3ea:	10 10 10 04 10 f0 1f 04 08 10 00 08 08 10 00 08     ................
     3fa:	08 10 00 08 04 10 00 10 04 10 00 10 04 10 00 10     ................
     40a:	04 10 00 10 04 10 00 10 08 10 00 08 08 12 00 08     ................
     41a:	08 16 00 08 ff ff 1f 04 10 16 10 04 20 12 10 02     ............ ...
     42a:	40 00 10 01 80 00 90 00 00 03 70 00 00 1c 1c 00     @.........p.....
     43a:	00 e0 13 00 00 00 10 00 00 00 10 00 00 00 00 00     ................
     44a:	00 00 10 00 00 00 10 00 00 e0 13 00 00 1c 1c 00     ................
     45a:	00 03 70 00 80 00 90 00 40 00 10 01 20 12 10 02     ..p.....@... ...
     46a:	10 13 10 04 ff ff 1f 04 08 13 00 08 08 12 00 08     ................
     47a:	08 10 00 08 04 10 00 10 04 10 00 10 04 10 00 10     ................
     48a:	04 10 00 10 04 10 00 10 08 10 00 08 08 10 00 08     ................
     49a:	08 10 00 08 10 f0 1f 04 10 10 10 04 20 10 10 02     ............ ...
     4aa:	40 00 10 01 80 00 90 00 00 03 70 00 00 1c 1c 00     @.........p.....
     4ba:	00 e0 13 00 00 00 10 00 00 00 10 00 00 00 00 00     ................
     4ca:	00 00 10 00 00 00 10 00 00 e0 13 00 00 1c 1c 00     ................
     4da:	00 03 70 00 80 00 90 00 40 00 10 01 20 08 08 02     ..p.....@... ...
     4ea:	10 0a 04 04 10 0a 02 04 08 0a 01 08 08 8a 00 08     ................
     4fa:	08 4a 00 08 04 2a 00 10 04 1a 00 10 ff 0b 00 10     .J...*..........
     50a:	04 1a 00 10 04 2a 00 10 08 4a 00 08 08 8a 04 08     .....*...J......
     51a:	08 0a 07 08 10 0a 07 04 10 8a 07 04 20 08 08 02     ............ ...
     52a:	40 00 10 01 80 00 90 00 00 03 70 00 00 1c 1c 00     @.........p.....
     53a:	00 e0 13 00 00 00 10 00 00 00 10 00 00 00 00 00     ................
     54a:	00 00 10 00 00 00 10 00 00 e0 13 00 00 1c 1c 00     ................
     55a:	00 03 70 00 80 00 90 00 40 00 10 01 20 00 08 02     ..p.....@... ...
     56a:	10 88 04 04 10 8a 03 04 08 8a 03 08 08 8a 07 08     ................
     57a:	08 4a 00 08 04 2a 00 10 04 1a 00 10 ff 0b 00 10     .J...*..........
     58a:	04 1a 00 10 04 2a 00 10 08 4a 00 08 08 8a 00 08     .....*...J......
     59a:	08 0a 01 08 10 0a 02 04 10 08 04 04 20 00 08 02     ............ ...
     5aa:	40 00 10 01 80 00 90 00 00 03 70 00 00 1c 1c 00     @.........p.....
     5ba:	00 e0 13 00 00 00 10 00 00 00 10 00 00 00 00 00     ................
     5ca:	00 00 00 00 00 80 00 00 00 80 00 00 00 80 00 00     ................
     5da:	00 80 00 00 00 80 00 00 00 80 00 00 00 80 00 00     ................
     5ea:	00 80 00 00 c0 ff ff 01 80 ff ff 00 00 ff 7f 00     ................
     5fa:	00 fe 3f 00 00 fc 1f 00 00 f8 0f 00 00 f0 07 00     ..?.............
     60a:	00 e0 03 00 00 c0 01 00 00 80 00 00 c0 ff ff 01     ................
     61a:	00 c0 00 00 00 a0 00 00 00 90 00 00 00 88 00 00     ................
     62a:	00 84 00 00 00 82 00 00 ff 81 00 00 00 80 00 00     ................
     63a:	00 80 00 00 00 80 00 00 00 80 00 00 00 00 00 00     ................
     64a:	00 00 00 00 00 80 00 00 00 80 00 00 00 80 00 00     ................
     65a:	00 80 00 00 00 80 00 00 00 80 00 00 00 80 00 00     ................
     66a:	00 80 00 00 00 80 00 00 e0 ff ff 03 00 04 ff 01     ................
     67a:	00 0e ff 01 00 0e fe 00 00 1f fe 00 00 1f 7c 00     ..............|.
     68a:	80 3f 7c 00 80 3f 38 00 c0 7f 38 00 c0 7f 10 00     .?|..?8...8.....
     69a:	e0 ff ff 03 00 84 00 00 00 82 00 00 00 81 00 00     ................
     6aa:	80 80 00 00 7f 80 00 00 00 80 00 00 00 80 00 00     ................
     6ba:	00 80 00 00 00 80 00 00 00 80 00 00 00 00 00 00     ................
     6ca:	00 00 00 00 00 80 00 00 00 80 00 00 00 80 00 00     ................
     6da:	00 80 00 00 ff 81 00 00 00 82 00 00 00 84 00 00     ................
     6ea:	00 88 00 00 00 90 00 00 00 a0 00 00 00 c0 00 00     ................
     6fa:	c0 ff ff 01 80 ff ff 00 00 ff 7f 00 00 fe 3f 00     ..............?.
     70a:	00 fc 1f 00 00 f8 0f 00 00 f0 07 00 00 e0 03 00     ................
     71a:	00 c0 01 00 00 80 00 00 c0 ff ff 01 00 80 00 00     ................
     72a:	00 80 00 00 00 80 00 00 00 80 00 00 00 80 00 00     ................
     73a:	00 80 00 00 00 80 00 00 00 80 00 00 00 00 00 00     ................
     74a:	00 00 10 00 00 00 10 00 00 e0 13 00 00 1c 1c 00     ................
     75a:	00 03 70 00 80 00 90 00 40 00 10 01 20 10 10 02     ..p.....@... ...
     76a:	3f 10 10 04 50 f0 1f 04 88 12 00 08 08 13 00 08     ?...P...........
     77a:	88 13 00 08 04 14 00 10 04 18 00 10 04 10 00 10     ................
     78a:	04 10 00 10 04 10 00 10 08 10 00 08 08 10 00 08     ................
     79a:	08 10 00 08 10 f0 1f 04 10 10 10 04 20 10 10 02     ............ ...
     7aa:	40 00 10 01 80 00 90 00 00 03 70 00 00 1c 1c 00     @.........p.....
     7ba:	00 e0 13 00 00 00 10 00 00 00 10 00 00 00 00 00     ................

000007ca <FontTable>:
     7ca:	ff 01 02 03 04 05 06 07 ff ff ff ff ff ff ff ff     ................
     7da:	ff ff ff ff ff ff ff ff ff ff ff ff ff ff ff ff     ................
     7ea:	10 11 12 13 14 15 16 17 18 19 1a 1b 1c 1d 1e 1f     ................
     7fa:	20 21 22 23 24 25 26 27 28 29 2a 2b 2c 2d 2e 2f      !"#$%&'()*+,-./
     80a:	30 31 32 33 34 35 36 37 38 39 3a 3b 3c 3d 3e 3f     0123456789:;<=>?
     81a:	40 41 42 43 44 45 46 47 48 49 4a 4b 4c 4d 4e 4f     @ABCDEFGHIJKLMNO
     82a:	50 51 52 53 54 55 56 57 58 59 5a 5b 5c 5d 5e 5f     PQRSTUVWXYZ[\]^_
     83a:	60 61 62 63 64 65 66 67 68 69 6a 6b 6c 6d 6e ff     `abcdefghijklmn.
     84a:	ff ff ff ff ff ff ff ff ff ff ff ff ff ff ff ff     ................
     85a:	ff ff ff ff ff ff ff ff ff ff ff ff ff ff ff ff     ................
     86a:	ff ff ff ff ff ff ff ff ff ff ff ff ff ff ff ff     ................
     87a:	0f ff ff ff ff 05 ff ff ff ff ff ff ff ff ff ff     ................
     88a:	ff ff ff ff 08 ff ff ff ff ff ff ff ff ff ff ff     ................
     89a:	ff ff ff ff ff ff 09 ff ff ff ff ff 0a ff ff 0b     ................
     8aa:	ff ff ff ff 0c ff ff ff ff ff ff ff ff ff ff ff     ................
     8ba:	ff ff ff ff ff ff 0d ff ff ff ff ff 0e ff ff ff     ................

000008ca <FontData>:
	...
     8ee:	82 00 86 00 8e 00 9e 00 be 00 ff 03 be 00 9e 00     ................
     8fe:	8e 00 86 00 82 00 00 00 00 00 00 00 00 00 00 00     ................
     90e:	82 00 c2 00 e2 00 f2 00 fa 00 ff 03 fa 00 f2 00     ................
     91e:	e2 00 c2 00 82 00 00 00 00 00 00 00 00 00 00 00     ................
     92e:	86 01 86 01 86 01 86 01 86 01 87 03 86 01 86 01     ................
     93e:	86 01 86 01 86 01 00 00 00 00 00 00 00 00 78 00     ..............x.
     94e:	84 00 02 01 02 01 02 01 02 01 02 01 84 00 48 00     ..............H.
     95e:	48 00 48 00 86 01 00 00 00 00 00 00 00 00 00 00     H.H.............
     96e:	00 00 00 00 00 00 82 00 82 00 82 00 82 00 82 00     ................
     97e:	82 00 c6 00 ba 00 02 00 02 00 02 00 00 00 00 00     ................
     98e:	fe 03 02 00 02 00 02 00 02 00 03 00 02 00 02 00     ................
     99e:	02 00 02 00 fe 03 00 00 00 00 00 00 00 00 00 00     ................
     9ae:	ff 01 00 01 00 01 00 01 00 01 00 03 00 01 00 01     ................
     9be:	00 01 00 01 ff 01 00 00 00 00 00 00 44 00 00 00     ............D...
     9ce:	00 00 10 00 38 00 28 00 48 00 44 00 84 00 fe 00     ....8.(.H.D.....
     9de:	02 01 02 01 01 02 00 00 00 00 00 00 44 00 00 00     ............D...
     9ee:	00 00 78 00 84 00 02 01 02 01 02 01 02 01 02 01     ..x.............
     9fe:	02 01 84 00 78 00 00 00 00 00 00 00 44 00 00 00     ....x.......D...
     a0e:	00 00 82 00 82 00 82 00 82 00 82 00 82 00 82 00     ................
     a1e:	82 00 44 00 3c 00 00 00 00 00 00 00 00 00 1c 00     ..D.<...........
     a2e:	22 00 22 00 22 00 12 00 12 00 12 00 22 00 42 00     ".".".......".B.
     a3e:	82 00 82 00 72 00 00 00 00 00 00 00 00 00 00 00     ....r...........
     a4e:	24 00 00 00 00 00 3c 00 40 00 40 00 78 00 44 00     $.....<.@.@.x.D.
     a5e:	42 00 62 00 dc 00 00 00 00 00 00 00 00 00 00 00     B.b.............
     a6e:	24 00 00 00 00 00 38 00 44 00 82 00 82 00 82 00     $.....8.D.......
     a7e:	82 00 44 00 38 00 00 00 00 00 00 00 00 00 00 00     ..D.8...........
     a8e:	24 00 00 00 00 00 42 00 42 00 42 00 42 00 42 00     $.....B.B.B.B.B.
     a9e:	42 00 62 00 5c 00 00 00 00 00 00 00 00 00 10 00     B.b.\...........
     aae:	28 00 10 00 00 00 00 00 00 00 00 00 00 00 00 00     (...............
	...
     aea:	00 00 10 00 10 00 10 00 10 00 10 00 10 00 10 00     ................
     afa:	10 00 10 00 00 00 10 00 10 00 00 00 00 00 00 00     ................
     b0a:	00 00 44 00 44 00 44 00 44 00 00 00 00 00 00 00     ..D.D.D.D.......
	...
     b2a:	00 00 90 00 90 00 48 00 48 00 fe 01 48 00 24 00     ......H.H...H.$.
     b3a:	ff 01 24 00 24 00 12 00 12 00 00 00 00 00 00 00     ..$.$...........
     b4a:	20 00 f8 00 2c 00 24 00 24 00 28 00 30 00 60 00      ...,.$.$.(.0.`.
     b5a:	e0 00 a0 00 a0 00 a4 00 7c 00 20 00 00 00 00 00     ........|. .....
     b6a:	00 00 0e 02 11 01 91 00 51 00 4e 00 20 00 10 00     ........Q.N. ...
     b7a:	c8 01 28 02 24 02 22 02 c1 01 00 00 00 00 00 00     ..(.$.".........
     b8a:	00 00 38 00 44 00 44 00 64 00 38 00 0c 00 12 02     ..8.D.D.d.8.....
     b9a:	31 02 21 01 41 01 c2 00 fc 01 00 00 00 00 00 00     1.!.A...........
     baa:	00 00 10 00 10 00 10 00 10 00 00 00 00 00 00 00     ................
	...
     bca:	00 00 80 01 60 00 30 00 10 00 08 00 08 00 08 00     ....`.0.........
     bda:	08 00 08 00 08 00 10 00 30 00 60 00 80 01 00 00     ........0.`.....
     bea:	00 00 06 00 18 00 30 00 20 00 40 00 40 00 40 00     ......0. .@.@.@.
     bfa:	40 00 40 00 40 00 20 00 30 00 18 00 06 00 00 00     @.@.@. .0.......
     c0a:	00 00 10 00 10 00 d6 00 6c 00 28 00 38 00 28 00     ........l.(.8.(.
	...
     c32:	00 00 10 00 10 00 10 00 10 00 ff 01 10 00 10 00     ................
     c42:	10 00 00 00 00 00 00 00 00 00 00 00 00 00 00 00     ................
	...
     c5e:	00 00 18 00 18 00 10 00 10 00 08 00 00 00 00 00     ................
	...
     c7a:	fc 00 00 00 00 00 00 00 00 00 00 00 00 00 00 00     ................
	...
     c9e:	00 00 18 00 18 00 00 00 00 00 00 00 00 00 00 01     ................
     cae:	80 00 80 00 40 00 40 00 20 00 20 00 10 00 10 00     ....@.@. . .....
     cbe:	08 00 08 00 04 00 04 00 02 00 00 00 00 00 38 00     ..............8.
     cce:	44 00 44 00 82 00 82 00 82 00 82 00 82 00 82 00     D.D.............
     cde:	44 00 44 00 38 00 00 00 00 00 00 00 00 00 10 00     D.D.8...........
     cee:	1e 00 10 00 10 00 10 00 10 00 10 00 10 00 10 00     ................
     cfe:	10 00 10 00 fe 00 00 00 00 00 00 00 00 00 3e 00     ..............>.
     d0e:	42 00 40 00 40 00 40 00 20 00 20 00 10 00 08 00     B.@.@.@. . .....
     d1e:	04 00 02 00 7e 00 00 00 00 00 00 00 00 00 3c 00     ....~.........<.
     d2e:	40 00 40 00 40 00 40 00 38 00 40 00 40 00 40 00     @.@.@.@.8.@.@.@.
     d3e:	40 00 40 00 3c 00 00 00 00 00 00 00 00 00 20 00     @.@.<......... .
     d4e:	30 00 28 00 28 00 24 00 22 00 22 00 21 00 ff 00     0.(.(.$.".".!...
     d5e:	20 00 20 00 20 00 00 00 00 00 00 00 00 00 7c 00      . . .........|.
     d6e:	04 00 04 00 04 00 1c 00 20 00 40 00 40 00 40 00     ........ .@.@.@.
     d7e:	40 00 20 00 1c 00 00 00 00 00 00 00 00 00 78 00     @. ...........x.
     d8e:	04 00 04 00 02 00 3a 00 46 00 82 00 82 00 82 00     ......:.F.......
     d9e:	82 00 44 00 38 00 00 00 00 00 00 00 00 00 fe 00     ..D.8...........
     dae:	80 00 40 00 20 00 20 00 10 00 10 00 08 00 08 00     ..@. . .........
     dbe:	08 00 04 00 04 00 00 00 00 00 00 00 00 00 7c 00     ..............|.
     dce:	82 00 82 00 82 00 64 00 18 00 64 00 42 00 82 00     ......d...d.B...
     dde:	82 00 42 00 3c 00 00 00 00 00 00 00 00 00 38 00     ..B.<.........8.
     dee:	44 00 82 00 82 00 82 00 82 00 c4 00 b8 00 80 00     D...............
     dfe:	40 00 40 00 3c 00 00 00 00 00 00 00 00 00 00 00     @.@.<...........
     e0e:	00 00 00 00 00 00 18 00 18 00 00 00 00 00 00 00     ................
     e1e:	00 00 18 00 18 00 00 00 00 00 00 00 00 00 00 00     ................
     e2e:	00 00 00 00 00 00 18 00 18 00 00 00 00 00 00 00     ................
     e3e:	00 00 18 00 18 00 10 00 10 00 08 00 00 00 00 00     ................
     e4e:	00 00 00 00 00 00 00 01 c0 00 30 00 0c 00 0c 00     ..........0.....
     e5e:	30 00 c0 00 00 01 00 00 00 00 00 00 00 00 00 00     0...............
	...
     e76:	00 00 fe 01 00 00 00 00 fe 01 00 00 00 00 00 00     ................
	...
     e92:	00 00 02 00 0c 00 30 00 c0 00 c0 00 30 00 0c 00     ......0.....0...
     ea2:	02 00 00 00 00 00 00 00 00 00 7e 00 c2 00 82 00     ..........~.....
     eb2:	80 00 40 00 20 00 10 00 08 00 08 00 00 00 08 00     ..@. ...........
     ec2:	08 00 00 00 00 00 00 00 00 00 78 00 84 00 e2 00     ..........x.....
     ed2:	93 00 89 00 89 00 c9 00 c9 00 e9 00 b2 03 46 00     ..............F.
     ee2:	7c 00 00 00 00 00 00 00 00 00 00 00 00 00 10 00     |...............
     ef2:	38 00 28 00 48 00 44 00 84 00 fe 00 02 01 02 01     8.(.H.D.........
     f02:	01 02 00 00 00 00 00 00 00 00 00 00 00 00 7e 00     ..............~.
     f12:	82 00 82 00 42 00 3e 00 42 00 82 00 82 00 82 00     ....B.>.B.......
     f22:	7e 00 00 00 00 00 00 00 00 00 00 00 00 00 f8 00     ~...............
     f32:	86 00 02 00 01 00 01 00 01 00 01 00 02 00 06 00     ................
     f42:	f8 00 00 00 00 00 00 00 00 00 00 00 00 00 3e 00     ..............>.
     f52:	42 00 82 00 82 00 82 00 82 00 82 00 82 00 42 00     B.............B.
     f62:	3e 00 00 00 00 00 00 00 00 00 00 00 00 00 fe 00     >...............
     f72:	02 00 02 00 02 00 02 00 7e 00 02 00 02 00 02 00     ........~.......
     f82:	fe 00 00 00 00 00 00 00 00 00 00 00 00 00 fe 00     ................
     f92:	02 00 02 00 02 00 02 00 7e 00 02 00 02 00 02 00     ........~.......
     fa2:	02 00 00 00 00 00 00 00 00 00 00 00 00 00 f0 01     ................
     fb2:	0c 01 04 00 02 00 02 00 c2 01 02 01 04 01 0c 01     ................
     fc2:	f0 01 00 00 00 00 00 00 00 00 00 00 00 00 82 00     ................
     fd2:	82 00 82 00 82 00 82 00 fe 00 82 00 82 00 82 00     ................
     fe2:	82 00 00 00 00 00 00 00 00 00 00 00 00 00 fe 00     ................
     ff2:	10 00 10 00 10 00 10 00 10 00 10 00 10 00 10 00     ................
    1002:	fe 00 00 00 00 00 00 00 00 00 00 00 00 00 78 00     ..............x.
    1012:	40 00 40 00 40 00 40 00 40 00 40 00 40 00 40 00     @.@.@.@.@.@.@.@.
    1022:	3c 00 00 00 00 00 00 00 00 00 00 00 00 00 82 00     <...............
    1032:	42 00 22 00 12 00 0e 00 0a 00 12 00 62 00 82 00     B.".........b...
    1042:	02 01 00 00 00 00 00 00 00 00 00 00 00 00 02 00     ................
    1052:	02 00 02 00 02 00 02 00 02 00 02 00 02 00 02 00     ................
    1062:	fe 00 00 00 00 00 00 00 00 00 00 00 00 00 c3 00     ................
    1072:	c3 00 c7 00 a5 00 a5 00 ad 00 99 00 99 00 81 00     ................
    1082:	81 00 00 00 00 00 00 00 00 00 00 00 00 00 82 00     ................
    1092:	86 00 8a 00 8a 00 92 00 92 00 a2 00 a2 00 c2 00     ................
    10a2:	82 00 00 00 00 00 00 00 00 00 00 00 00 00 78 00     ..............x.
    10b2:	84 00 02 01 02 01 02 01 02 01 02 01 02 01 84 00     ................
    10c2:	78 00 00 00 00 00 00 00 00 00 00 00 00 00 7e 00     x.............~.
    10d2:	82 00 82 00 82 00 42 00 3e 00 02 00 02 00 02 00     ......B.>.......
    10e2:	02 00 00 00 00 00 00 00 00 00 00 00 00 00 78 00     ..............x.
    10f2:	84 00 02 01 02 01 02 01 02 01 02 01 02 01 84 00     ................
    1102:	78 00 40 00 80 01 00 00 00 00 00 00 00 00 3e 00     x.@...........>.
    1112:	42 00 42 00 42 00 22 00 1e 00 12 00 22 00 42 00     B.B.B.".....".B.
    1122:	82 00 00 00 00 00 00 00 00 00 00 00 00 00 fc 00     ................
    1132:	82 00 02 00 06 00 18 00 60 00 80 00 80 00 c2 00     ........`.......
    1142:	3e 00 00 00 00 00 00 00 00 00 00 00 00 00 ff 01     >...............
    1152:	10 00 10 00 10 00 10 00 10 00 10 00 10 00 10 00     ................
    1162:	10 00 00 00 00 00 00 00 00 00 00 00 00 00 82 00     ................
    1172:	82 00 82 00 82 00 82 00 82 00 82 00 82 00 44 00     ..............D.
    1182:	3c 00 00 00 00 00 00 00 00 00 00 00 00 00 01 02     <...............
    1192:	02 01 02 01 84 00 84 00 44 00 48 00 48 00 30 00     ........D.H.H.0.
    11a2:	30 00 00 00 00 00 00 00 00 00 00 00 00 00 01 02     0...............
    11b2:	01 02 12 01 32 01 32 01 2a 01 4a 01 cc 00 cc 00     ....2.2.*.J.....
    11c2:	84 00 00 00 00 00 00 00 00 00 00 00 00 00 01 02     ................
    11d2:	02 01 84 00 48 00 30 00 30 00 48 00 84 00 02 01     ....H.0.0.H.....
    11e2:	01 02 00 00 00 00 00 00 00 00 00 00 00 00 01 02     ................
    11f2:	02 01 84 00 44 00 28 00 10 00 10 00 10 00 10 00     ....D.(.........
    1202:	10 00 00 00 00 00 00 00 00 00 00 00 00 00 fe 01     ................
    1212:	00 01 80 00 40 00 20 00 10 00 08 00 04 00 02 00     ....@. .........
    1222:	fe 01 00 00 00 00 00 00 00 00 f8 00 08 00 08 00     ................
    1232:	08 00 08 00 08 00 08 00 08 00 08 00 08 00 08 00     ................
    1242:	08 00 08 00 f8 00 00 00 00 00 02 00 04 00 04 00     ................
    1252:	08 00 08 00 10 00 10 00 20 00 20 00 40 00 40 00     ........ . .@.@.
    1262:	80 00 80 00 00 01 00 00 00 00 3e 00 20 00 20 00     ..........>. . .
    1272:	20 00 20 00 20 00 20 00 20 00 20 00 20 00 20 00      . . . . . . . .
    1282:	20 00 20 00 3e 00 00 00 00 00 20 00 20 00 30 00      . .>..... . .0.
    1292:	50 00 58 00 48 00 88 00 84 00 84 00 02 01 00 00     P.X.H...........
	...
    12c2:	00 00 ff 03 00 00 00 00 10 00 20 00 00 00 00 00     .......... .....
	...
    12f2:	00 00 3c 00 40 00 40 00 78 00 44 00 42 00 62 00     ..<.@.@.x.D.B.b.
    1302:	dc 00 00 00 00 00 00 00 00 00 02 00 02 00 02 00     ................
    1312:	02 00 7a 00 46 00 82 00 82 00 82 00 82 00 46 00     ..z.F.........F.
    1322:	3a 00 00 00 00 00 00 00 00 00 00 00 00 00 00 00     :...............
    1332:	00 00 f8 00 04 00 02 00 02 00 02 00 02 00 04 00     ................
    1342:	f8 00 00 00 00 00 00 00 00 00 80 00 80 00 80 00     ................
    1352:	80 00 b8 00 c4 00 82 00 82 00 82 00 82 00 c4 00     ................
    1362:	bc 00 00 00 00 00 00 00 00 00 00 00 00 00 00 00     ................
    1372:	00 00 78 00 84 00 82 00 fe 00 02 00 02 00 04 00     ..x.............
    1382:	f8 00 00 00 00 00 00 00 00 00 e0 01 18 00 08 00     ................
    1392:	08 00 fe 01 08 00 08 00 08 00 08 00 08 00 08 00     ................
    13a2:	08 00 00 00 00 00 00 00 00 00 00 00 00 00 00 00     ................
    13b2:	00 00 b8 00 c4 00 82 00 82 00 82 00 82 00 c4 00     ................
    13c2:	bc 00 80 00 40 00 3c 00 00 00 02 00 02 00 02 00     ....@.<.........
    13d2:	02 00 72 00 8a 00 86 00 82 00 82 00 82 00 82 00     ..r.............
    13e2:	82 00 00 00 00 00 00 00 00 00 18 00 18 00 00 00     ................
    13f2:	00 00 1e 00 10 00 10 00 10 00 10 00 10 00 10 00     ................
    1402:	10 00 00 00 00 00 00 00 00 00 30 00 30 00 00 00     ..........0.0...
    1412:	00 00 3c 00 20 00 20 00 20 00 20 00 20 00 20 00     ..<. . . . . . .
    1422:	20 00 20 00 20 00 1e 00 00 00 02 00 02 00 02 00      . . ...........
    1432:	02 00 82 00 62 00 12 00 0e 00 0a 00 32 00 42 00     ....b.......2.B.
    1442:	82 00 00 00 00 00 00 00 00 00 3c 00 20 00 20 00     ..........<. . .
    1452:	20 00 20 00 20 00 20 00 20 00 20 00 20 00 20 00      . . . . . . . .
    1462:	20 00 00 00 00 00 00 00 00 00 00 00 00 00 00 00      ...............
    1472:	00 00 cd 00 33 01 11 01 11 01 11 01 11 01 11 01     ....3...........
    1482:	11 01 00 00 00 00 00 00 00 00 00 00 00 00 00 00     ................
    1492:	00 00 72 00 8e 00 86 00 82 00 82 00 82 00 82 00     ..r.............
    14a2:	82 00 00 00 00 00 00 00 00 00 00 00 00 00 00 00     ................
    14b2:	00 00 38 00 44 00 82 00 82 00 82 00 82 00 44 00     ..8.D.........D.
    14c2:	38 00 00 00 00 00 00 00 00 00 00 00 00 00 00 00     8...............
    14d2:	00 00 7a 00 46 00 82 00 82 00 82 00 82 00 46 00     ..z.F.........F.
    14e2:	3a 00 02 00 02 00 02 00 00 00 00 00 00 00 00 00     :...............
    14f2:	00 00 b8 00 c4 00 82 00 82 00 82 00 82 00 c4 00     ................
    1502:	bc 00 80 00 80 00 80 00 00 00 00 00 00 00 00 00     ................
    1512:	00 00 e4 00 94 00 8c 00 04 00 04 00 04 00 04 00     ................
    1522:	04 00 00 00 00 00 00 00 00 00 00 00 00 00 00 00     ................
    1532:	00 00 7c 00 02 00 02 00 0c 00 30 00 40 00 42 00     ..|.......0.@.B.
    1542:	3e 00 00 00 00 00 00 00 00 00 00 00 00 00 08 00     >...............
    1552:	08 00 fe 00 08 00 08 00 08 00 08 00 08 00 08 00     ................
    1562:	f0 00 00 00 00 00 00 00 00 00 00 00 00 00 00 00     ................
    1572:	00 00 42 00 42 00 42 00 42 00 42 00 42 00 62 00     ..B.B.B.B.B.B.b.
    1582:	5c 00 00 00 00 00 00 00 00 00 00 00 00 00 00 00     \...............
    1592:	00 00 01 01 82 00 82 00 42 00 44 00 24 00 28 00     ........B.D.$.(.
    15a2:	18 00 00 00 00 00 00 00 00 00 00 00 00 00 00 00     ................
    15b2:	00 00 01 02 11 02 32 01 32 01 4a 01 4a 01 cc 00     ......2.2.J.J...
    15c2:	84 00 00 00 00 00 00 00 00 00 00 00 00 00 00 00     ................
    15d2:	00 00 02 01 84 00 48 00 30 00 30 00 48 00 84 00     ......H.0.0.H...
    15e2:	02 01 00 00 00 00 00 00 00 00 00 00 00 00 00 00     ................
    15f2:	00 00 01 02 02 01 02 01 84 00 4c 00 48 00 30 00     ..........L.H.0.
    1602:	30 00 10 00 08 00 07 00 00 00 00 00 00 00 00 00     0...............
    1612:	00 00 fe 01 80 00 40 00 20 00 10 00 08 00 04 00     ......@. .......
    1622:	fe 01 00 00 00 00 00 00 00 00 e0 00 10 00 10 00     ................
    1632:	10 00 10 00 10 00 10 00 0c 00 10 00 10 00 10 00     ................
    1642:	10 00 10 00 e0 00 00 00 00 00 10 00 10 00 10 00     ................
    1652:	10 00 10 00 10 00 10 00 10 00 10 00 10 00 10 00     ................
    1662:	10 00 10 00 10 00 00 00 00 00 1c 00 20 00 20 00     ............ . .
    1672:	20 00 20 00 20 00 20 00 c0 00 20 00 20 00 20 00      . . . ... . . .
    1682:	20 00 20 00 1c 00 00 00 00 00 00 00 00 00 00 00      . .............
    1692:	00 00 00 00 00 00 0e 02 31 02 c1 01 00 00 00 00     ........1.......
	...

000016aa <__ctors_end>:
    16aa:	11 24       	eor	r1, r1
    16ac:	1f be       	out	0x3f, r1	; 63
    16ae:	cf ef       	ldi	r28, 0xFF	; 255
    16b0:	d8 e0       	ldi	r29, 0x08	; 8
    16b2:	de bf       	out	0x3e, r29	; 62
    16b4:	cd bf       	out	0x3d, r28	; 61

000016b6 <__do_copy_data>:
    16b6:	11 e0       	ldi	r17, 0x01	; 1
    16b8:	a0 e0       	ldi	r26, 0x00	; 0
    16ba:	b1 e0       	ldi	r27, 0x01	; 1
    16bc:	e0 e9       	ldi	r30, 0x90	; 144
    16be:	ff e7       	ldi	r31, 0x7F	; 127
    16c0:	02 c0       	rjmp	.+4      	; 0x16c6 <__do_copy_data+0x10>
    16c2:	05 90       	lpm	r0, Z+
    16c4:	0d 92       	st	X+, r0
    16c6:	a6 30       	cpi	r26, 0x06	; 6
    16c8:	b1 07       	cpc	r27, r17
    16ca:	d9 f7       	brne	.-10     	; 0x16c2 <__do_copy_data+0xc>

000016cc <__do_clear_bss>:
    16cc:	21 e0       	ldi	r18, 0x01	; 1
    16ce:	a6 e0       	ldi	r26, 0x06	; 6
    16d0:	b1 e0       	ldi	r27, 0x01	; 1
    16d2:	01 c0       	rjmp	.+2      	; 0x16d6 <.do_clear_bss_start>

000016d4 <.do_clear_bss_loop>:
    16d4:	1d 92       	st	X+, r1

000016d6 <.do_clear_bss_start>:
    16d6:	a9 3f       	cpi	r26, 0xF9	; 249
    16d8:	b2 07       	cpc	r27, r18
    16da:	e1 f7       	brne	.-8      	; 0x16d4 <.do_clear_bss_loop>
    16dc:	0e 94 8f 3c 	call	0x791e	; 0x791e <main>
    16e0:	0c 94 c6 3f 	jmp	0x7f8c	; 0x7f8c <_exit>

000016e4 <__bad_interrupt>:
    16e4:	0c 94 00 00 	jmp	0	; 0x0 <__vectors>

000016e8 <Show_SemiPinout>:
 *  - character for pin B
 *  - character for pin C
 */

void Show_SemiPinout(uint8_t A, uint8_t B, uint8_t C)
{
    16e8:	a0 e0       	ldi	r26, 0x00	; 0
    16ea:	b0 e0       	ldi	r27, 0x00	; 0
    16ec:	ea e7       	ldi	r30, 0x7A	; 122
    16ee:	fb e0       	ldi	r31, 0x0B	; 11
    16f0:	0c 94 21 3f 	jmp	0x7e42	; 0x7e42 <__prologue_saves__+0x14>
    16f4:	d8 2f       	mov	r29, r24
    16f6:	d6 2e       	mov	r13, r22
    16f8:	c4 2e       	mov	r12, r20
  uint8_t           n;             /* counter */
  uint8_t           Char;          /* character */
  #ifdef SW_PROBE_COLORS
  uint16_t          Color;         /* color value */

  Color = UI.PenColor;             /* save current color */
    16fa:	e0 90 2c 01 	lds	r14, 0x012C	; 0x80012c <UI+0x6>
    16fe:	f0 90 2d 01 	lds	r15, 0x012D	; 0x80012d <UI+0x7>
  #endif

  /* display: 123 */
  for (n = 0; n <= 2; n++)
  {
    Display_ProbeNumber(n);
    1702:	80 e0       	ldi	r24, 0x00	; 0
    1704:	0e 94 52 20 	call	0x40a4	; 0x40a4 <Display_ProbeNumber>
    1708:	81 e0       	ldi	r24, 0x01	; 1
    170a:	0e 94 52 20 	call	0x40a4	; 0x40a4 <Display_ProbeNumber>
    170e:	82 e0       	ldi	r24, 0x02	; 2
    1710:	0e 94 52 20 	call	0x40a4	; 0x40a4 <Display_ProbeNumber>
  }

  /* display: = */
  Display_Char('=');
    1714:	8d e3       	ldi	r24, 0x3D	; 61
    1716:	0e 94 8a 3b 	call	0x7714	; 0x7714 <LCD_Char>
    171a:	00 e0       	ldi	r16, 0x00	; 0
    171c:	11 e0       	ldi	r17, 0x01	; 1

  /* display pin IDs */
  for (n = 0; n <= 2; n++)         /* loop through probe pins */
    171e:	c0 e0       	ldi	r28, 0x00	; 0
  {
    #ifdef SW_PROBE_COLORS
    UI.PenColor = ProbeColors[n];  /* set probe color */
    1720:	f8 01       	movw	r30, r16
    1722:	81 91       	ld	r24, Z+
    1724:	91 91       	ld	r25, Z+
    1726:	8f 01       	movw	r16, r30
    1728:	90 93 2d 01 	sts	0x012D, r25	; 0x80012d <UI+0x7>
    172c:	80 93 2c 01 	sts	0x012C, r24	; 0x80012c <UI+0x6>
    #endif

    if (n == Semi.A) Char = A;          /* probe A - ID A */
    1730:	80 91 af 01 	lds	r24, 0x01AF	; 0x8001af <Semi>
    1734:	c8 17       	cp	r28, r24
    1736:	31 f0       	breq	.+12     	; 0x1744 <Show_SemiPinout+0x5c>
    else if (n == Semi.B) Char = B;     /* probe B - ID B */
    1738:	80 91 b0 01 	lds	r24, 0x01B0	; 0x8001b0 <Semi+0x1>
    173c:	c8 17       	cp	r28, r24
    173e:	21 f0       	breq	.+8      	; 0x1748 <Show_SemiPinout+0x60>
    else Char = C;                      /*         - ID C */
    1740:	8c 2d       	mov	r24, r12
    1742:	03 c0       	rjmp	.+6      	; 0x174a <Show_SemiPinout+0x62>
  {
    #ifdef SW_PROBE_COLORS
    UI.PenColor = ProbeColors[n];  /* set probe color */
    #endif

    if (n == Semi.A) Char = A;          /* probe A - ID A */
    1744:	8d 2f       	mov	r24, r29
    1746:	01 c0       	rjmp	.+2      	; 0x174a <Show_SemiPinout+0x62>
    else if (n == Semi.B) Char = B;     /* probe B - ID B */
    1748:	8d 2d       	mov	r24, r13
    else Char = C;                      /*         - ID C */

    Display_Char(Char);            /* display ID */
    174a:	0e 94 8a 3b 	call	0x7714	; 0x7714 <LCD_Char>

  /* display: = */
  Display_Char('=');

  /* display pin IDs */
  for (n = 0; n <= 2; n++)         /* loop through probe pins */
    174e:	cf 5f       	subi	r28, 0xFF	; 255
    1750:	c3 30       	cpi	r28, 0x03	; 3
    1752:	31 f7       	brne	.-52     	; 0x1720 <Show_SemiPinout+0x38>

    Display_Char(Char);            /* display ID */
  }

  #ifdef SW_PROBE_COLORS
  UI.PenColor = Color;             /* restore old color */
    1754:	f0 92 2d 01 	sts	0x012D, r15	; 0x80012d <UI+0x7>
    1758:	e0 92 2c 01 	sts	0x012C, r14	; 0x80012c <UI+0x6>
  #endif
}
    175c:	cd b7       	in	r28, 0x3d	; 61
    175e:	de b7       	in	r29, 0x3e	; 62
    1760:	e8 e0       	ldi	r30, 0x08	; 8
    1762:	0c 94 3d 3f 	jmp	0x7e7a	; 0x7e7a <__epilogue_restores__+0x14>

00001766 <Show_SimplePinout>:
 *  - ID: characters for probes 1, 2 and 3
 *    0 -> not displayed
 */

void Show_SimplePinout(uint8_t ID_1, uint8_t ID_2, uint8_t ID_3)
{
    1766:	a3 e0       	ldi	r26, 0x03	; 3
    1768:	b0 e0       	ldi	r27, 0x00	; 0
    176a:	e9 eb       	ldi	r30, 0xB9	; 185
    176c:	fb e0       	ldi	r31, 0x0B	; 11
    176e:	0c 94 1f 3f 	jmp	0x7e3e	; 0x7e3e <__prologue_saves__+0x10>
  uint8_t           n;        /* counter */
  unsigned char     ID[3];    /* component pin IDs */
  #ifdef SW_PROBE_COLORS
  uint16_t          Color;    /* color value */

  Color = UI.PenColor;             /* save current color */
    1772:	a0 90 2c 01 	lds	r10, 0x012C	; 0x80012c <UI+0x6>
    1776:	b0 90 2d 01 	lds	r11, 0x012D	; 0x80012d <UI+0x7>
  #endif

  /* copy probe pin characters/IDs */
  ID[0] = ID_1;
    177a:	89 83       	std	Y+1, r24	; 0x01
  ID[1] = ID_2;
    177c:	6a 83       	std	Y+2, r22	; 0x02
  ID[2] = ID_3;
    177e:	4b 83       	std	Y+3, r20	; 0x03
    1780:	ce 01       	movw	r24, r28
    1782:	01 96       	adiw	r24, 0x01	; 1
    1784:	6c 01       	movw	r12, r24
    1786:	80 e0       	ldi	r24, 0x00	; 0
    1788:	e8 2e       	mov	r14, r24
    178a:	81 e0       	ldi	r24, 0x01	; 1
    178c:	f8 2e       	mov	r15, r24

  for (n = 0; n <= 2; n++)         /* loop through probe pins */
    178e:	10 e0       	ldi	r17, 0x00	; 0
  {
    if (ID[n] != 0)                /* display this one */
    1790:	f6 01       	movw	r30, r12
    1792:	01 91       	ld	r16, Z+
    1794:	6f 01       	movw	r12, r30
    1796:	00 23       	and	r16, r16
    1798:	b1 f0       	breq	.+44     	; 0x17c6 <Show_SimplePinout+0x60>
    {
      Display_ProbeNumber(n);
    179a:	81 2f       	mov	r24, r17
    179c:	0e 94 52 20 	call	0x40a4	; 0x40a4 <Display_ProbeNumber>
      Display_Char(':');
    17a0:	8a e3       	ldi	r24, 0x3A	; 58
    17a2:	0e 94 8a 3b 	call	0x7714	; 0x7714 <LCD_Char>

      #ifdef SW_PROBE_COLORS
      UI.PenColor = ProbeColors[n];     /* set probe color */
    17a6:	f7 01       	movw	r30, r14
    17a8:	80 81       	ld	r24, Z
    17aa:	91 81       	ldd	r25, Z+1	; 0x01
    17ac:	90 93 2d 01 	sts	0x012D, r25	; 0x80012d <UI+0x7>
    17b0:	80 93 2c 01 	sts	0x012C, r24	; 0x80012c <UI+0x6>
      #endif

      Display_Char(ID[n]);
    17b4:	80 2f       	mov	r24, r16
    17b6:	0e 94 8a 3b 	call	0x7714	; 0x7714 <LCD_Char>

      #ifdef SW_PROBE_COLORS
      UI.PenColor = Color;              /* restore old color */
    17ba:	b0 92 2d 01 	sts	0x012D, r11	; 0x80012d <UI+0x7>
    17be:	a0 92 2c 01 	sts	0x012C, r10	; 0x80012c <UI+0x6>
      #endif

      Display_Space();
    17c2:	0e 94 6e 20 	call	0x40dc	; 0x40dc <Display_Space>
  /* copy probe pin characters/IDs */
  ID[0] = ID_1;
  ID[1] = ID_2;
  ID[2] = ID_3;

  for (n = 0; n <= 2; n++)         /* loop through probe pins */
    17c6:	1f 5f       	subi	r17, 0xFF	; 255
    17c8:	f2 e0       	ldi	r31, 0x02	; 2
    17ca:	ef 0e       	add	r14, r31
    17cc:	f1 1c       	adc	r15, r1
    17ce:	13 30       	cpi	r17, 0x03	; 3
    17d0:	f9 f6       	brne	.-66     	; 0x1790 <Show_SimplePinout+0x2a>
      #endif

      Display_Space();
    }
  }
}
    17d2:	23 96       	adiw	r28, 0x03	; 3
    17d4:	ea e0       	ldi	r30, 0x0A	; 10
    17d6:	0c 94 3b 3f 	jmp	0x7e76	; 0x7e76 <__epilogue_restores__+0x10>

000017da <Show_ENormValues>:
 *  - Tolerance: in 0.1%
 *  - Unit: unit character
 */

void Show_ENormValues(uint32_t Value, int8_t Scale, uint8_t ESeries, uint8_t Tolerance, unsigned char Unit)
{
    17da:	ef 92       	push	r14
    17dc:	0f 93       	push	r16
    17de:	1f 93       	push	r17
    17e0:	cf 93       	push	r28
    17e2:	df 93       	push	r29
    17e4:	c2 2f       	mov	r28, r18
    17e6:	d0 2f       	mov	r29, r16
   *  get E series norm values
   *  - 1st: Semi.I_value, Semi.I_scale
   *  - 2nd: Semi.C_value, Semi.C_scale
   */

  n = GetENormValue(Value, Scale, ESeries, Tolerance);
    17e8:	0e 94 3b 1e 	call	0x3c76	; 0x3c76 <GetENormValue>
    17ec:	18 2f       	mov	r17, r24

  /*
   *  show E series and tolerance
   */

  Display_NextLine();                   /* move to next line */
    17ee:	0e 94 0b 20 	call	0x4016	; 0x4016 <Display_NextLine>

  /* display E series */
  Display_Char('E');                    /* display: E */
    17f2:	85 e4       	ldi	r24, 0x45	; 69
    17f4:	0e 94 8a 3b 	call	0x7714	; 0x7714 <LCD_Char>
  Display_FullValue(ESeries, 0 , 0);    /* display E series */
    17f8:	6c 2f       	mov	r22, r28
    17fa:	70 e0       	ldi	r23, 0x00	; 0
    17fc:	80 e0       	ldi	r24, 0x00	; 0
    17fe:	90 e0       	ldi	r25, 0x00	; 0
    1800:	20 e0       	ldi	r18, 0x00	; 0
    1802:	40 e0       	ldi	r20, 0x00	; 0
    1804:	0e 94 ab 20 	call	0x4156	; 0x4156 <Display_FullValue>

  Display_Space();                      /* display: " " */
    1808:	0e 94 6e 20 	call	0x40dc	; 0x40dc <Display_Space>
  {
    Pos = 1;                            /* one decimal place */
  }
  Temp /= 10;                           /* scale to 1 */

  Display_FullValue(Temp, Pos, '%');    /* display tolerance */
    180c:	41 e0       	ldi	r20, 0x01	; 1
    180e:	0a 30       	cpi	r16, 0x0A	; 10
    1810:	08 f0       	brcs	.+2      	; 0x1814 <Show_ENormValues+0x3a>
    1812:	40 e0       	ldi	r20, 0x00	; 0
    1814:	8d 2f       	mov	r24, r29
    1816:	6a e0       	ldi	r22, 0x0A	; 10
    1818:	0e 94 6d 3e 	call	0x7cda	; 0x7cda <__udivmodqi4>
    181c:	68 2f       	mov	r22, r24
    181e:	70 e0       	ldi	r23, 0x00	; 0
    1820:	80 e0       	ldi	r24, 0x00	; 0
    1822:	90 e0       	ldi	r25, 0x00	; 0
    1824:	25 e2       	ldi	r18, 0x25	; 37
    1826:	0e 94 ab 20 	call	0x4156	; 0x4156 <Display_FullValue>

  Display_Space();                      /* display: " " */
    182a:	0e 94 6e 20 	call	0x40dc	; 0x40dc <Display_Space>

  /*
   *  show norm values
   */

  if (n)                      /* got norm value(s) */
    182e:	11 23       	and	r17, r17
    1830:	f1 f0       	breq	.+60     	; 0x186e <Show_ENormValues+0x94>
  {
    Pos = UI.CharPos_X;       /* get current char position */
    1832:	c0 91 27 01 	lds	r28, 0x0127	; 0x800127 <UI+0x1>

    /* display first norm value */
    Display_EValue(Semi.I_value, Semi.I_scale, Unit);
    1836:	4e 2d       	mov	r20, r14
    1838:	60 91 c5 01 	lds	r22, 0x01C5	; 0x8001c5 <Semi+0x16>
    183c:	80 91 c1 01 	lds	r24, 0x01C1	; 0x8001c1 <Semi+0x12>
    1840:	90 91 c2 01 	lds	r25, 0x01C2	; 0x8001c2 <Semi+0x13>
    1844:	0e 94 a6 21 	call	0x434c	; 0x434c <Display_EValue>

    if (n == 2)               /* got two norm values */
    1848:	12 30       	cpi	r17, 0x02	; 2
    184a:	a1 f4       	brne	.+40     	; 0x1874 <Show_ENormValues+0x9a>
    {
      /* move to next line at same position (after E series) */
      Display_NextLine();
    184c:	0e 94 0b 20 	call	0x4016	; 0x4016 <Display_NextLine>
      LCD_CharPos(Pos, UI.CharPos_Y);
    1850:	60 91 28 01 	lds	r22, 0x0128	; 0x800128 <UI+0x2>
    1854:	8c 2f       	mov	r24, r28
    1856:	0e 94 9f 3a 	call	0x753e	; 0x753e <LCD_CharPos>

      /* display second norm value */
      Display_EValue(Semi.C_value, Semi.C_scale, Unit);
    185a:	4e 2d       	mov	r20, r14
    185c:	60 91 ca 01 	lds	r22, 0x01CA	; 0x8001ca <Semi+0x1b>
    1860:	80 91 c6 01 	lds	r24, 0x01C6	; 0x8001c6 <Semi+0x17>
    1864:	90 91 c7 01 	lds	r25, 0x01C7	; 0x8001c7 <Semi+0x18>
    1868:	0e 94 a6 21 	call	0x434c	; 0x434c <Display_EValue>
    186c:	03 c0       	rjmp	.+6      	; 0x1874 <Show_ENormValues+0x9a>
    }
  }
  else                        /* no norm value */
  {
    Display_Char('-');        /* display: - */
    186e:	8d e2       	ldi	r24, 0x2D	; 45
    1870:	0e 94 8a 3b 	call	0x7714	; 0x7714 <LCD_Char>
  }
}
    1874:	df 91       	pop	r29
    1876:	cf 91       	pop	r28
    1878:	1f 91       	pop	r17
    187a:	0f 91       	pop	r16
    187c:	ef 90       	pop	r14
    187e:	08 95       	ret

00001880 <Show_Fail>:
 */

void Show_Fail(void)
{
  /* display info */
  Display_EEString(Failed1_str);        /* display: No component */
    1880:	8a ec       	ldi	r24, 0xCA	; 202
    1882:	92 e0       	ldi	r25, 0x02	; 2
    1884:	0e 94 43 20 	call	0x4086	; 0x4086 <Display_EEString>
  Display_NL_EEString(Failed2_str);     /* display: found! */
    1888:	83 ec       	ldi	r24, 0xC3	; 195
    188a:	92 e0       	ldi	r25, 0x02	; 2
    188c:	0e 94 77 20 	call	0x40ee	; 0x40ee <Display_NL_EEString>

  #if CYCLE_MAX < 255
  MissedParts++;              /* increase counter */
    1890:	80 91 ad 01 	lds	r24, 0x01AD	; 0x8001ad <MissedParts>
    1894:	8f 5f       	subi	r24, 0xFF	; 255
    1896:	80 93 ad 01 	sts	0x01AD, r24	; 0x8001ad <MissedParts>
    189a:	08 95       	ret

0000189c <Show_Error>:
 *  show error
 */

void Show_Error()
{
  if (Check.Type == TYPE_DISCHARGE)          /* discharge failed */
    189c:	80 91 07 01 	lds	r24, 0x0107	; 0x800107 <__data_end+0x1>
    18a0:	81 30       	cpi	r24, 0x01	; 1
    18a2:	d1 f4       	brne	.+52     	; 0x18d8 <Show_Error+0x3c>
  {
    Display_EEString(DischargeFailed_str);   /* display: Battery? */
    18a4:	8a e6       	ldi	r24, 0x6A	; 106
    18a6:	92 e0       	ldi	r25, 0x02	; 2
    18a8:	0e 94 43 20 	call	0x4086	; 0x4086 <Display_EEString>

    /* display probe number and remaining voltage */
    Display_NextLine();
    18ac:	0e 94 0b 20 	call	0x4016	; 0x4016 <Display_NextLine>
    Display_ProbeNumber(Check.Probe);
    18b0:	80 91 0c 01 	lds	r24, 0x010C	; 0x80010c <__data_end+0x6>
    18b4:	0e 94 52 20 	call	0x40a4	; 0x40a4 <Display_ProbeNumber>
    Display_Char(':');
    18b8:	8a e3       	ldi	r24, 0x3A	; 58
    18ba:	0e 94 8a 3b 	call	0x7714	; 0x7714 <LCD_Char>
    Display_Space();
    18be:	0e 94 6e 20 	call	0x40dc	; 0x40dc <Display_Space>
    Display_Value(Check.U, -3, 'V');
    18c2:	60 91 0d 01 	lds	r22, 0x010D	; 0x80010d <__data_end+0x7>
    18c6:	70 91 0e 01 	lds	r23, 0x010E	; 0x80010e <__data_end+0x8>
    18ca:	80 e0       	ldi	r24, 0x00	; 0
    18cc:	90 e0       	ldi	r25, 0x00	; 0
    18ce:	26 e5       	ldi	r18, 0x56	; 86
    18d0:	4d ef       	ldi	r20, 0xFD	; 253
    18d2:	0e 94 fa 20 	call	0x41f4	; 0x41f4 <Display_Value>
    18d6:	08 95       	ret
  }
  else if (Check.Type == TYPE_DETECTION)     /* detection error */
    18d8:	82 30       	cpi	r24, 0x02	; 2
    18da:	11 f4       	brne	.+4      	; 0x18e0 <Show_Error+0x44>
  {
    /* simply display: No component found! */
    Show_Fail();
    18dc:	0e 94 40 0c 	call	0x1880	; 0x1880 <Show_Fail>
    18e0:	08 95       	ret

000018e2 <Show_SingleResistor>:
 *  - ID1: pin ID #1 character
 *  - ID2: pin ID #2 character
 */

void Show_SingleResistor(uint8_t ID1, uint8_t ID2)
{
    18e2:	cf 93       	push	r28
    18e4:	c6 2f       	mov	r28, r22
  Resistor_Type     *Resistor;     /* pointer to resistor */

  Resistor = &Resistors[0];        /* pointer to first resistor */

  /* show pinout */
  Display_Char(ID1);
    18e6:	0e 94 8a 3b 	call	0x7714	; 0x7714 <LCD_Char>
  Display_EEString(Resistor_str);
    18ea:	85 ef       	ldi	r24, 0xF5	; 245
    18ec:	90 e0       	ldi	r25, 0x00	; 0
    18ee:	0e 94 43 20 	call	0x4086	; 0x4086 <Display_EEString>
  Display_Char(ID2); 
    18f2:	8c 2f       	mov	r24, r28
    18f4:	0e 94 8a 3b 	call	0x7714	; 0x7714 <LCD_Char>

  /* show resistance value */
  Display_Space();
    18f8:	0e 94 6e 20 	call	0x40dc	; 0x40dc <Display_Space>
  Display_Value(Resistor->Value, Resistor->Scale, LCD_CHAR_OMEGA);
    18fc:	e1 e1       	ldi	r30, 0x11	; 17
    18fe:	f1 e0       	ldi	r31, 0x01	; 1
    1900:	63 81       	ldd	r22, Z+3	; 0x03
    1902:	74 81       	ldd	r23, Z+4	; 0x04
    1904:	85 81       	ldd	r24, Z+5	; 0x05
    1906:	96 81       	ldd	r25, Z+6	; 0x06
    1908:	24 e0       	ldi	r18, 0x04	; 4
    190a:	42 81       	ldd	r20, Z+2	; 0x02
    190c:	0e 94 fa 20 	call	0x41f4	; 0x41f4 <Display_Value>
}
    1910:	cf 91       	pop	r28
    1912:	08 95       	ret

00001914 <Show_Resistor>:
/*
 *  show resistor(s)
 */

void Show_Resistor(void)
{
    1914:	a0 e0       	ldi	r26, 0x00	; 0
    1916:	b0 e0       	ldi	r27, 0x00	; 0
    1918:	e0 e9       	ldi	r30, 0x90	; 144
    191a:	fc e0       	ldi	r31, 0x0C	; 12
    191c:	0c 94 21 3f 	jmp	0x7e42	; 0x7e42 <__prologue_saves__+0x14>
  Resistor_Type     *R2;           /* pointer to resistor #2 */
  uint8_t           Pin;           /* ID of common pin */

  R1 = &Resistors[0];              /* pointer to first resistor */

  if (Check.Resistors == 1)        /* single resistor */
    1920:	80 91 0a 01 	lds	r24, 0x010A	; 0x80010a <__data_end+0x4>
    1924:	81 30       	cpi	r24, 0x01	; 1
    1926:	39 f4       	brne	.+14     	; 0x1936 <Show_Resistor+0x22>
  {
    R2 = NULL;                     /* disable second resistor */
    Pin = R1->A;                   /* make B the first pin */
    1928:	f0 90 11 01 	lds	r15, 0x0111	; 0x800111 <Resistors>

  R1 = &Resistors[0];              /* pointer to first resistor */

  if (Check.Resistors == 1)        /* single resistor */
  {
    R2 = NULL;                     /* disable second resistor */
    192c:	00 e0       	ldi	r16, 0x00	; 0
    192e:	10 e0       	ldi	r17, 0x00	; 0
{
  Resistor_Type     *R1;           /* pointer to resistor #1 */
  Resistor_Type     *R2;           /* pointer to resistor #2 */
  uint8_t           Pin;           /* ID of common pin */

  R1 = &Resistors[0];              /* pointer to first resistor */
    1930:	c1 e1       	ldi	r28, 0x11	; 17
    1932:	d1 e0       	ldi	r29, 0x01	; 1
    1934:	5b c0       	rjmp	.+182    	; 0x19ec <Show_Resistor+0xd8>
    #ifdef UI_SERIAL_COMMANDS
    /* set data for remote commands */
    Info.Quantity = 2;             /* got two */
    #endif

    if (Check.Resistors == 3)      /* three resistors */
    1936:	83 30       	cpi	r24, 0x03	; 3
    1938:	09 f0       	breq	.+2      	; 0x193c <Show_Resistor+0x28>
    193a:	4c c0       	rjmp	.+152    	; 0x19d4 <Show_Resistor+0xc0>
       */

      Rmax = R1;                   /* starting point */
      for (Pin = 1; Pin <= 2; Pin++)
      {
        if (CmpValue(R2->Value, R2->Scale, Rmax->Value, Rmax->Scale) == 1)
    193c:	00 91 14 01 	lds	r16, 0x0114	; 0x800114 <Resistors+0x3>
    1940:	10 91 15 01 	lds	r17, 0x0115	; 0x800115 <Resistors+0x4>
    1944:	20 91 16 01 	lds	r18, 0x0116	; 0x800116 <Resistors+0x5>
    1948:	30 91 17 01 	lds	r19, 0x0117	; 0x800117 <Resistors+0x6>
    194c:	60 91 1b 01 	lds	r22, 0x011B	; 0x80011b <Resistors+0xa>
    1950:	70 91 1c 01 	lds	r23, 0x011C	; 0x80011c <Resistors+0xb>
    1954:	80 91 1d 01 	lds	r24, 0x011D	; 0x80011d <Resistors+0xc>
    1958:	90 91 1e 01 	lds	r25, 0x011E	; 0x80011e <Resistors+0xd>
    195c:	e0 90 13 01 	lds	r14, 0x0113	; 0x800113 <Resistors+0x2>
    1960:	40 91 1a 01 	lds	r20, 0x011A	; 0x80011a <Resistors+0x9>
    1964:	0e 94 fd 12 	call	0x25fa	; 0x25fa <CmpValue>
    1968:	81 30       	cpi	r24, 0x01	; 1
    196a:	29 f4       	brne	.+10     	; 0x1976 <Show_Resistor+0x62>
    196c:	28 e1       	ldi	r18, 0x18	; 24
    196e:	c2 2e       	mov	r12, r18
    1970:	21 e0       	ldi	r18, 0x01	; 1
    1972:	d2 2e       	mov	r13, r18
    1974:	04 c0       	rjmp	.+8      	; 0x197e <Show_Resistor+0x6a>
    1976:	91 e1       	ldi	r25, 0x11	; 17
    1978:	c9 2e       	mov	r12, r25
    197a:	91 e0       	ldi	r25, 0x01	; 1
    197c:	d9 2e       	mov	r13, r25
    197e:	f6 01       	movw	r30, r12
    1980:	03 81       	ldd	r16, Z+3	; 0x03
    1982:	14 81       	ldd	r17, Z+4	; 0x04
    1984:	25 81       	ldd	r18, Z+5	; 0x05
    1986:	36 81       	ldd	r19, Z+6	; 0x06
    1988:	60 91 22 01 	lds	r22, 0x0122	; 0x800122 <Resistors+0x11>
    198c:	70 91 23 01 	lds	r23, 0x0123	; 0x800123 <Resistors+0x12>
    1990:	80 91 24 01 	lds	r24, 0x0124	; 0x800124 <Resistors+0x13>
    1994:	90 91 25 01 	lds	r25, 0x0125	; 0x800125 <Resistors+0x14>
    1998:	e2 80       	ldd	r14, Z+2	; 0x02
    199a:	40 91 21 01 	lds	r20, 0x0121	; 0x800121 <Resistors+0x10>
    199e:	0e 94 fd 12 	call	0x25fa	; 0x25fa <CmpValue>
    19a2:	81 30       	cpi	r24, 0x01	; 1
    19a4:	21 f4       	brne	.+8      	; 0x19ae <Show_Resistor+0x9a>
        {
          Rmax = R2;          /* update largest one */
        }

        R2++;                 /* next one */
    19a6:	8f e1       	ldi	r24, 0x1F	; 31
    19a8:	c8 2e       	mov	r12, r24
    19aa:	81 e0       	ldi	r24, 0x01	; 1
    19ac:	d8 2e       	mov	r13, r24
      }

      /* get the two smaller resistors */
      if (R1 == Rmax) R1++;
    19ae:	f1 e1       	ldi	r31, 0x11	; 17
    19b0:	cf 16       	cp	r12, r31
    19b2:	f1 e0       	ldi	r31, 0x01	; 1
    19b4:	df 06       	cpc	r13, r31
    19b6:	19 f4       	brne	.+6      	; 0x19be <Show_Resistor+0xaa>
    19b8:	c8 e1       	ldi	r28, 0x18	; 24
    19ba:	d1 e0       	ldi	r29, 0x01	; 1
    19bc:	02 c0       	rjmp	.+4      	; 0x19c2 <Show_Resistor+0xae>
{
  Resistor_Type     *R1;           /* pointer to resistor #1 */
  Resistor_Type     *R2;           /* pointer to resistor #2 */
  uint8_t           Pin;           /* ID of common pin */

  R1 = &Resistors[0];              /* pointer to first resistor */
    19be:	c1 e1       	ldi	r28, 0x11	; 17
    19c0:	d1 e0       	ldi	r29, 0x01	; 1
      }

      /* get the two smaller resistors */
      if (R1 == Rmax) R1++;
      R2 = R1;
      R2++;
    19c2:	8e 01       	movw	r16, r28
    19c4:	09 5f       	subi	r16, 0xF9	; 249
    19c6:	1f 4f       	sbci	r17, 0xFF	; 255
      if (R2 == Rmax) R2++;
    19c8:	c0 16       	cp	r12, r16
    19ca:	d1 06       	cpc	r13, r17
    19cc:	39 f4       	brne	.+14     	; 0x19dc <Show_Resistor+0xc8>
    19ce:	09 5f       	subi	r16, 0xF9	; 249
    19d0:	1f 4f       	sbci	r17, 0xFF	; 255
    19d2:	04 c0       	rjmp	.+8      	; 0x19dc <Show_Resistor+0xc8>
    Pin = R1->A;                   /* make B the first pin */
  }
  else                             /* multiple resistors */
  {
    R2 = R1;
    R2++;                          /* pointer to second resistor */
    19d4:	08 e1       	ldi	r16, 0x18	; 24
    19d6:	11 e0       	ldi	r17, 0x01	; 1
{
  Resistor_Type     *R1;           /* pointer to resistor #1 */
  Resistor_Type     *R2;           /* pointer to resistor #2 */
  uint8_t           Pin;           /* ID of common pin */

  R1 = &Resistors[0];              /* pointer to first resistor */
    19d8:	c1 e1       	ldi	r28, 0x11	; 17
    19da:	d1 e0       	ldi	r29, 0x01	; 1
      R2++;
      if (R2 == Rmax) R2++;
    }

    /* find common pin of both resistors */
    if ((R1->A == R2->A) || (R1->A == R2->B))
    19dc:	88 81       	ld	r24, Y
    19de:	f8 01       	movw	r30, r16
    19e0:	f0 80       	ld	r15, Z
    19e2:	8f 15       	cp	r24, r15
    19e4:	19 f0       	breq	.+6      	; 0x19ec <Show_Resistor+0xd8>
    19e6:	f1 80       	ldd	r15, Z+1	; 0x01
    19e8:	8f 11       	cpse	r24, r15
    {
      Pin = R1->A;            /* pin A */
    }
    else
    {
      Pin = R1->B;            /* pin B */
    19ea:	f9 80       	ldd	r15, Y+1	; 0x01
  /*
   *  display the pins
   */

  /* first resistor */
  if (R1->A != Pin)           /* A is not common pin */
    19ec:	88 81       	ld	r24, Y
    19ee:	f8 12       	cpse	r15, r24
    19f0:	01 c0       	rjmp	.+2      	; 0x19f4 <Show_Resistor+0xe0>
  {
    Display_ProbeNumber(R1->A);    /* display pin A */
  }
  else                        /* single resistor or A is common pin */
  {
    Display_ProbeNumber(R1->B);    /* display pin B */
    19f2:	89 81       	ldd	r24, Y+1	; 0x01
    19f4:	0e 94 52 20 	call	0x40a4	; 0x40a4 <Display_ProbeNumber>
  }

  Display_EEString(Resistor_str);
    19f8:	85 ef       	ldi	r24, 0xF5	; 245
    19fa:	90 e0       	ldi	r25, 0x00	; 0
    19fc:	0e 94 43 20 	call	0x4086	; 0x4086 <Display_EEString>
  Display_ProbeNumber(Pin);       /* display common pin */
    1a00:	8f 2d       	mov	r24, r15
    1a02:	0e 94 52 20 	call	0x40a4	; 0x40a4 <Display_ProbeNumber>

  if (R2)           /* second resistor */
    1a06:	01 15       	cp	r16, r1
    1a08:	11 05       	cpc	r17, r1
    1a0a:	61 f0       	breq	.+24     	; 0x1a24 <Show_Resistor+0x110>
  {
    Display_EEString(Resistor_str);
    1a0c:	85 ef       	ldi	r24, 0xF5	; 245
    1a0e:	90 e0       	ldi	r25, 0x00	; 0
    1a10:	0e 94 43 20 	call	0x4086	; 0x4086 <Display_EEString>

    if (R2->A != Pin)         /* A is not common pin */
    1a14:	f8 01       	movw	r30, r16
    1a16:	80 81       	ld	r24, Z
    1a18:	f8 12       	cpse	r15, r24
    1a1a:	02 c0       	rjmp	.+4      	; 0x1a20 <Show_Resistor+0x10c>
    {
      Display_ProbeNumber(R2->A);  /* display pin A */
    }
    else                      /* A is common pin */
    {
      Display_ProbeNumber(R2->B);  /* display pin B */
    1a1c:	f8 01       	movw	r30, r16
    1a1e:	81 81       	ldd	r24, Z+1	; 0x01
    1a20:	0e 94 52 20 	call	0x40a4	; 0x40a4 <Display_ProbeNumber>
  /*
   *  display the values
   */

  /* first resistor */
  Display_NextLine();
    1a24:	0e 94 0b 20 	call	0x4016	; 0x4016 <Display_NextLine>
  Display_Value(R1->Value, R1->Scale, LCD_CHAR_OMEGA);
    1a28:	6b 81       	ldd	r22, Y+3	; 0x03
    1a2a:	7c 81       	ldd	r23, Y+4	; 0x04
    1a2c:	8d 81       	ldd	r24, Y+5	; 0x05
    1a2e:	9e 81       	ldd	r25, Y+6	; 0x06
    1a30:	24 e0       	ldi	r18, 0x04	; 4
    1a32:	4a 81       	ldd	r20, Y+2	; 0x02
    1a34:	0e 94 fa 20 	call	0x41f4	; 0x41f4 <Display_Value>

  if (R2)                /* second resistor */
    1a38:	01 15       	cp	r16, r1
    1a3a:	11 05       	cpc	r17, r1
    1a3c:	51 f0       	breq	.+20     	; 0x1a52 <Show_Resistor+0x13e>
  {
    Display_Space();
    1a3e:	0e 94 6e 20 	call	0x40dc	; 0x40dc <Display_Space>
    Display_Value(R2->Value, R2->Scale, LCD_CHAR_OMEGA);
    1a42:	f8 01       	movw	r30, r16
    1a44:	63 81       	ldd	r22, Z+3	; 0x03
    1a46:	74 81       	ldd	r23, Z+4	; 0x04
    1a48:	85 81       	ldd	r24, Z+5	; 0x05
    1a4a:	96 81       	ldd	r25, Z+6	; 0x06
    1a4c:	24 e0       	ldi	r18, 0x04	; 4
    1a4e:	42 81       	ldd	r20, Z+2	; 0x02
    1a50:	12 c0       	rjmp	.+36     	; 0x1a76 <Show_Resistor+0x162>
  }
  #ifdef SW_INDUCTOR
  else                   /* single resistor */
  {
    /* get inductance and display if relevant */
    if (MeasureInductor(R1) == 1)       /* inductor */
    1a52:	ce 01       	movw	r24, r28
    1a54:	0e 94 2e 33 	call	0x665c	; 0x665c <MeasureInductor>
    1a58:	81 30       	cpi	r24, 0x01	; 1
    1a5a:	79 f4       	brne	.+30     	; 0x1a7a <Show_Resistor+0x166>
    {
      Display_Space();
    1a5c:	0e 94 6e 20 	call	0x40dc	; 0x40dc <Display_Space>
      Display_Value(Inductor.Value, Inductor.Scale, 'H');
    1a60:	60 91 e9 01 	lds	r22, 0x01E9	; 0x8001e9 <Inductor+0x1>
    1a64:	70 91 ea 01 	lds	r23, 0x01EA	; 0x8001ea <Inductor+0x2>
    1a68:	80 91 eb 01 	lds	r24, 0x01EB	; 0x8001eb <Inductor+0x3>
    1a6c:	90 91 ec 01 	lds	r25, 0x01EC	; 0x8001ec <Inductor+0x4>
    1a70:	28 e4       	ldi	r18, 0x48	; 72
    1a72:	40 91 e8 01 	lds	r20, 0x01E8	; 0x8001e8 <Inductor>
    1a76:	0e 94 fa 20 	call	0x41f4	; 0x41f4 <Display_Value>
    /* show E series norm value color-codes for E96 1% */
    Show_ENormCodes(R1->Value, R1->Scale, E96, 10, COLOR_CODE_BROWN);
    #endif
  }
  #endif
}
    1a7a:	cd b7       	in	r28, 0x3d	; 61
    1a7c:	de b7       	in	r29, 0x3e	; 62
    1a7e:	e8 e0       	ldi	r30, 0x08	; 8
    1a80:	0c 94 3d 3f 	jmp	0x7e7a	; 0x7e7a <__epilogue_restores__+0x14>

00001a84 <Show_Capacitor>:
/*
 *  show capacitor
 */

void Show_Capacitor(void)
{
    1a84:	ef 92       	push	r14
    1a86:	0f 93       	push	r16
    1a88:	1f 93       	push	r17
    1a8a:	cf 93       	push	r28
    1a8c:	df 93       	push	r29

  for (Counter = 1; Counter <= 2; Counter++) 
  {
    Cap++;                         /* next cap */

    if (CmpValue(Cap->Value, Cap->Scale, MaxCap->Value, MaxCap->Scale) == 1)
    1a8e:	00 91 52 01 	lds	r16, 0x0152	; 0x800152 <Caps+0x3>
    1a92:	10 91 53 01 	lds	r17, 0x0153	; 0x800153 <Caps+0x4>
    1a96:	20 91 54 01 	lds	r18, 0x0154	; 0x800154 <Caps+0x5>
    1a9a:	30 91 55 01 	lds	r19, 0x0155	; 0x800155 <Caps+0x6>
    1a9e:	60 91 61 01 	lds	r22, 0x0161	; 0x800161 <Caps+0x12>
    1aa2:	70 91 62 01 	lds	r23, 0x0162	; 0x800162 <Caps+0x13>
    1aa6:	80 91 63 01 	lds	r24, 0x0163	; 0x800163 <Caps+0x14>
    1aaa:	90 91 64 01 	lds	r25, 0x0164	; 0x800164 <Caps+0x15>
    1aae:	e0 90 51 01 	lds	r14, 0x0151	; 0x800151 <Caps+0x2>
    1ab2:	40 91 60 01 	lds	r20, 0x0160	; 0x800160 <Caps+0x11>
    1ab6:	0e 94 fd 12 	call	0x25fa	; 0x25fa <CmpValue>
    1aba:	81 30       	cpi	r24, 0x01	; 1
    1abc:	19 f4       	brne	.+6      	; 0x1ac4 <Show_Capacitor+0x40>
  MaxCap = &Caps[0];               /* pointer to first cap */
  Cap = MaxCap;

  for (Counter = 1; Counter <= 2; Counter++) 
  {
    Cap++;                         /* next cap */
    1abe:	ce e5       	ldi	r28, 0x5E	; 94
    1ac0:	d1 e0       	ldi	r29, 0x01	; 1
    1ac2:	02 c0       	rjmp	.+4      	; 0x1ac8 <Show_Capacitor+0x44>
  uint16_t          ESR;           /* ESR (in 0.01 Ohms) */
  #endif
  uint8_t           Counter;       /* loop counter */

  /* find largest cap */
  MaxCap = &Caps[0];               /* pointer to first cap */
    1ac4:	cf e4       	ldi	r28, 0x4F	; 79
    1ac6:	d1 e0       	ldi	r29, 0x01	; 1

  for (Counter = 1; Counter <= 2; Counter++) 
  {
    Cap++;                         /* next cap */

    if (CmpValue(Cap->Value, Cap->Scale, MaxCap->Value, MaxCap->Scale) == 1)
    1ac8:	0b 81       	ldd	r16, Y+3	; 0x03
    1aca:	1c 81       	ldd	r17, Y+4	; 0x04
    1acc:	2d 81       	ldd	r18, Y+5	; 0x05
    1ace:	3e 81       	ldd	r19, Y+6	; 0x06
    1ad0:	60 91 70 01 	lds	r22, 0x0170	; 0x800170 <Caps+0x21>
    1ad4:	70 91 71 01 	lds	r23, 0x0171	; 0x800171 <Caps+0x22>
    1ad8:	80 91 72 01 	lds	r24, 0x0172	; 0x800172 <Caps+0x23>
    1adc:	90 91 73 01 	lds	r25, 0x0173	; 0x800173 <Caps+0x24>
    1ae0:	ea 80       	ldd	r14, Y+2	; 0x02
    1ae2:	40 91 6f 01 	lds	r20, 0x016F	; 0x80016f <Caps+0x20>
    1ae6:	0e 94 fd 12 	call	0x25fa	; 0x25fa <CmpValue>
    1aea:	81 30       	cpi	r24, 0x01	; 1
    1aec:	11 f4       	brne	.+4      	; 0x1af2 <Show_Capacitor+0x6e>
  MaxCap = &Caps[0];               /* pointer to first cap */
  Cap = MaxCap;

  for (Counter = 1; Counter <= 2; Counter++) 
  {
    Cap++;                         /* next cap */
    1aee:	cd e6       	ldi	r28, 0x6D	; 109
    1af0:	d1 e0       	ldi	r29, 0x01	; 1
  /* set data for remote commands */
  Info.Comp1 = (void *)MaxCap;     /* link largest cap */
  #endif

  /* display pinout */
  Display_ProbeNumber(MaxCap->A);  /* display pin #1 */
    1af2:	88 81       	ld	r24, Y
    1af4:	0e 94 52 20 	call	0x40a4	; 0x40a4 <Display_ProbeNumber>
  Display_EEString(Cap_str);       /* display capacitor symbol */
    1af8:	82 e0       	ldi	r24, 0x02	; 2
    1afa:	91 e0       	ldi	r25, 0x01	; 1
    1afc:	0e 94 43 20 	call	0x4086	; 0x4086 <Display_EEString>
  Display_ProbeNumber(MaxCap->B);  /* display pin #2 */
    1b00:	89 81       	ldd	r24, Y+1	; 0x01
    1b02:	0e 94 52 20 	call	0x40a4	; 0x40a4 <Display_ProbeNumber>

  /* show capacitance */
  Display_NextLine();              /* move to next line */
    1b06:	0e 94 0b 20 	call	0x4016	; 0x4016 <Display_NextLine>
  Display_Value(MaxCap->Value, MaxCap->Scale, 'F');
    1b0a:	6b 81       	ldd	r22, Y+3	; 0x03
    1b0c:	7c 81       	ldd	r23, Y+4	; 0x04
    1b0e:	8d 81       	ldd	r24, Y+5	; 0x05
    1b10:	9e 81       	ldd	r25, Y+6	; 0x06
    1b12:	26 e4       	ldi	r18, 0x46	; 70
    1b14:	4a 81       	ldd	r20, Y+2	; 0x02
    1b16:	0e 94 fa 20 	call	0x41f4	; 0x41f4 <Display_Value>

  #if defined (SW_ESR) || defined (SW_OLD_ESR)
  /* show ESR */
  ESR = MeasureESR(MaxCap);        /* measure ESR */
    1b1a:	ce 01       	movw	r24, r28
    1b1c:	0e 94 ae 25 	call	0x4b5c	; 0x4b5c <MeasureESR>
    1b20:	8c 01       	movw	r16, r24
  if (ESR < UINT16_MAX)            /* if successfull */
    1b22:	0f 3f       	cpi	r16, 0xFF	; 255
    1b24:	8f ef       	ldi	r24, 0xFF	; 255
    1b26:	18 07       	cpc	r17, r24
    1b28:	49 f0       	breq	.+18     	; 0x1b3c <Show_Capacitor+0xb8>
  {
    Display_Space();
    1b2a:	0e 94 6e 20 	call	0x40dc	; 0x40dc <Display_Space>
    Display_Value(ESR, -2, LCD_CHAR_OMEGA);  /* display ESR */
    1b2e:	b8 01       	movw	r22, r16
    1b30:	80 e0       	ldi	r24, 0x00	; 0
    1b32:	90 e0       	ldi	r25, 0x00	; 0
    1b34:	24 e0       	ldi	r18, 0x04	; 4
    1b36:	4e ef       	ldi	r20, 0xFE	; 254
    1b38:	0e 94 fa 20 	call	0x41f4	; 0x41f4 <Display_Value>
    Info.Val1 = ESR;               /* copy ESR */
    #endif
  #endif

  /* show discharge leakage current */
  if (MaxCap->I_leak > 0)
    1b3c:	8b 85       	ldd	r24, Y+11	; 0x0b
    1b3e:	9c 85       	ldd	r25, Y+12	; 0x0c
    1b40:	ad 85       	ldd	r26, Y+13	; 0x0d
    1b42:	be 85       	ldd	r27, Y+14	; 0x0e
    1b44:	89 2b       	or	r24, r25
    1b46:	8a 2b       	or	r24, r26
    1b48:	8b 2b       	or	r24, r27
    1b4a:	61 f0       	breq	.+24     	; 0x1b64 <Show_Capacitor+0xe0>
  {
    Display_NL_EEString_Space(I_leak_str);
    1b4c:	85 e2       	ldi	r24, 0x25	; 37
    1b4e:	91 e0       	ldi	r25, 0x01	; 1
    1b50:	0e 94 82 20 	call	0x4104	; 0x4104 <Display_NL_EEString_Space>
    Display_Value(MaxCap->I_leak, -8, 'A');  /* in 10nA */
    1b54:	6b 85       	ldd	r22, Y+11	; 0x0b
    1b56:	7c 85       	ldd	r23, Y+12	; 0x0c
    1b58:	8d 85       	ldd	r24, Y+13	; 0x0d
    1b5a:	9e 85       	ldd	r25, Y+14	; 0x0e
    1b5c:	21 e4       	ldi	r18, 0x41	; 65
    1b5e:	48 ef       	ldi	r20, 0xF8	; 248
    1b60:	0e 94 fa 20 	call	0x41f4	; 0x41f4 <Display_Value>
  }

  #ifdef SW_C_E6_T
  /* show E series norm values for E6 20% */
  Show_ENormValues(MaxCap->Value, MaxCap->Scale, E6, 200, 'F');
    1b64:	6b 81       	ldd	r22, Y+3	; 0x03
    1b66:	7c 81       	ldd	r23, Y+4	; 0x04
    1b68:	8d 81       	ldd	r24, Y+5	; 0x05
    1b6a:	9e 81       	ldd	r25, Y+6	; 0x06
    1b6c:	26 e4       	ldi	r18, 0x46	; 70
    1b6e:	e2 2e       	mov	r14, r18
    1b70:	08 ec       	ldi	r16, 0xC8	; 200
    1b72:	26 e0       	ldi	r18, 0x06	; 6
    1b74:	4a 81       	ldd	r20, Y+2	; 0x02
    1b76:	0e 94 ed 0b 	call	0x17da	; 0x17da <Show_ENormValues>
  #endif

  #ifdef SW_C_E12_T
  /* show E series norm values for E12 10% */
  Show_ENormValues(MaxCap->Value, MaxCap->Scale, E12, 100, 'F');
    1b7a:	6b 81       	ldd	r22, Y+3	; 0x03
    1b7c:	7c 81       	ldd	r23, Y+4	; 0x04
    1b7e:	8d 81       	ldd	r24, Y+5	; 0x05
    1b80:	9e 81       	ldd	r25, Y+6	; 0x06
    1b82:	04 e6       	ldi	r16, 0x64	; 100
    1b84:	2c e0       	ldi	r18, 0x0C	; 12
    1b86:	4a 81       	ldd	r20, Y+2	; 0x02
    1b88:	0e 94 ed 0b 	call	0x17da	; 0x17da <Show_ENormValues>
  #endif
}
    1b8c:	df 91       	pop	r29
    1b8e:	cf 91       	pop	r28
    1b90:	1f 91       	pop	r17
    1b92:	0f 91       	pop	r16
    1b94:	ef 90       	pop	r14
    1b96:	08 95       	ret

00001b98 <Show_SemiCurrent>:
 *  - I_value - current 
 *  - I_scale - scale for current (10^x)
 */

void Show_SemiCurrent(const unsigned char *String)
{
    1b98:	ef 92       	push	r14
    1b9a:	0f 93       	push	r16
    1b9c:	1f 93       	push	r17
    1b9e:	cf 93       	push	r28
    1ba0:	df 93       	push	r29
    1ba2:	ec 01       	movw	r28, r24
  if (CmpValue(Semi.I_value, Semi.I_scale, 50, -9) >= 0)  /* show if >=50nA */
    1ba4:	60 91 c1 01 	lds	r22, 0x01C1	; 0x8001c1 <Semi+0x12>
    1ba8:	70 91 c2 01 	lds	r23, 0x01C2	; 0x8001c2 <Semi+0x13>
    1bac:	80 91 c3 01 	lds	r24, 0x01C3	; 0x8001c3 <Semi+0x14>
    1bb0:	90 91 c4 01 	lds	r25, 0x01C4	; 0x8001c4 <Semi+0x15>
    1bb4:	27 ef       	ldi	r18, 0xF7	; 247
    1bb6:	e2 2e       	mov	r14, r18
    1bb8:	02 e3       	ldi	r16, 0x32	; 50
    1bba:	10 e0       	ldi	r17, 0x00	; 0
    1bbc:	20 e0       	ldi	r18, 0x00	; 0
    1bbe:	30 e0       	ldi	r19, 0x00	; 0
    1bc0:	40 91 c5 01 	lds	r20, 0x01C5	; 0x8001c5 <Semi+0x16>
    1bc4:	0e 94 fd 12 	call	0x25fa	; 0x25fa <CmpValue>
    1bc8:	87 fd       	sbrc	r24, 7
    1bca:	10 c0       	rjmp	.+32     	; 0x1bec <Show_SemiCurrent+0x54>
  {
    Display_NL_EEString_Space(String);               /* display: <string> */
    1bcc:	ce 01       	movw	r24, r28
    1bce:	0e 94 82 20 	call	0x4104	; 0x4104 <Display_NL_EEString_Space>
    Display_Value(Semi.I_value, Semi.I_scale, 'A');  /* display current */
    1bd2:	60 91 c1 01 	lds	r22, 0x01C1	; 0x8001c1 <Semi+0x12>
    1bd6:	70 91 c2 01 	lds	r23, 0x01C2	; 0x8001c2 <Semi+0x13>
    1bda:	80 91 c3 01 	lds	r24, 0x01C3	; 0x8001c3 <Semi+0x14>
    1bde:	90 91 c4 01 	lds	r25, 0x01C4	; 0x8001c4 <Semi+0x15>
    1be2:	21 e4       	ldi	r18, 0x41	; 65
    1be4:	40 91 c5 01 	lds	r20, 0x01C5	; 0x8001c5 <Semi+0x16>
    1be8:	0e 94 fa 20 	call	0x41f4	; 0x41f4 <Display_Value>
  }
}
    1bec:	df 91       	pop	r29
    1bee:	cf 91       	pop	r28
    1bf0:	1f 91       	pop	r17
    1bf2:	0f 91       	pop	r16
    1bf4:	ef 90       	pop	r14
    1bf6:	08 95       	ret

00001bf8 <Show_Diode_Cap>:
 */

void Show_Diode_Cap(Diode_Type *Diode)
{
  /* get capacitance (reversed direction) */
  MeasureCap(Diode->C, Diode->A, 0);
    1bf8:	40 e0       	ldi	r20, 0x00	; 0
    1bfa:	fc 01       	movw	r30, r24
    1bfc:	60 81       	ld	r22, Z
    1bfe:	81 81       	ldd	r24, Z+1	; 0x01
    1c00:	0e 94 80 29 	call	0x5300	; 0x5300 <MeasureCap>

  /* and show capacitance */
  Display_Value(Caps[0].Value, Caps[0].Scale, 'F');
    1c04:	ef e4       	ldi	r30, 0x4F	; 79
    1c06:	f1 e0       	ldi	r31, 0x01	; 1
    1c08:	63 81       	ldd	r22, Z+3	; 0x03
    1c0a:	74 81       	ldd	r23, Z+4	; 0x04
    1c0c:	85 81       	ldd	r24, Z+5	; 0x05
    1c0e:	96 81       	ldd	r25, Z+6	; 0x06
    1c10:	26 e4       	ldi	r18, 0x46	; 70
    1c12:	42 81       	ldd	r20, Z+2	; 0x02
    1c14:	0e 94 fa 20 	call	0x41f4	; 0x41f4 <Display_Value>
    1c18:	08 95       	ret

00001c1a <Show_Diode>:
/*
 *  show diode
 */

void Show_Diode(void)
{
    1c1a:	a0 e0       	ldi	r26, 0x00	; 0
    1c1c:	b0 e0       	ldi	r27, 0x00	; 0
    1c1e:	e3 e1       	ldi	r30, 0x13	; 19
    1c20:	fe e0       	ldi	r31, 0x0E	; 14
    1c22:	0c 94 20 3f 	jmp	0x7e40	; 0x7e40 <__prologue_saves__+0x12>

  /*
   *  figure out which diodes to display
   */

  if (Check.Diodes == 1)           /* single diode */
    1c26:	80 91 0b 01 	lds	r24, 0x010B	; 0x80010b <__data_end+0x5>
    1c2a:	81 30       	cpi	r24, 0x01	; 1
    1c2c:	51 f4       	brne	.+20     	; 0x1c42 <Show_Diode+0x28>
  {
    C = D1->C;                     /* make cathode first pin */
    1c2e:	e0 90 7d 01 	lds	r14, 0x017D	; 0x80017d <Diodes+0x1>
  Diode_Type        *D2 = NULL;    /* pointer to diode #2 */
  uint8_t           CapFlag = 1;   /* flag for capacitance output */
  uint8_t           A = 5;         /* ID of common anode */
  uint8_t           C = 5;         /* ID of common cothode */
  uint8_t           R_Pin1 = 5;    /* B_E resistor's pin #1 */
  uint8_t           R_Pin2 = 5;    /* B_E resistor's pin #2 */
    1c32:	e5 e0       	ldi	r30, 0x05	; 5
    1c34:	de 2e       	mov	r13, r30
  Diode_Type        *D1;           /* pointer to diode #1 */
  Diode_Type        *D2 = NULL;    /* pointer to diode #2 */
  uint8_t           CapFlag = 1;   /* flag for capacitance output */
  uint8_t           A = 5;         /* ID of common anode */
  uint8_t           C = 5;         /* ID of common cothode */
  uint8_t           R_Pin1 = 5;    /* B_E resistor's pin #1 */
    1c36:	f5 e0       	ldi	r31, 0x05	; 5
    1c38:	ff 2e       	mov	r15, r31
void Show_Diode(void)
{
  Diode_Type        *D1;           /* pointer to diode #1 */
  Diode_Type        *D2 = NULL;    /* pointer to diode #2 */
  uint8_t           CapFlag = 1;   /* flag for capacitance output */
  uint8_t           A = 5;         /* ID of common anode */
    1c3a:	85 e0       	ldi	r24, 0x05	; 5
 */

void Show_Diode(void)
{
  Diode_Type        *D1;           /* pointer to diode #1 */
  Diode_Type        *D2 = NULL;    /* pointer to diode #2 */
    1c3c:	00 e0       	ldi	r16, 0x00	; 0
    1c3e:	10 e0       	ldi	r17, 0x00	; 0
    1c40:	31 c1       	rjmp	.+610    	; 0x1ea4 <Show_Diode+0x28a>

  if (Check.Diodes == 1)           /* single diode */
  {
    C = D1->C;                     /* make cathode first pin */
  }
  else if (Check.Diodes == 2)      /* two diodes */
    1c42:	82 30       	cpi	r24, 0x02	; 2
    1c44:	f1 f4       	brne	.+60     	; 0x1c82 <Show_Diode+0x68>
  {
    D2 = D1;
    D2++;                          /* pointer to second diode */

    if (D1->A == D2->A)            /* common anode */
    1c46:	f0 90 7c 01 	lds	r15, 0x017C	; 0x80017c <Diodes>
    1c4a:	d0 90 82 01 	lds	r13, 0x0182	; 0x800182 <Diodes+0x6>
    1c4e:	c0 90 7d 01 	lds	r12, 0x017D	; 0x80017d <Diodes+0x1>
    1c52:	e0 90 83 01 	lds	r14, 0x0183	; 0x800183 <Diodes+0x7>
    1c56:	fd 10       	cpse	r15, r13
    1c58:	06 c0       	rjmp	.+12     	; 0x1c66 <Show_Diode+0x4c>
    {
      A = D1->A;                   /* save common anode */

      /* possible PNP BJT with low value B-E resistor and flyback diode */
      R_Pin1 = D1->C;
      R_Pin2 = D2->C;
    1c5a:	de 2c       	mov	r13, r14
{
  Diode_Type        *D1;           /* pointer to diode #1 */
  Diode_Type        *D2 = NULL;    /* pointer to diode #2 */
  uint8_t           CapFlag = 1;   /* flag for capacitance output */
  uint8_t           A = 5;         /* ID of common anode */
  uint8_t           C = 5;         /* ID of common cothode */
    1c5c:	75 e0       	ldi	r23, 0x05	; 5
    1c5e:	e7 2e       	mov	r14, r23

void Show_Diode(void)
{
  Diode_Type        *D1;           /* pointer to diode #1 */
  Diode_Type        *D2 = NULL;    /* pointer to diode #2 */
  uint8_t           CapFlag = 1;   /* flag for capacitance output */
    1c60:	bb 24       	eor	r11, r11
    1c62:	b3 94       	inc	r11
    1c64:	5c c0       	rjmp	.+184    	; 0x1d1e <Show_Diode+0x104>

      /* possible PNP BJT with low value B-E resistor and flyback diode */
      R_Pin1 = D1->C;
      R_Pin2 = D2->C;
    }
    else if (D1->C == D2->C)       /* common cathode */
    1c66:	ce 14       	cp	r12, r14
    1c68:	09 f4       	brne	.+2      	; 0x1c6c <Show_Diode+0x52>
    1c6a:	19 c1       	rjmp	.+562    	; 0x1e9e <Show_Diode+0x284>

      /* possible NPN BJT with low value B-E resistor and flyback diode */
      R_Pin1 = D1->A;
      R_Pin2 = D2->A;
    }
    else if ((D1->A == D2->C) && (D1->C == D2->A))   /* anti-parallel */
    1c6c:	fe 10       	cpse	r15, r14
    1c6e:	11 c1       	rjmp	.+546    	; 0x1e92 <Show_Diode+0x278>
    1c70:	dc 10       	cpse	r13, r12
    1c72:	0f c1       	rjmp	.+542    	; 0x1e92 <Show_Diode+0x278>
    1c74:	ef 2c       	mov	r14, r15
  Diode_Type        *D2 = NULL;    /* pointer to diode #2 */
  uint8_t           CapFlag = 1;   /* flag for capacitance output */
  uint8_t           A = 5;         /* ID of common anode */
  uint8_t           C = 5;         /* ID of common cothode */
  uint8_t           R_Pin1 = 5;    /* B_E resistor's pin #1 */
  uint8_t           R_Pin2 = 5;    /* B_E resistor's pin #2 */
    1c76:	35 e0       	ldi	r19, 0x05	; 5
    1c78:	d3 2e       	mov	r13, r19
  Diode_Type        *D1;           /* pointer to diode #1 */
  Diode_Type        *D2 = NULL;    /* pointer to diode #2 */
  uint8_t           CapFlag = 1;   /* flag for capacitance output */
  uint8_t           A = 5;         /* ID of common anode */
  uint8_t           C = 5;         /* ID of common cothode */
  uint8_t           R_Pin1 = 5;    /* B_E resistor's pin #1 */
    1c7a:	45 e0       	ldi	r20, 0x05	; 5
    1c7c:	c4 2e       	mov	r12, r20
    }
    else if ((D1->A == D2->C) && (D1->C == D2->A))   /* anti-parallel */
    {
      A = D1->A;                   /* anode and cathode */
      C = A;                       /* are the same */
      CapFlag = 0;                 /* skip capacitance */
    1c7e:	b1 2c       	mov	r11, r1
    1c80:	4e c0       	rjmp	.+156    	; 0x1d1e <Show_Diode+0x104>
    }
  }
  else if (Check.Diodes == 3)      /* three diodes */
    1c82:	83 30       	cpi	r24, 0x03	; 3
    1c84:	09 f0       	breq	.+2      	; 0x1c88 <Show_Diode+0x6e>
    1c86:	3f c0       	rjmp	.+126    	; 0x1d06 <Show_Diode+0xec>
    1c88:	80 e0       	ldi	r24, 0x00	; 0
      {
        D2 = &Diodes[m];           /* get pointer of second diode */

        if (n != m)                /* don't check same diode :-) */
        {
          if (D1->C == D2->A)      /* got match */
    1c8a:	66 e0       	ldi	r22, 0x06	; 6
     *  - Only once the cathode of diode #1 matches the anode of diode #2.
     */

    for (n = 0; n <= 2; n++)       /* loop for first diode */
    {
      D1 = &Diodes[n];             /* get pointer of first diode */
    1c8c:	28 2f       	mov	r18, r24
    1c8e:	30 e0       	ldi	r19, 0x00	; 0

      for (m = 0; m <= 2; m++)     /* loop for second diode */
    1c90:	90 e0       	ldi	r25, 0x00	; 0
      {
        D2 = &Diodes[m];           /* get pointer of second diode */

        if (n != m)                /* don't check same diode :-) */
        {
          if (D1->C == D2->A)      /* got match */
    1c92:	62 9f       	mul	r22, r18
    1c94:	f0 01       	movw	r30, r0
    1c96:	63 9f       	mul	r22, r19
    1c98:	f0 0d       	add	r31, r0
    1c9a:	11 24       	eor	r1, r1
    1c9c:	e3 58       	subi	r30, 0x83	; 131
    1c9e:	fe 4f       	sbci	r31, 0xFE	; 254
    {
      D1 = &Diodes[n];             /* get pointer of first diode */

      for (m = 0; m <= 2; m++)     /* loop for second diode */
      {
        D2 = &Diodes[m];           /* get pointer of second diode */
    1ca0:	49 2f       	mov	r20, r25
    1ca2:	50 e0       	ldi	r21, 0x00	; 0

        if (n != m)                /* don't check same diode :-) */
    1ca4:	89 17       	cp	r24, r25
    1ca6:	69 f0       	breq	.+26     	; 0x1cc2 <Show_Diode+0xa8>
        {
          if (D1->C == D2->A)      /* got match */
    1ca8:	64 9f       	mul	r22, r20
    1caa:	d0 01       	movw	r26, r0
    1cac:	65 9f       	mul	r22, r21
    1cae:	b0 0d       	add	r27, r0
    1cb0:	11 24       	eor	r1, r1
    1cb2:	a4 58       	subi	r26, 0x84	; 132
    1cb4:	be 4f       	sbci	r27, 0xFE	; 254
    1cb6:	c0 81       	ld	r28, Z
    1cb8:	7c 91       	ld	r23, X
    1cba:	c7 13       	cpse	r28, r23
    1cbc:	02 c0       	rjmp	.+4      	; 0x1cc2 <Show_Diode+0xa8>
          {
            n = 5;                 /* end loops */
            m = 5;
    1cbe:	95 e0       	ldi	r25, 0x05	; 5

        if (n != m)                /* don't check same diode :-) */
        {
          if (D1->C == D2->A)      /* got match */
          {
            n = 5;                 /* end loops */
    1cc0:	85 e0       	ldi	r24, 0x05	; 5

    for (n = 0; n <= 2; n++)       /* loop for first diode */
    {
      D1 = &Diodes[n];             /* get pointer of first diode */

      for (m = 0; m <= 2; m++)     /* loop for second diode */
    1cc2:	9f 5f       	subi	r25, 0xFF	; 255
    1cc4:	93 30       	cpi	r25, 0x03	; 3
    1cc6:	60 f3       	brcs	.-40     	; 0x1ca0 <Show_Diode+0x86>
     *  Two diodes in series are detected as a virtual third diode:
     *  - Check for any possible way the 2 diodes could be connected in series.
     *  - Only once the cathode of diode #1 matches the anode of diode #2.
     */

    for (n = 0; n <= 2; n++)       /* loop for first diode */
    1cc8:	8f 5f       	subi	r24, 0xFF	; 255
    1cca:	83 30       	cpi	r24, 0x03	; 3
    1ccc:	f8 f2       	brcs	.-66     	; 0x1c8c <Show_Diode+0x72>
          }
        }
      }
    }

    if (n < 5) D2 = NULL;          /* no match found */
    1cce:	85 30       	cpi	r24, 0x05	; 5
    1cd0:	48 f0       	brcs	.+18     	; 0x1ce4 <Show_Diode+0xca>
    {
      D1 = &Diodes[n];             /* get pointer of first diode */

      for (m = 0; m <= 2; m++)     /* loop for second diode */
      {
        D2 = &Diodes[m];           /* get pointer of second diode */
    1cd2:	86 e0       	ldi	r24, 0x06	; 6
    1cd4:	84 9f       	mul	r24, r20
    1cd6:	80 01       	movw	r16, r0
    1cd8:	85 9f       	mul	r24, r21
    1cda:	10 0d       	add	r17, r0
    1cdc:	11 24       	eor	r1, r1
    1cde:	04 58       	subi	r16, 0x84	; 132
    1ce0:	1e 4f       	sbci	r17, 0xFE	; 254
    1ce2:	02 c0       	rjmp	.+4      	; 0x1ce8 <Show_Diode+0xce>
          }
        }
      }
    }

    if (n < 5) D2 = NULL;          /* no match found */
    1ce4:	00 e0       	ldi	r16, 0x00	; 0
    1ce6:	10 e0       	ldi	r17, 0x00	; 0
     *  - Only once the cathode of diode #1 matches the anode of diode #2.
     */

    for (n = 0; n <= 2; n++)       /* loop for first diode */
    {
      D1 = &Diodes[n];             /* get pointer of first diode */
    1ce8:	86 e0       	ldi	r24, 0x06	; 6
    1cea:	82 9f       	mul	r24, r18
    1cec:	e0 01       	movw	r28, r0
    1cee:	83 9f       	mul	r24, r19
    1cf0:	d0 0d       	add	r29, r0
    1cf2:	11 24       	eor	r1, r1
    1cf4:	c4 58       	subi	r28, 0x84	; 132
    1cf6:	de 4f       	sbci	r29, 0xFE	; 254
        }
      }
    }

    if (n < 5) D2 = NULL;          /* no match found */
    C = D1->C;                     /* cathode of first diode */
    1cf8:	e9 80       	ldd	r14, Y+1	; 0x01
  Diode_Type        *D2 = NULL;    /* pointer to diode #2 */
  uint8_t           CapFlag = 1;   /* flag for capacitance output */
  uint8_t           A = 5;         /* ID of common anode */
  uint8_t           C = 5;         /* ID of common cothode */
  uint8_t           R_Pin1 = 5;    /* B_E resistor's pin #1 */
  uint8_t           R_Pin2 = 5;    /* B_E resistor's pin #2 */
    1cfa:	55 e0       	ldi	r21, 0x05	; 5
    1cfc:	d5 2e       	mov	r13, r21
  Diode_Type        *D1;           /* pointer to diode #1 */
  Diode_Type        *D2 = NULL;    /* pointer to diode #2 */
  uint8_t           CapFlag = 1;   /* flag for capacitance output */
  uint8_t           A = 5;         /* ID of common anode */
  uint8_t           C = 5;         /* ID of common cothode */
  uint8_t           R_Pin1 = 5;    /* B_E resistor's pin #1 */
    1cfe:	65 e0       	ldi	r22, 0x05	; 5
    1d00:	f6 2e       	mov	r15, r22
      }
    }

    if (n < 5) D2 = NULL;          /* no match found */
    C = D1->C;                     /* cathode of first diode */
    A = 3;                         /* in series mode */
    1d02:	83 e0       	ldi	r24, 0x03	; 3
    1d04:	d1 c0       	rjmp	.+418    	; 0x1ea8 <Show_Diode+0x28e>
  }
  else                             /* too much diodes */
  {
    Display_EEString(Diode_AC_str);     /* display: -|>|- */
    1d06:	8e ef       	ldi	r24, 0xFE	; 254
    1d08:	90 e0       	ldi	r25, 0x00	; 0
    1d0a:	0e 94 43 20 	call	0x4086	; 0x4086 <Display_EEString>
    Display_Space();                    /* display space */
    1d0e:	0e 94 6e 20 	call	0x40dc	; 0x40dc <Display_Space>
    Display_Char(Check.Diodes + '0');   /* display number of diodes found */
    1d12:	80 91 0b 01 	lds	r24, 0x010B	; 0x80010b <__data_end+0x5>
    1d16:	80 5d       	subi	r24, 0xD0	; 208
    1d18:	0e 94 8a 3b 	call	0x7714	; 0x7714 <LCD_Char>
    #ifdef UI_SERIAL_COMMANDS
    /* set data for remote commands */
    Info.Quantity = Check.Diodes;       /* set quantity */
    #endif

    return;
    1d1c:	df c0       	rjmp	.+446    	; 0x1edc <Show_Diode+0x2c2>
  /*
   *  display pins 
   */

  /* first diode */
  if (A < 3)        /* common anode: show C first */
    1d1e:	82 e0       	ldi	r24, 0x02	; 2
    1d20:	8f 15       	cp	r24, r15
    1d22:	80 f0       	brcs	.+32     	; 0x1d44 <Show_Diode+0x12a>
  {
    Display_ProbeNumber(D1->C);         /* show C */
    1d24:	80 91 7d 01 	lds	r24, 0x017D	; 0x80017d <Diodes+0x1>
    1d28:	0e 94 52 20 	call	0x40a4	; 0x40a4 <Display_ProbeNumber>
    Display_EEString(Diode_CA_str);     /* show -|<- */
    1d2c:	8a ef       	ldi	r24, 0xFA	; 250
    1d2e:	90 e0       	ldi	r25, 0x00	; 0
    1d30:	0e 94 43 20 	call	0x4086	; 0x4086 <Display_EEString>
    Display_ProbeNumber(A);             /* show A */
    1d34:	8f 2d       	mov	r24, r15
    1d36:	0e 94 52 20 	call	0x40a4	; 0x40a4 <Display_ProbeNumber>
    1d3a:	cc e7       	ldi	r28, 0x7C	; 124
    1d3c:	d1 e0       	ldi	r29, 0x01	; 1
    1d3e:	02 e8       	ldi	r16, 0x82	; 130
    1d40:	11 e0       	ldi	r17, 0x01	; 1
    1d42:	15 c0       	rjmp	.+42     	; 0x1d6e <Show_Diode+0x154>
    1d44:	02 e8       	ldi	r16, 0x82	; 130
    1d46:	11 e0       	ldi	r17, 0x01	; 1
    1d48:	cc e7       	ldi	r28, 0x7C	; 124
    1d4a:	d1 e0       	ldi	r29, 0x01	; 1
  }
  else              /* common cathode: show A first */
  {
    Display_ProbeNumber(D1->A);         /* show A */
    1d4c:	88 81       	ld	r24, Y
    1d4e:	0e 94 52 20 	call	0x40a4	; 0x40a4 <Display_ProbeNumber>
    Display_EEString(Diode_AC_str);     /* show ->|- */
    1d52:	8e ef       	ldi	r24, 0xFE	; 254
    1d54:	90 e0       	ldi	r25, 0x00	; 0
    1d56:	0e 94 43 20 	call	0x4086	; 0x4086 <Display_EEString>
    Display_ProbeNumber(C);             /* show C */
    1d5a:	8e 2d       	mov	r24, r14
    1d5c:	0e 94 52 20 	call	0x40a4	; 0x40a4 <Display_ProbeNumber>
  }

  if (D2)           /* second diode */
    1d60:	01 15       	cp	r16, r1
    1d62:	11 05       	cpc	r17, r1
    1d64:	09 f4       	brne	.+2      	; 0x1d68 <Show_Diode+0x14e>
    1d66:	a5 c0       	rjmp	.+330    	; 0x1eb2 <Show_Diode+0x298>
  {
    if (A <= 3)          /* common anode or in-series */
    1d68:	e3 e0       	ldi	r30, 0x03	; 3
    1d6a:	ef 15       	cp	r30, r15
    1d6c:	48 f0       	brcs	.+18     	; 0x1d80 <Show_Diode+0x166>
    {
      Display_EEString(Diode_AC_str);   /* show ->|- */
    1d6e:	8e ef       	ldi	r24, 0xFE	; 254
    1d70:	90 e0       	ldi	r25, 0x00	; 0
    1d72:	0e 94 43 20 	call	0x4086	; 0x4086 <Display_EEString>
    else                 /* common cathode */
    {
      Display_EEString(Diode_CA_str);   /* show -|<- */
    }

    if (A == C)          /* anti parallel */
    1d76:	ef 14       	cp	r14, r15
    1d78:	39 f0       	breq	.+14     	; 0x1d88 <Show_Diode+0x16e>
    {
      n = D2->A;              /* get anode */
    }
    else if (A <= 3)     /* common anode or in-series */
    {
      n = D2->C;              /* get cathode */
    1d7a:	f8 01       	movw	r30, r16
    1d7c:	81 81       	ldd	r24, Z+1	; 0x01
    1d7e:	06 c0       	rjmp	.+12     	; 0x1d8c <Show_Diode+0x172>
    {
      Display_EEString(Diode_AC_str);   /* show ->|- */
    }
    else                 /* common cathode */
    {
      Display_EEString(Diode_CA_str);   /* show -|<- */
    1d80:	8a ef       	ldi	r24, 0xFA	; 250
    1d82:	90 e0       	ldi	r25, 0x00	; 0
    1d84:	0e 94 43 20 	call	0x4086	; 0x4086 <Display_EEString>
    {
      n = D2->C;              /* get cathode */
    }
    else                 /* common cathode */
    {
      n = D2->A;              /* get anode */
    1d88:	f8 01       	movw	r30, r16
    1d8a:	80 81       	ld	r24, Z
    }

    Display_ProbeNumber(n);             /* display pin */
    1d8c:	0e 94 52 20 	call	0x40a4	; 0x40a4 <Display_ProbeNumber>
    Info.Quantity = 2;       /* got two */
    #endif
  }

  /* check for B-E resistor of possible BJT */
  if (R_Pin1 < 5)                  /* possible BJT */
    1d90:	f4 e0       	ldi	r31, 0x04	; 4
    1d92:	fc 15       	cp	r31, r12
    1d94:	08 f4       	brcc	.+2      	; 0x1d98 <Show_Diode+0x17e>
    1d96:	58 c0       	rjmp	.+176    	; 0x1e48 <Show_Diode+0x22e>
  {
    /* B-E resistor below 25kOhms */
    if (CheckSingleResistor(R_Pin1, R_Pin2, 25) == 1)
    1d98:	49 e1       	ldi	r20, 0x19	; 25
    1d9a:	6d 2d       	mov	r22, r13
    1d9c:	8c 2d       	mov	r24, r12
    1d9e:	0e 94 6b 25 	call	0x4ad6	; 0x4ad6 <CheckSingleResistor>
    1da2:	81 30       	cpi	r24, 0x01	; 1
    1da4:	c1 f4       	brne	.+48     	; 0x1dd6 <Show_Diode+0x1bc>
    {
      /* show: PNP/NPN? */
      Display_Space();
    1da6:	0e 94 6e 20 	call	0x40dc	; 0x40dc <Display_Space>
      if (A < 3)                        /* PNP */
    1daa:	82 e0       	ldi	r24, 0x02	; 2
    1dac:	8f 15       	cp	r24, r15
    1dae:	18 f0       	brcs	.+6      	; 0x1db6 <Show_Diode+0x19c>
      {
        Display_EEString(PNP_str);
    1db0:	8e e8       	ldi	r24, 0x8E	; 142
    1db2:	91 e0       	ldi	r25, 0x01	; 1
    1db4:	02 c0       	rjmp	.+4      	; 0x1dba <Show_Diode+0x1a0>
        Info.Flags |= INFO_D_R_BE | INFO_D_BJT_PNP;    /* R_BE & PNP */
        #endif
      }
      else                              /* NPN */
      {
        Display_EEString(NPN_str);
    1db6:	82 e9       	ldi	r24, 0x92	; 146
    1db8:	91 e0       	ldi	r25, 0x01	; 1
    1dba:	0e 94 43 20 	call	0x4086	; 0x4086 <Display_EEString>
        #ifdef UI_SERIAL_COMMANDS
        /* set data for remote commands */
        Info.Flags |= INFO_D_R_BE | INFO_D_BJT_NPN;    /* R_BE & NPN */
        #endif
      }
      Display_Char('?');
    1dbe:	8f e3       	ldi	r24, 0x3F	; 63
    1dc0:	0e 94 8a 3b 	call	0x7714	; 0x7714 <LCD_Char>

      Display_NextLine();               /* move to line #2 */
    1dc4:	0e 94 0b 20 	call	0x4016	; 0x4016 <Display_NextLine>
      R_Pin1 += '1';                    /* convert pin ID to character */
      R_Pin2 += '1';
      Show_SingleResistor(R_Pin1, R_Pin2);   /* show resistor */
    1dc8:	61 e3       	ldi	r22, 0x31	; 49
    1dca:	6d 0d       	add	r22, r13
    1dcc:	81 e3       	ldi	r24, 0x31	; 49
    1dce:	8c 0d       	add	r24, r12
    1dd0:	0e 94 71 0c 	call	0x18e2	; 0x18e2 <Show_SingleResistor>
      CapFlag = 0;                      /* skip capacitance */
    1dd4:	b1 2c       	mov	r11, r1
   *  - reverse leakage current (for single diodes)
   *  - capacitance (not for anti-parallel diodes)
   */

  /* display Uf */
  Display_NL_EEString_Space(Vf_str);    /* display: Vf */
    1dd6:	89 e7       	ldi	r24, 0x79	; 121
    1dd8:	91 e0       	ldi	r25, 0x01	; 1
    1dda:	0e 94 82 20 	call	0x4104	; 0x4104 <Display_NL_EEString_Space>

  /* first diode */
  Display_Value(D1->V_f, -3, 'V');      /* in mV */
    1dde:	6a 81       	ldd	r22, Y+2	; 0x02
    1de0:	7b 81       	ldd	r23, Y+3	; 0x03
    1de2:	80 e0       	ldi	r24, 0x00	; 0
    1de4:	90 e0       	ldi	r25, 0x00	; 0
    1de6:	26 e5       	ldi	r18, 0x56	; 86
    1de8:	4d ef       	ldi	r20, 0xFD	; 253
    1dea:	0e 94 fa 20 	call	0x41f4	; 0x41f4 <Display_Value>

  Display_Space();
    1dee:	0e 94 6e 20 	call	0x40dc	; 0x40dc <Display_Space>

  /* display low current Uf and reverse leakage current for a single diode */
  if (D2 == NULL)                       /* single diode */
    1df2:	01 15       	cp	r16, r1
    1df4:	11 05       	cpc	r17, r1
    1df6:	b1 f5       	brne	.+108    	; 0x1e64 <Show_Diode+0x24a>
  {
    /* display low current Uf if it's quite low (Ge/Schottky diode) */
    if (D1->V_f2 < 250)            /* < 250mV */
    1df8:	8c 81       	ldd	r24, Y+4	; 0x04
    1dfa:	9d 81       	ldd	r25, Y+5	; 0x05
    1dfc:	8a 3f       	cpi	r24, 0xFA	; 250
    1dfe:	91 05       	cpc	r25, r1
    1e00:	70 f4       	brcc	.+28     	; 0x1e1e <Show_Diode+0x204>
    {
      Display_Char('(');
    1e02:	88 e2       	ldi	r24, 0x28	; 40
    1e04:	0e 94 8a 3b 	call	0x7714	; 0x7714 <LCD_Char>
      Display_Value(D1->V_f2, 0, 0);    /* no unit */
    1e08:	6c 81       	ldd	r22, Y+4	; 0x04
    1e0a:	7d 81       	ldd	r23, Y+5	; 0x05
    1e0c:	80 e0       	ldi	r24, 0x00	; 0
    1e0e:	90 e0       	ldi	r25, 0x00	; 0
    1e10:	20 e0       	ldi	r18, 0x00	; 0
    1e12:	40 e0       	ldi	r20, 0x00	; 0
    1e14:	0e 94 fa 20 	call	0x41f4	; 0x41f4 <Display_Value>
      Display_Char(')');
    1e18:	89 e2       	ldi	r24, 0x29	; 41
    1e1a:	0e 94 8a 3b 	call	0x7714	; 0x7714 <LCD_Char>
    }

    /* reverse leakage current */
    UpdateProbes(D1->C, D1->A, 0);      /* reverse diode */
    1e1e:	40 e0       	ldi	r20, 0x00	; 0
    1e20:	68 81       	ld	r22, Y
    1e22:	89 81       	ldd	r24, Y+1	; 0x01
    1e24:	0e 94 2a 1c 	call	0x3854	; 0x3854 <UpdateProbes>
    GetLeakageCurrent(1);               /* get current */
    1e28:	81 e0       	ldi	r24, 0x01	; 1
    1e2a:	0e 94 27 2a 	call	0x544e	; 0x544e <GetLeakageCurrent>
    Show_SemiCurrent(I_R_str);          /* display I_R */
    1e2e:	8f e6       	ldi	r24, 0x6F	; 111
    1e30:	91 e0       	ldi	r25, 0x01	; 1
    1e32:	0e 94 cc 0d 	call	0x1b98	; 0x1b98 <Show_SemiCurrent>
    /* show Uf of second diode */
    Display_Value(D2->V_f, -3, 'V');
  }

  /* display capacitance */
  if (CapFlag == 1)                     /* if feasable */ 
    1e36:	e1 e0       	ldi	r30, 0x01	; 1
    1e38:	be 12       	cpse	r11, r30
    1e3a:	50 c0       	rjmp	.+160    	; 0x1edc <Show_Diode+0x2c2>
  {
    Display_NL_EEString_Space(DiodeCap_str);   /* display: C */
    1e3c:	87 e7       	ldi	r24, 0x77	; 119
    1e3e:	91 e0       	ldi	r25, 0x01	; 1
    1e40:	0e 94 82 20 	call	0x4104	; 0x4104 <Display_NL_EEString_Space>

    #ifndef UI_SERIAL_COMMANDS
    /* first diode */
    Show_Diode_Cap(D1);                 /* measure & show capacitance */
    1e44:	ce 01       	movw	r24, r28
    1e46:	48 c0       	rjmp	.+144    	; 0x1ed8 <Show_Diode+0x2be>
   *  - reverse leakage current (for single diodes)
   *  - capacitance (not for anti-parallel diodes)
   */

  /* display Uf */
  Display_NL_EEString_Space(Vf_str);    /* display: Vf */
    1e48:	89 e7       	ldi	r24, 0x79	; 121
    1e4a:	91 e0       	ldi	r25, 0x01	; 1
    1e4c:	0e 94 82 20 	call	0x4104	; 0x4104 <Display_NL_EEString_Space>

  /* first diode */
  Display_Value(D1->V_f, -3, 'V');      /* in mV */
    1e50:	6a 81       	ldd	r22, Y+2	; 0x02
    1e52:	7b 81       	ldd	r23, Y+3	; 0x03
    1e54:	80 e0       	ldi	r24, 0x00	; 0
    1e56:	90 e0       	ldi	r25, 0x00	; 0
    1e58:	26 e5       	ldi	r18, 0x56	; 86
    1e5a:	4d ef       	ldi	r20, 0xFD	; 253
    1e5c:	0e 94 fa 20 	call	0x41f4	; 0x41f4 <Display_Value>

  Display_Space();
    1e60:	0e 94 6e 20 	call	0x40dc	; 0x40dc <Display_Space>
    #endif
  }
  else                                  /* two diodes */
  {
    /* show Uf of second diode */
    Display_Value(D2->V_f, -3, 'V');
    1e64:	f8 01       	movw	r30, r16
    1e66:	62 81       	ldd	r22, Z+2	; 0x02
    1e68:	73 81       	ldd	r23, Z+3	; 0x03
    1e6a:	80 e0       	ldi	r24, 0x00	; 0
    1e6c:	90 e0       	ldi	r25, 0x00	; 0
    1e6e:	26 e5       	ldi	r18, 0x56	; 86
    1e70:	4d ef       	ldi	r20, 0xFD	; 253
    1e72:	0e 94 fa 20 	call	0x41f4	; 0x41f4 <Display_Value>
  }

  /* display capacitance */
  if (CapFlag == 1)                     /* if feasable */ 
    1e76:	f1 e0       	ldi	r31, 0x01	; 1
    1e78:	bf 12       	cpse	r11, r31
    1e7a:	30 c0       	rjmp	.+96     	; 0x1edc <Show_Diode+0x2c2>
  {
    Display_NL_EEString_Space(DiodeCap_str);   /* display: C */
    1e7c:	87 e7       	ldi	r24, 0x77	; 119
    1e7e:	91 e0       	ldi	r25, 0x01	; 1
    1e80:	0e 94 82 20 	call	0x4104	; 0x4104 <Display_NL_EEString_Space>

    #ifndef UI_SERIAL_COMMANDS
    /* first diode */
    Show_Diode_Cap(D1);                 /* measure & show capacitance */
    1e84:	ce 01       	movw	r24, r28
    1e86:	0e 94 fc 0d 	call	0x1bf8	; 0x1bf8 <Show_Diode_Cap>

    if (D2)                             /* second diode */
    {
      Display_Space();
    1e8a:	0e 94 6e 20 	call	0x40dc	; 0x40dc <Display_Space>
      Show_Diode_Cap(D2);               /* measure & show capacitance */
    1e8e:	c8 01       	movw	r24, r16
    1e90:	23 c0       	rjmp	.+70     	; 0x1ed8 <Show_Diode+0x2be>
  Diode_Type        *D2 = NULL;    /* pointer to diode #2 */
  uint8_t           CapFlag = 1;   /* flag for capacitance output */
  uint8_t           A = 5;         /* ID of common anode */
  uint8_t           C = 5;         /* ID of common cothode */
  uint8_t           R_Pin1 = 5;    /* B_E resistor's pin #1 */
  uint8_t           R_Pin2 = 5;    /* B_E resistor's pin #2 */
    1e92:	85 e0       	ldi	r24, 0x05	; 5
    1e94:	d8 2e       	mov	r13, r24
  Diode_Type        *D1;           /* pointer to diode #1 */
  Diode_Type        *D2 = NULL;    /* pointer to diode #2 */
  uint8_t           CapFlag = 1;   /* flag for capacitance output */
  uint8_t           A = 5;         /* ID of common anode */
  uint8_t           C = 5;         /* ID of common cothode */
  uint8_t           R_Pin1 = 5;    /* B_E resistor's pin #1 */
    1e96:	95 e0       	ldi	r25, 0x05	; 5
    1e98:	f9 2e       	mov	r15, r25
{
  Diode_Type        *D1;           /* pointer to diode #1 */
  Diode_Type        *D2 = NULL;    /* pointer to diode #2 */
  uint8_t           CapFlag = 1;   /* flag for capacitance output */
  uint8_t           A = 5;         /* ID of common anode */
  uint8_t           C = 5;         /* ID of common cothode */
    1e9a:	25 e0       	ldi	r18, 0x05	; 5
    1e9c:	e2 2e       	mov	r14, r18
void Show_Diode(void)
{
  Diode_Type        *D1;           /* pointer to diode #1 */
  Diode_Type        *D2 = NULL;    /* pointer to diode #2 */
  uint8_t           CapFlag = 1;   /* flag for capacitance output */
  uint8_t           A = 5;         /* ID of common anode */
    1e9e:	85 e0       	ldi	r24, 0x05	; 5
    C = D1->C;                     /* make cathode first pin */
  }
  else if (Check.Diodes == 2)      /* two diodes */
  {
    D2 = D1;
    D2++;                          /* pointer to second diode */
    1ea0:	02 e8       	ldi	r16, 0x82	; 130
    1ea2:	11 e0       	ldi	r17, 0x01	; 1
  uint8_t           R_Pin1 = 5;    /* B_E resistor's pin #1 */
  uint8_t           R_Pin2 = 5;    /* B_E resistor's pin #2 */
  uint8_t           n;             /* counter */
  uint8_t           m;             /* counter */

  D1 = &Diodes[0];                 /* pointer to first diode */
    1ea4:	cc e7       	ldi	r28, 0x7C	; 124
    1ea6:	d1 e0       	ldi	r29, 0x01	; 1
    1ea8:	cf 2c       	mov	r12, r15
    1eaa:	f8 2e       	mov	r15, r24
    1eac:	bb 24       	eor	r11, r11
    1eae:	b3 94       	inc	r11
    1eb0:	4d cf       	rjmp	.-358    	; 0x1d4c <Show_Diode+0x132>
    Info.Quantity = 2;       /* got two */
    #endif
  }

  /* check for B-E resistor of possible BJT */
  if (R_Pin1 < 5)                  /* possible BJT */
    1eb2:	84 e0       	ldi	r24, 0x04	; 4
    1eb4:	8c 15       	cp	r24, r12
    1eb6:	08 f0       	brcs	.+2      	; 0x1eba <Show_Diode+0x2a0>
    1eb8:	6f cf       	rjmp	.-290    	; 0x1d98 <Show_Diode+0x17e>
   *  - reverse leakage current (for single diodes)
   *  - capacitance (not for anti-parallel diodes)
   */

  /* display Uf */
  Display_NL_EEString_Space(Vf_str);    /* display: Vf */
    1eba:	89 e7       	ldi	r24, 0x79	; 121
    1ebc:	91 e0       	ldi	r25, 0x01	; 1
    1ebe:	0e 94 82 20 	call	0x4104	; 0x4104 <Display_NL_EEString_Space>

  /* first diode */
  Display_Value(D1->V_f, -3, 'V');      /* in mV */
    1ec2:	6a 81       	ldd	r22, Y+2	; 0x02
    1ec4:	7b 81       	ldd	r23, Y+3	; 0x03
    1ec6:	80 e0       	ldi	r24, 0x00	; 0
    1ec8:	90 e0       	ldi	r25, 0x00	; 0
    1eca:	26 e5       	ldi	r18, 0x56	; 86
    1ecc:	4d ef       	ldi	r20, 0xFD	; 253
    1ece:	0e 94 fa 20 	call	0x41f4	; 0x41f4 <Display_Value>

  Display_Space();
    1ed2:	0e 94 6e 20 	call	0x40dc	; 0x40dc <Display_Space>
    1ed6:	90 cf       	rjmp	.-224    	; 0x1df8 <Show_Diode+0x1de>
    Show_Diode_Cap(D1);                 /* measure & show capacitance */

    if (D2)                             /* second diode */
    {
      Display_Space();
      Show_Diode_Cap(D2);               /* measure & show capacitance */
    1ed8:	0e 94 fc 0d 	call	0x1bf8	; 0x1bf8 <Show_Diode_Cap>
      MeasureCap(D2->C, D2->A, 1);      /* get capacitance (reversed direction) */
      Display_Value(Caps[1].Value, Caps[1].Scale, 'F');
    }
    #endif
  }
}
    1edc:	cd b7       	in	r28, 0x3d	; 61
    1ede:	de b7       	in	r29, 0x3e	; 62
    1ee0:	e9 e0       	ldi	r30, 0x09	; 9
    1ee2:	0c 94 3c 3f 	jmp	0x7e78	; 0x7e78 <__epilogue_restores__+0x12>

00001ee6 <Show_BJT>:
/*
 *  show BJT
 */

void Show_BJT(void)
{
    1ee6:	8f 92       	push	r8
    1ee8:	9f 92       	push	r9
    1eea:	af 92       	push	r10
    1eec:	bf 92       	push	r11
    1eee:	df 92       	push	r13
    1ef0:	ef 92       	push	r14
    1ef2:	ff 92       	push	r15
    1ef4:	0f 93       	push	r16
    1ef6:	1f 93       	push	r17
    1ef8:	cf 93       	push	r28
    1efa:	df 93       	push	r29

  /*
   *  preset stuff based on BJT type
   */

  if (Check.Type & TYPE_NPN)       /* NPN */
    1efc:	90 91 07 01 	lds	r25, 0x0107	; 0x800107 <__data_end+0x1>
    1f00:	80 91 af 01 	lds	r24, 0x01AF	; 0x8001af <Semi>
    1f04:	c0 91 b1 01 	lds	r28, 0x01B1	; 0x8001b1 <Semi+0x2>
    1f08:	d0 91 b0 01 	lds	r29, 0x01B0	; 0x8001b0 <Semi+0x1>
    1f0c:	90 ff       	sbrs	r25, 0
    1f0e:	0e c0       	rjmp	.+28     	; 0x1f2c <Show_BJT+0x46>
  {
    String = (unsigned char *)NPN_str;       /* "NPN" */

    /* direction of B-E diode: B -> E */
    BE_A = Semi.A;                 /* anode at base */
    1f10:	18 2f       	mov	r17, r24
    BE_C = Semi.C;                 /* cathode at emitter */

    /* direction of optional flyback diode */
    CE_A = Semi.C;                 /* anode at emitter */
    CE_C = Semi.B;                 /* cathode at collector */
    1f12:	0d 2f       	mov	r16, r29
    CE_Char = LCD_CHAR_DIODE_CA;   /* |<| */

    #ifdef SW_SCHOTTKY_BJT
    /* direction of B-C diode: B -> C */
    BC_A = Semi.A;                 /* anode at base */
    BC_C = Semi.B;                 /* cathode at collector */
    1f14:	dd 2e       	mov	r13, r29
    CE_C = Semi.B;                 /* cathode at collector */
    CE_Char = LCD_CHAR_DIODE_CA;   /* |<| */

    #ifdef SW_SCHOTTKY_BJT
    /* direction of B-C diode: B -> C */
    BC_A = Semi.A;                 /* anode at base */
    1f16:	e8 2e       	mov	r14, r24
    /* direction of B-E diode: B -> E */
    BE_A = Semi.A;                 /* anode at base */
    BE_C = Semi.C;                 /* cathode at emitter */

    /* direction of optional flyback diode */
    CE_A = Semi.C;                 /* anode at emitter */
    1f18:	dc 2f       	mov	r29, r28

    #ifdef SW_SCHOTTKY_BJT
    /* direction of B-C diode: B -> C */
    BC_A = Semi.A;                 /* anode at base */
    BC_C = Semi.B;                 /* cathode at collector */
    BC_Char = LCD_CHAR_DIODE_AC;   /* |>| */
    1f1a:	ff 24       	eor	r15, r15
    1f1c:	f3 94       	inc	r15
    BE_C = Semi.C;                 /* cathode at emitter */

    /* direction of optional flyback diode */
    CE_A = Semi.C;                 /* anode at emitter */
    CE_C = Semi.B;                 /* cathode at collector */
    CE_Char = LCD_CHAR_DIODE_CA;   /* |<| */
    1f1e:	22 e0       	ldi	r18, 0x02	; 2
    1f20:	92 2e       	mov	r9, r18
   *  preset stuff based on BJT type
   */

  if (Check.Type & TYPE_NPN)       /* NPN */
  {
    String = (unsigned char *)NPN_str;       /* "NPN" */
    1f22:	32 e9       	ldi	r19, 0x92	; 146
    1f24:	a3 2e       	mov	r10, r19
    1f26:	31 e0       	ldi	r19, 0x01	; 1
    1f28:	b3 2e       	mov	r11, r19
    1f2a:	0d c0       	rjmp	.+26     	; 0x1f46 <Show_BJT+0x60>
  else                             /* PNP */
  {
    String = (unsigned char *)PNP_str;       /* "PNP" */

    /* direction of B-E diode: E -> B */
    BE_A = Semi.C;                 /* anode at emitter */
    1f2c:	1c 2f       	mov	r17, r28
    BE_C = Semi.A;                 /* cathode at base */
    1f2e:	c8 2f       	mov	r28, r24
    CE_Char = LCD_CHAR_DIODE_AC;   /* |>| */

    #ifdef SW_SCHOTTKY_BJT
    /* direction of B-C diode: C -> B */
    BC_A = Semi.B;                 /* anode at collector */
    BC_C = Semi.A;                 /* cathode at base */
    1f30:	d8 2e       	mov	r13, r24
    CE_C = Semi.C;                 /* cathode at emitter */
    CE_Char = LCD_CHAR_DIODE_AC;   /* |>| */

    #ifdef SW_SCHOTTKY_BJT
    /* direction of B-C diode: C -> B */
    BC_A = Semi.B;                 /* anode at collector */
    1f32:	ed 2e       	mov	r14, r29
    BE_A = Semi.C;                 /* anode at emitter */
    BE_C = Semi.A;                 /* cathode at base */

    /* direction of optional flyback diode */
    CE_A = Semi.B;                 /* anode at collector */
    CE_C = Semi.C;                 /* cathode at emitter */
    1f34:	01 2f       	mov	r16, r17

    #ifdef SW_SCHOTTKY_BJT
    /* direction of B-C diode: C -> B */
    BC_A = Semi.B;                 /* anode at collector */
    BC_C = Semi.A;                 /* cathode at base */
    BC_Char = LCD_CHAR_DIODE_CA;   /* |<| */
    1f36:	82 e0       	ldi	r24, 0x02	; 2
    1f38:	f8 2e       	mov	r15, r24
    BE_C = Semi.A;                 /* cathode at base */

    /* direction of optional flyback diode */
    CE_A = Semi.B;                 /* anode at collector */
    CE_C = Semi.C;                 /* cathode at emitter */
    CE_Char = LCD_CHAR_DIODE_AC;   /* |>| */
    1f3a:	99 24       	eor	r9, r9
    1f3c:	93 94       	inc	r9
    BC_Char = LCD_CHAR_DIODE_AC;   /* |>| */
    #endif
  }
  else                             /* PNP */
  {
    String = (unsigned char *)PNP_str;       /* "PNP" */
    1f3e:	9e e8       	ldi	r25, 0x8E	; 142
    1f40:	a9 2e       	mov	r10, r25
    1f42:	91 e0       	ldi	r25, 0x01	; 1
    1f44:	b9 2e       	mov	r11, r25

  /*
   *  display type
   */

  Display_EEString_Space(BJT_str);      /* display: BJT */
    1f46:	81 e5       	ldi	r24, 0x51	; 81
    1f48:	92 e0       	ldi	r25, 0x02	; 2
    1f4a:	0e 94 72 20 	call	0x40e4	; 0x40e4 <Display_EEString_Space>
  Display_EEString(String);             /* display: NPN / PNP */
    1f4e:	c5 01       	movw	r24, r10
    1f50:	0e 94 43 20 	call	0x4086	; 0x4086 <Display_EEString>

  /* parasitic BJT (freewheeling diode on same substrate) */
  if (Check.Type & TYPE_PARASITIC)
    1f54:	80 91 07 01 	lds	r24, 0x0107	; 0x800107 <__data_end+0x1>
    1f58:	82 ff       	sbrs	r24, 2
    1f5a:	03 c0       	rjmp	.+6      	; 0x1f62 <Show_BJT+0x7c>
  {
    Display_Char('+');                  /* display: + */
    1f5c:	8b e2       	ldi	r24, 0x2B	; 43
    1f5e:	0e 94 8a 3b 	call	0x7714	; 0x7714 <LCD_Char>
  }

  Display_NextLine();                   /* next line (#2) */
    1f62:	0e 94 0b 20 	call	0x4016	; 0x4016 <Display_NextLine>

  /*
   *  display pinout
   */

  Show_SemiPinout('B', 'C', 'E');
    1f66:	45 e4       	ldi	r20, 0x45	; 69
    1f68:	63 e4       	ldi	r22, 0x43	; 67
    1f6a:	82 e4       	ldi	r24, 0x42	; 66
    1f6c:	0e 94 74 0b 	call	0x16e8	; 0x16e8 <Show_SemiPinout>

  /* optional freewheeling diode */
  Diode = SearchDiode(CE_A, CE_C);     /* search for matching diode */
    1f70:	60 2f       	mov	r22, r16
    1f72:	8d 2f       	mov	r24, r29
    1f74:	0e 94 8a 2a 	call	0x5514	; 0x5514 <SearchDiode>
    1f78:	5c 01       	movw	r10, r24
  if (Diode != NULL)                   /* got it */
    1f7a:	89 2b       	or	r24, r25
    1f7c:	59 f0       	breq	.+22     	; 0x1f94 <Show_BJT+0xae>
  {
    Display_Space();          /* display space */
    1f7e:	0e 94 6e 20 	call	0x40dc	; 0x40dc <Display_Space>
    Display_Char('C');        /* display: collector */
    1f82:	83 e4       	ldi	r24, 0x43	; 67
    1f84:	0e 94 8a 3b 	call	0x7714	; 0x7714 <LCD_Char>
    Display_Char(CE_Char);    /* display diode symbol */
    1f88:	89 2d       	mov	r24, r9
    1f8a:	0e 94 8a 3b 	call	0x7714	; 0x7714 <LCD_Char>
    Display_Char('E');        /* display: emitter */
    1f8e:	85 e4       	ldi	r24, 0x45	; 69
    1f90:	0e 94 8a 3b 	call	0x7714	; 0x7714 <LCD_Char>
  /*
   *  display B-E resistor if detected
   */

  /* check for B-E resistor below 25kOhms */
  if (CheckSingleResistor(BE_C, BE_A, 25) == 1)   /* found B-E resistor */
    1f94:	49 e1       	ldi	r20, 0x19	; 25
    1f96:	61 2f       	mov	r22, r17
    1f98:	8c 2f       	mov	r24, r28
    1f9a:	0e 94 6b 25 	call	0x4ad6	; 0x4ad6 <CheckSingleResistor>
    1f9e:	81 30       	cpi	r24, 0x01	; 1
    1fa0:	49 f4       	brne	.+18     	; 0x1fb4 <Show_BJT+0xce>
  {
    Display_NextLine();            /* next line (#3) */
    1fa2:	0e 94 0b 20 	call	0x4016	; 0x4016 <Display_NextLine>
    Show_SingleResistor('B', 'E');
    1fa6:	65 e4       	ldi	r22, 0x45	; 69
    1fa8:	82 e4       	ldi	r24, 0x42	; 66
    1faa:	0e 94 71 0c 	call	0x18e2	; 0x18e2 <Show_SingleResistor>
    /* B-E resistor renders hFE and V_BE measurements useless */

    #ifdef SW_SYMBOLS
    UI.SymbolLine = 4;             /* display fancy pinout in line #4 */
    1fae:	84 e0       	ldi	r24, 0x04	; 4
    1fb0:	80 93 2e 01 	sts	0x012E, r24	; 0x80012e <UI+0x8>
  /*
   *  display h_FE
   */

  /* display h_FE */
  Display_NL_EEString_Space(h_FE_str);       /* display: hFE */
    1fb4:	8a e8       	ldi	r24, 0x8A	; 138
    1fb6:	91 e0       	ldi	r25, 0x01	; 1
    1fb8:	0e 94 82 20 	call	0x4104	; 0x4104 <Display_NL_EEString_Space>
  Display_Value(Semi.F_1, 0, 0);             /* display h_FE */
    1fbc:	60 91 b9 01 	lds	r22, 0x01B9	; 0x8001b9 <Semi+0xa>
    1fc0:	70 91 ba 01 	lds	r23, 0x01BA	; 0x8001ba <Semi+0xb>
    1fc4:	80 91 bb 01 	lds	r24, 0x01BB	; 0x8001bb <Semi+0xc>
    1fc8:	90 91 bc 01 	lds	r25, 0x01BC	; 0x8001bc <Semi+0xd>
    1fcc:	20 e0       	ldi	r18, 0x00	; 0
    1fce:	40 e0       	ldi	r20, 0x00	; 0
    1fd0:	0e 94 fa 20 	call	0x41f4	; 0x41f4 <Display_Value>

  /* display hFE test circuit type */
  Display_Space();
    1fd4:	0e 94 6e 20 	call	0x40dc	; 0x40dc <Display_Space>
  if (Semi.Flags & HFE_COMMON_EMITTER)         /* common emitter */
    1fd8:	80 91 b2 01 	lds	r24, 0x01B2	; 0x8001b2 <Semi+0x3>
    1fdc:	80 ff       	sbrs	r24, 0
    1fde:	02 c0       	rjmp	.+4      	; 0x1fe4 <Show_BJT+0xfe>
  {
    /* common emitter circuit */
    Display_Char('e');                         /* display: e */
    1fe0:	85 e6       	ldi	r24, 0x65	; 101
    1fe2:	03 c0       	rjmp	.+6      	; 0x1fea <Show_BJT+0x104>
  }
  else if (Semi.Flags & HFE_COMMON_COLLECTOR)  /* common collector */
    1fe4:	81 ff       	sbrs	r24, 1
    1fe6:	03 c0       	rjmp	.+6      	; 0x1fee <Show_BJT+0x108>
  {
    /* common collector circuit */
    Display_Char('c');                         /* display: c */
    1fe8:	83 e6       	ldi	r24, 0x63	; 99
    1fea:	0e 94 8a 3b 	call	0x7714	; 0x7714 <LCD_Char>
  }

  #ifdef SW_HFE_CURRENT
  /* display test current for hFE measurement */
  Display_NL_EEString(I_str);                  /* display: I_ */
    1fee:	8b e0       	ldi	r24, 0x0B	; 11
    1ff0:	91 e0       	ldi	r25, 0x01	; 1
    1ff2:	0e 94 77 20 	call	0x40ee	; 0x40ee <Display_NL_EEString>
  if (Semi.Flags & HFE_COMMON_EMITTER)         /* common emitter */
    1ff6:	80 91 b2 01 	lds	r24, 0x01B2	; 0x8001b2 <Semi+0x3>
    1ffa:	80 ff       	sbrs	r24, 0
    1ffc:	02 c0       	rjmp	.+4      	; 0x2002 <Show_BJT+0x11c>
  {
    /* I_C */
    Display_Char('C');                         /* display: C */
    1ffe:	83 e4       	ldi	r24, 0x43	; 67
    2000:	03 c0       	rjmp	.+6      	; 0x2008 <Show_BJT+0x122>
  }
  else if (Semi.Flags & HFE_COMMON_COLLECTOR)  /* common collector */
    2002:	81 ff       	sbrs	r24, 1
    2004:	03 c0       	rjmp	.+6      	; 0x200c <Show_BJT+0x126>
  {
    /* I_E */
    Display_Char('E');                         /* display: E */
    2006:	85 e4       	ldi	r24, 0x45	; 69
    2008:	0e 94 8a 3b 	call	0x7714	; 0x7714 <LCD_Char>
  }
  Display_Space();
    200c:	0e 94 6e 20 	call	0x40dc	; 0x40dc <Display_Space>
  Display_SignedValue(Semi.U_3, -6, 'A');      /* display I_C/I_E */
    2010:	60 91 b7 01 	lds	r22, 0x01B7	; 0x8001b7 <Semi+0x8>
    2014:	70 91 b8 01 	lds	r23, 0x01B8	; 0x8001b8 <Semi+0x9>
    2018:	07 2e       	mov	r0, r23
    201a:	00 0c       	add	r0, r0
    201c:	88 0b       	sbc	r24, r24
    201e:	99 0b       	sbc	r25, r25
    2020:	21 e4       	ldi	r18, 0x41	; 65
    2022:	4a ef       	ldi	r20, 0xFA	; 250
    2024:	0e 94 82 21 	call	0x4304	; 0x4304 <Display_SignedValue>
  #endif

  #ifdef SW_REVERSE_HFE
  /* display reverse hFE */
  if (Diode == NULL)               /* no freewheeling diode */
    2028:	ab 28       	or	r10, r11
    202a:	e1 f4       	brne	.+56     	; 0x2064 <Show_BJT+0x17e>
  {
    if (Semi.F_2 > 0)              /* valid value */
    202c:	80 91 bd 01 	lds	r24, 0x01BD	; 0x8001bd <Semi+0xe>
    2030:	90 91 be 01 	lds	r25, 0x01BE	; 0x8001be <Semi+0xf>
    2034:	a0 91 bf 01 	lds	r26, 0x01BF	; 0x8001bf <Semi+0x10>
    2038:	b0 91 c0 01 	lds	r27, 0x01C0	; 0x8001c0 <Semi+0x11>
    203c:	89 2b       	or	r24, r25
    203e:	8a 2b       	or	r24, r26
    2040:	8b 2b       	or	r24, r27
    2042:	81 f0       	breq	.+32     	; 0x2064 <Show_BJT+0x17e>
    {
      Display_NL_EEString_Space(h_FE_r_str);      /* display: hFEr */
    2044:	86 e0       	ldi	r24, 0x06	; 6
    2046:	91 e0       	ldi	r25, 0x01	; 1
    2048:	0e 94 82 20 	call	0x4104	; 0x4104 <Display_NL_EEString_Space>
      Display_Value(Semi.F_2, 0, 0);              /* display reverse h_FE */
    204c:	60 91 bd 01 	lds	r22, 0x01BD	; 0x8001bd <Semi+0xe>
    2050:	70 91 be 01 	lds	r23, 0x01BE	; 0x8001be <Semi+0xf>
    2054:	80 91 bf 01 	lds	r24, 0x01BF	; 0x8001bf <Semi+0x10>
    2058:	90 91 c0 01 	lds	r25, 0x01C0	; 0x8001c0 <Semi+0x11>
    205c:	20 e0       	ldi	r18, 0x00	; 0
    205e:	40 e0       	ldi	r20, 0x00	; 0
    2060:	0e 94 fa 20 	call	0x41f4	; 0x41f4 <Display_Value>
  /*
   *  display V_BE
   *  (taken from diode's forward voltage)
   */

  Diode = SearchDiode(BE_A, BE_C);      /* search for matching B-E diode */
    2064:	6c 2f       	mov	r22, r28
    2066:	81 2f       	mov	r24, r17
    2068:	0e 94 8a 2a 	call	0x5514	; 0x5514 <SearchDiode>
    206c:	8c 01       	movw	r16, r24
  if (Diode != NULL)                    /* found diode */
    206e:	89 2b       	or	r24, r25
    2070:	a1 f1       	breq	.+104    	; 0x20da <Show_BJT+0x1f4>
  {
    Display_NL_EEString_Space(V_BE_str);     /* display: Vbe */
    2072:	86 e8       	ldi	r24, 0x86	; 134
    2074:	91 e0       	ldi	r25, 0x01	; 1
    2076:	0e 94 82 20 	call	0x4104	; 0x4104 <Display_NL_EEString_Space>
     *  and high test current is 7mA. That's a logarithmic scale of
     *  3 decades.
     */

    /* calculate slope for one decade */
    Slope = Diode->V_f - Diode->V_f2;
    207a:	f8 01       	movw	r30, r16
    207c:	c2 81       	ldd	r28, Z+2	; 0x02
    207e:	d3 81       	ldd	r29, Z+3	; 0x03
    2080:	24 81       	ldd	r18, Z+4	; 0x04
    2082:	35 81       	ldd	r19, Z+5	; 0x05
    Slope /= 3;

    /* select V_BE based on hFE */
    if (Semi.F_1 < 100)                 /* low h_FE */
    2084:	80 90 b9 01 	lds	r8, 0x01B9	; 0x8001b9 <Semi+0xa>
    2088:	90 90 ba 01 	lds	r9, 0x01BA	; 0x8001ba <Semi+0xb>
    208c:	a0 90 bb 01 	lds	r10, 0x01BB	; 0x8001bb <Semi+0xc>
    2090:	b0 90 bc 01 	lds	r11, 0x01BC	; 0x8001bc <Semi+0xd>
    2094:	f4 e6       	ldi	r31, 0x64	; 100
    2096:	8f 16       	cp	r8, r31
    2098:	91 04       	cpc	r9, r1
    209a:	a1 04       	cpc	r10, r1
    209c:	b1 04       	cpc	r11, r1
    209e:	98 f0       	brcs	.+38     	; 0x20c6 <Show_BJT+0x1e0>
     *  and high test current is 7mA. That's a logarithmic scale of
     *  3 decades.
     */

    /* calculate slope for one decade */
    Slope = Diode->V_f - Diode->V_f2;
    20a0:	ce 01       	movw	r24, r28
    20a2:	82 1b       	sub	r24, r18
    20a4:	93 0b       	sbc	r25, r19
    Slope /= 3;
    20a6:	63 e0       	ldi	r22, 0x03	; 3
    20a8:	70 e0       	ldi	r23, 0x00	; 0
    20aa:	0e 94 9b 3e 	call	0x7d36	; 0x7d36 <__divmodhi4>
       *  measurement (7mA). 
       */

      V_BE = Diode->V_f;
    }
    else if (Semi.F_1 < 250)            /* mid-range h_FE */
    20ae:	8a ef       	ldi	r24, 0xFA	; 250
    20b0:	88 16       	cp	r8, r24
    20b2:	91 04       	cpc	r9, r1
    20b4:	a1 04       	cpc	r10, r1
    20b6:	b1 04       	cpc	r11, r1
    20b8:	18 f4       	brcc	.+6      	; 0x20c0 <Show_BJT+0x1da>
       *  BJTs with a mid-range hFE are signal transistors and need
       *  a small I_b to drive the load. So we interpolate Vf for
       *  a virtual test current of about 1mA.
       */

      V_BE = Diode->V_f - Slope;
    20ba:	c6 1b       	sub	r28, r22
    20bc:	d7 0b       	sbc	r29, r23
    20be:	03 c0       	rjmp	.+6      	; 0x20c6 <Show_BJT+0x1e0>
       *  BJTs with a high hFE are small signal transistors and need
       *  only a very small I_b to drive the load. So we interpolate Vf
       *  for a virtual test current of about 0.1mA.
       */

      V_BE = Diode->V_f2 + Slope;
    20c0:	eb 01       	movw	r28, r22
    20c2:	c2 0f       	add	r28, r18
    20c4:	d3 1f       	adc	r29, r19
    }

    Display_Value(V_BE, -3, 'V');       /* in mV */
    20c6:	ce 01       	movw	r24, r28
    20c8:	a0 e0       	ldi	r26, 0x00	; 0
    20ca:	b0 e0       	ldi	r27, 0x00	; 0
    20cc:	26 e5       	ldi	r18, 0x56	; 86
    20ce:	4d ef       	ldi	r20, 0xFD	; 253
    20d0:	bc 01       	movw	r22, r24
    20d2:	cd 01       	movw	r24, r26
    20d4:	0e 94 fa 20 	call	0x41f4	; 0x41f4 <Display_Value>
    20d8:	02 c0       	rjmp	.+4      	; 0x20de <Show_BJT+0x1f8>
  #ifdef SW_SCHOTTKY_BJT
  uint8_t           BC_A;          /* clamping diode: pin acting as anode */
  uint8_t           BC_C;          /* clamping diode: pin acting as cathode */
  uint8_t           BC_Char;       /* character */
  #endif
  uint16_t          V_BE = 0;      /* V_BE */
    20da:	c0 e0       	ldi	r28, 0x00	; 0
    20dc:	d0 e0       	ldi	r29, 0x00	; 0
    Info.Val1 = V_BE;                   /* copy V_BE */
    #endif
  }

  /* I_CEO: collector emitter open current (leakage) */
  Show_SemiCurrent(I_CEO_str);          /* display I_CEO */
    20de:	8c e7       	ldi	r24, 0x7C	; 124
    20e0:	91 e0       	ldi	r25, 0x01	; 1
    20e2:	0e 94 cc 0d 	call	0x1b98	; 0x1b98 <Show_SemiCurrent>
   *  - V_BC of a Germanium BJT is as low as V_f of a Schottky diode.
   *    So we check only Silicon BJTs.
   */

  /* check for Si BJT */
  if (V_BE > 500)                       /* V_BE > 500mV */
    20e6:	c5 3f       	cpi	r28, 0xF5	; 245
    20e8:	d1 40       	sbci	r29, 0x01	; 1
    20ea:	08 f1       	brcs	.+66     	; 0x212e <Show_BJT+0x248>
  {
    Diode = SearchDiode(BC_A, BC_C);    /* search for matching diode */
    20ec:	6d 2d       	mov	r22, r13
    20ee:	8e 2d       	mov	r24, r14
    20f0:	0e 94 8a 2a 	call	0x5514	; 0x5514 <SearchDiode>
    20f4:	ec 01       	movw	r28, r24
    if (Diode != NULL)                  /* found diode */
    20f6:	89 2b       	or	r24, r25
    20f8:	d1 f0       	breq	.+52     	; 0x212e <Show_BJT+0x248>
    {
      /* check for Schottky diode */
      if (Diode->V_f < 450)             /* V_f < 450mV */
    20fa:	8a 81       	ldd	r24, Y+2	; 0x02
    20fc:	9b 81       	ldd	r25, Y+3	; 0x03
    20fe:	82 3c       	cpi	r24, 0xC2	; 194
    2100:	91 40       	sbci	r25, 0x01	; 1
    2102:	a8 f4       	brcc	.+42     	; 0x212e <Show_BJT+0x248>
      {
        Display_NextLine();             /* next line */
    2104:	0e 94 0b 20 	call	0x4016	; 0x4016 <Display_NextLine>

        /* display diode */
        Display_Char('B');              /* display: base */
    2108:	82 e4       	ldi	r24, 0x42	; 66
    210a:	0e 94 8a 3b 	call	0x7714	; 0x7714 <LCD_Char>
        Display_Char(BC_Char);          /* display diode symbol */
    210e:	8f 2d       	mov	r24, r15
    2110:	0e 94 8a 3b 	call	0x7714	; 0x7714 <LCD_Char>
        Display_Char('C');              /* display: collector */
    2114:	83 e4       	ldi	r24, 0x43	; 67
    2116:	0e 94 8a 3b 	call	0x7714	; 0x7714 <LCD_Char>

        /* display diode's V_f */
        Display_Space();                     /* display space */
    211a:	0e 94 6e 20 	call	0x40dc	; 0x40dc <Display_Space>
        Display_Value(Diode->V_f, -3, 'V');  /* display V_f */
    211e:	6a 81       	ldd	r22, Y+2	; 0x02
    2120:	7b 81       	ldd	r23, Y+3	; 0x03
    2122:	80 e0       	ldi	r24, 0x00	; 0
    2124:	90 e0       	ldi	r25, 0x00	; 0
    2126:	26 e5       	ldi	r18, 0x56	; 86
    2128:	4d ef       	ldi	r20, 0xFD	; 253
    212a:	0e 94 fa 20 	call	0x41f4	; 0x41f4 <Display_Value>
        #endif
      }
    }
  }
  #endif
}
    212e:	df 91       	pop	r29
    2130:	cf 91       	pop	r28
    2132:	1f 91       	pop	r17
    2134:	0f 91       	pop	r16
    2136:	ff 90       	pop	r15
    2138:	ef 90       	pop	r14
    213a:	df 90       	pop	r13
    213c:	bf 90       	pop	r11
    213e:	af 90       	pop	r10
    2140:	9f 90       	pop	r9
    2142:	8f 90       	pop	r8
    2144:	08 95       	ret

00002146 <Show_FET_Extras>:
 *  - V_th
 *  - Cgs
 */

void Show_FET_Extras(void)
{
    2146:	ff 92       	push	r15
    2148:	0f 93       	push	r16
    214a:	1f 93       	push	r17
    214c:	cf 93       	push	r28
    214e:	df 93       	push	r29

  /*
   *  show instrinsic/freewheeling diode
   */

  if (Check.Type & TYPE_N_CHANNEL)      /* n-channel/NPN */
    2150:	80 91 07 01 	lds	r24, 0x0107	; 0x800107 <__data_end+0x1>
    2154:	90 91 b1 01 	lds	r25, 0x01B1	; 0x8001b1 <Semi+0x2>
    2158:	60 91 b0 01 	lds	r22, 0x01B0	; 0x8001b0 <Semi+0x1>
    215c:	80 ff       	sbrs	r24, 0
    215e:	03 c0       	rjmp	.+6      	; 0x2166 <Show_FET_Extras+0x20>
  {
    Anode = Semi.C;                /* source/emitter */
    2160:	89 2f       	mov	r24, r25
    Cathode = Semi.B;              /* drain/collector */
    Symbol = LCD_CHAR_DIODE_CA;    /* |<| */
    2162:	02 e0       	ldi	r16, 0x02	; 2
    2164:	03 c0       	rjmp	.+6      	; 0x216c <Show_FET_Extras+0x26>
  }
  else                                  /* p-channel/PNP */
  {
    Anode = Semi.B;                /* drain/collector */
    2166:	86 2f       	mov	r24, r22
    Cathode = Semi.C;              /* source/emitter */
    2168:	69 2f       	mov	r22, r25
    Symbol = LCD_CHAR_DIODE_AC;    /* |>| */
    216a:	01 e0       	ldi	r16, 0x01	; 1
  }

  if (Check.Found == COMP_FET)     /* FET */
    216c:	90 91 06 01 	lds	r25, 0x0106	; 0x800106 <__data_end>
    2170:	9f 31       	cpi	r25, 0x1F	; 31
    2172:	21 f0       	breq	.+8      	; 0x217c <Show_FET_Extras+0x36>
    Char_2 = 'S';
  }
  else                             /* IGBT */
  {
    Char_1 = 'C';
    Char_2 = 'E';
    2174:	15 e4       	ldi	r17, 0x45	; 69
    Char_1 = 'D';
    Char_2 = 'S';
  }
  else                             /* IGBT */
  {
    Char_1 = 'C';
    2176:	23 e4       	ldi	r18, 0x43	; 67
    2178:	f2 2e       	mov	r15, r18
    217a:	03 c0       	rjmp	.+6      	; 0x2182 <Show_FET_Extras+0x3c>
  }

  if (Check.Found == COMP_FET)     /* FET */
  {
    Char_1 = 'D';
    Char_2 = 'S';
    217c:	13 e5       	ldi	r17, 0x53	; 83
    Symbol = LCD_CHAR_DIODE_AC;    /* |>| */
  }

  if (Check.Found == COMP_FET)     /* FET */
  {
    Char_1 = 'D';
    217e:	94 e4       	ldi	r25, 0x44	; 68
    2180:	f9 2e       	mov	r15, r25
    Char_1 = 'C';
    Char_2 = 'E';
  }

  /* search for matching diode */
  Diode = SearchDiode(Anode, Cathode);
    2182:	0e 94 8a 2a 	call	0x5514	; 0x5514 <SearchDiode>
    2186:	ec 01       	movw	r28, r24
  if (Diode != NULL)          /* got it */
    2188:	89 2b       	or	r24, r25
    218a:	59 f0       	breq	.+22     	; 0x21a2 <Show_FET_Extras+0x5c>
  {
    /* show diode */
    Display_Space();          /* space */
    218c:	0e 94 6e 20 	call	0x40dc	; 0x40dc <Display_Space>
    Display_Char(Char_1);     /* left pin name */
    2190:	8f 2d       	mov	r24, r15
    2192:	0e 94 8a 3b 	call	0x7714	; 0x7714 <LCD_Char>
    Display_Char(Symbol);     /* diode symbol */
    2196:	80 2f       	mov	r24, r16
    2198:	0e 94 8a 3b 	call	0x7714	; 0x7714 <LCD_Char>
    Display_Char(Char_2);     /* right pin name */
    219c:	81 2f       	mov	r24, r17
    219e:	0e 94 8a 3b 	call	0x7714	; 0x7714 <LCD_Char>
    Info.Comp1 = Diode;            /* link diode */
    #endif
  }

  /* skip remaining stuff for depletion-mode FETs/IGBTs */
  if (Check.Type & TYPE_DEPLETION) return;
    21a2:	80 91 07 01 	lds	r24, 0x0107	; 0x800107 <__data_end+0x1>
    21a6:	83 fd       	sbrc	r24, 3
    21a8:	49 c0       	rjmp	.+146    	; 0x223c <Show_FET_Extras+0xf6>

  /* gate threshold voltage V_th */
  if (Semi.U_2 != 0)
    21aa:	80 91 b5 01 	lds	r24, 0x01B5	; 0x8001b5 <Semi+0x6>
    21ae:	90 91 b6 01 	lds	r25, 0x01B6	; 0x8001b6 <Semi+0x7>
    21b2:	89 2b       	or	r24, r25
    21b4:	81 f0       	breq	.+32     	; 0x21d6 <Show_FET_Extras+0x90>
  {
    Display_NL_EEString_Space(Vth_str);      /* display: Vth */
    21b6:	83 e7       	ldi	r24, 0x73	; 115
    21b8:	91 e0       	ldi	r25, 0x01	; 1
    21ba:	0e 94 82 20 	call	0x4104	; 0x4104 <Display_NL_EEString_Space>
    Display_SignedValue(Semi.U_2, -3, 'V');  /* display V_th in mV */
    21be:	60 91 b5 01 	lds	r22, 0x01B5	; 0x8001b5 <Semi+0x6>
    21c2:	70 91 b6 01 	lds	r23, 0x01B6	; 0x8001b6 <Semi+0x7>
    21c6:	07 2e       	mov	r0, r23
    21c8:	00 0c       	add	r0, r0
    21ca:	88 0b       	sbc	r24, r24
    21cc:	99 0b       	sbc	r25, r25
    21ce:	26 e5       	ldi	r18, 0x56	; 86
    21d0:	4d ef       	ldi	r20, 0xFD	; 253
    21d2:	0e 94 82 21 	call	0x4304	; 0x4304 <Display_SignedValue>
    #endif
  }

  /* display gate-source capacitance C_GS */
  /* todo: display "Cge" for IGBT? */
  Display_NL_EEString_Space(Cgs_str);             /* display: Cgs */
    21d6:	86 e9       	ldi	r24, 0x96	; 150
    21d8:	91 e0       	ldi	r25, 0x01	; 1
    21da:	0e 94 82 20 	call	0x4104	; 0x4104 <Display_NL_EEString_Space>
  Display_Value(Semi.C_value, Semi.C_scale, 'F'); /* display value and unit */
    21de:	60 91 c6 01 	lds	r22, 0x01C6	; 0x8001c6 <Semi+0x17>
    21e2:	70 91 c7 01 	lds	r23, 0x01C7	; 0x8001c7 <Semi+0x18>
    21e6:	80 91 c8 01 	lds	r24, 0x01C8	; 0x8001c8 <Semi+0x19>
    21ea:	90 91 c9 01 	lds	r25, 0x01C9	; 0x8001c9 <Semi+0x1a>
    21ee:	26 e4       	ldi	r18, 0x46	; 70
    21f0:	40 91 ca 01 	lds	r20, 0x01CA	; 0x8001ca <Semi+0x1b>
    21f4:	0e 94 fa 20 	call	0x41f4	; 0x41f4 <Display_Value>
  /* set data for remote commands */
  Info.Flags |= INFO_FET_C_GS;               /* measured C_GS */
  #endif

  /* display R_DS_on, if available */
  if (Semi.U_1 > 0)
    21f8:	80 91 b3 01 	lds	r24, 0x01B3	; 0x8001b3 <Semi+0x4>
    21fc:	90 91 b4 01 	lds	r25, 0x01B4	; 0x8001b4 <Semi+0x5>
    2200:	89 2b       	or	r24, r25
    2202:	71 f0       	breq	.+28     	; 0x2220 <Show_FET_Extras+0xda>
  {
    Display_NL_EEString_Space(R_DS_str);          /* display: Rds */
    2204:	81 e2       	ldi	r24, 0x21	; 33
    2206:	91 e0       	ldi	r25, 0x01	; 1
    2208:	0e 94 82 20 	call	0x4104	; 0x4104 <Display_NL_EEString_Space>
    Display_Value(Semi.U_1, -2, LCD_CHAR_OMEGA);  /* display value */
    220c:	60 91 b3 01 	lds	r22, 0x01B3	; 0x8001b3 <Semi+0x4>
    2210:	70 91 b4 01 	lds	r23, 0x01B4	; 0x8001b4 <Semi+0x5>
    2214:	80 e0       	ldi	r24, 0x00	; 0
    2216:	90 e0       	ldi	r25, 0x00	; 0
    2218:	24 e0       	ldi	r18, 0x04	; 4
    221a:	4e ef       	ldi	r20, 0xFE	; 254
    221c:	0e 94 fa 20 	call	0x41f4	; 0x41f4 <Display_Value>
    Info.Flags |= INFO_FET_R_DS;             /* measured R_DS */
    #endif
  }

  /* display V_f of diode, if available */
  if (Diode != NULL)
    2220:	20 97       	sbiw	r28, 0x00	; 0
    2222:	61 f0       	breq	.+24     	; 0x223c <Show_FET_Extras+0xf6>
  {
    Display_NL_EEString_Space(Vf_str);       /* display: Vf */
    2224:	89 e7       	ldi	r24, 0x79	; 121
    2226:	91 e0       	ldi	r25, 0x01	; 1
    2228:	0e 94 82 20 	call	0x4104	; 0x4104 <Display_NL_EEString_Space>
    Display_Value(Diode->V_f, -3, 'V');      /* display value */
    222c:	6a 81       	ldd	r22, Y+2	; 0x02
    222e:	7b 81       	ldd	r23, Y+3	; 0x03
    2230:	80 e0       	ldi	r24, 0x00	; 0
    2232:	90 e0       	ldi	r25, 0x00	; 0
    2234:	26 e5       	ldi	r18, 0x56	; 86
    2236:	4d ef       	ldi	r20, 0xFD	; 253
    2238:	0e 94 fa 20 	call	0x41f4	; 0x41f4 <Display_Value>
  }
}
    223c:	cd b7       	in	r28, 0x3d	; 61
    223e:	de b7       	in	r29, 0x3e	; 62
    2240:	e5 e0       	ldi	r30, 0x05	; 5
    2242:	0c 94 40 3f 	jmp	0x7e80	; 0x7e80 <__epilogue_restores__+0x1a>

00002246 <Show_FET_Channel>:
 *  show FET/IGBT channel type
 */

void Show_FET_Channel(void)
{
  Display_Space();                      /* display space */
    2246:	0e 94 6e 20 	call	0x40dc	; 0x40dc <Display_Space>

  /* channel type */
  if (Check.Type & TYPE_N_CHANNEL)      /* n-channel */
    224a:	80 91 07 01 	lds	r24, 0x0107	; 0x800107 <__data_end+0x1>
    224e:	80 ff       	sbrs	r24, 0
    2250:	02 c0       	rjmp	.+4      	; 0x2256 <Show_FET_Channel+0x10>
  {
    Display_Char('N');                  /* display: N */
    2252:	8e e4       	ldi	r24, 0x4E	; 78
    2254:	01 c0       	rjmp	.+2      	; 0x2258 <Show_FET_Channel+0x12>
  }
  else                                  /* p-channel */
  {
    Display_Char('P');                  /* display: P */
    2256:	80 e5       	ldi	r24, 0x50	; 80
    2258:	0e 94 8a 3b 	call	0x7714	; 0x7714 <LCD_Char>
  }

  Display_EEString(Channel_str);        /* display: -ch */
    225c:	89 ea       	ldi	r24, 0xA9	; 169
    225e:	91 e0       	ldi	r25, 0x01	; 1
    2260:	0e 94 43 20 	call	0x4086	; 0x4086 <Display_EEString>
    2264:	08 95       	ret

00002266 <Show_FET_Mode>:
 *  show FET/IGBT mode
 */

void Show_FET_Mode(void)
{
  Display_Space();                      /* display space */
    2266:	0e 94 6e 20 	call	0x40dc	; 0x40dc <Display_Space>

  if (Check.Type & TYPE_ENHANCEMENT)    /* enhancement mode */
    226a:	80 91 07 01 	lds	r24, 0x0107	; 0x800107 <__data_end+0x1>
    226e:	82 ff       	sbrs	r24, 2
    2270:	03 c0       	rjmp	.+6      	; 0x2278 <Show_FET_Mode+0x12>
  {
    Display_EEString(Enhancement_str);  /* display: enh. */
    2272:	84 ea       	ldi	r24, 0xA4	; 164
    2274:	91 e0       	ldi	r25, 0x01	; 1
    2276:	02 c0       	rjmp	.+4      	; 0x227c <Show_FET_Mode+0x16>
  }
  else                                  /* depletion mode */
  {
    Display_EEString(Depletion_str);    /* display: dep. */
    2278:	8f e9       	ldi	r24, 0x9F	; 159
    227a:	91 e0       	ldi	r25, 0x01	; 1
    227c:	0e 94 43 20 	call	0x4086	; 0x4086 <Display_EEString>
    2280:	08 95       	ret

00002282 <Show_FET>:
   *  U_2 - V_th (mV)
   *  U_3 - V_GS(off) (mV)
   */

  /* display type */
  if (Check.Type & TYPE_MOSFET)    /* MOSFET */
    2282:	80 91 07 01 	lds	r24, 0x0107	; 0x800107 <__data_end+0x1>
    2286:	84 ff       	sbrs	r24, 4
    2288:	05 c0       	rjmp	.+10     	; 0x2294 <Show_FET+0x12>
  {
    Display_EEString(MOS_str);          /* display: MOS */
    228a:	81 eb       	ldi	r24, 0xB1	; 177
    228c:	91 e0       	ldi	r25, 0x01	; 1
    228e:	0e 94 43 20 	call	0x4086	; 0x4086 <Display_EEString>
    2292:	03 c0       	rjmp	.+6      	; 0x229a <Show_FET+0x18>
  }
  else                             /* JFET */
  {
    Display_Char('J');                  /* display: J */
    2294:	8a e4       	ldi	r24, 0x4A	; 74
    2296:	0e 94 8a 3b 	call	0x7714	; 0x7714 <LCD_Char>
  }
  Display_EEString(FET_str);       /* display: FET */
    229a:	8d ea       	ldi	r24, 0xAD	; 173
    229c:	91 e0       	ldi	r25, 0x01	; 1
    229e:	0e 94 43 20 	call	0x4086	; 0x4086 <Display_EEString>

  /* display channel type */
  Show_FET_Channel();
    22a2:	0e 94 23 11 	call	0x2246	; 0x2246 <Show_FET_Channel>
      
  /* display mode for MOSFETs*/
  if (Check.Type & TYPE_MOSFET) Show_FET_Mode();
    22a6:	80 91 07 01 	lds	r24, 0x0107	; 0x800107 <__data_end+0x1>
    22aa:	84 fd       	sbrc	r24, 4
    22ac:	0e 94 33 11 	call	0x2266	; 0x2266 <Show_FET_Mode>

  /* pinout */
  Display_NextLine();                   /* next line (#2) */
    22b0:	0e 94 0b 20 	call	0x4016	; 0x4016 <Display_NextLine>

  if (Check.Type & TYPE_SYMMETRICAL)    /* symmetrical Drain and Source */
    22b4:	80 91 07 01 	lds	r24, 0x0107	; 0x800107 <__data_end+0x1>
    22b8:	86 ff       	sbrs	r24, 6
    22ba:	03 c0       	rjmp	.+6      	; 0x22c2 <Show_FET+0x40>
  {
    /* we can't distinguish D and S */
    Show_SemiPinout('G', 'x', 'x');     /* show pinout */
    22bc:	48 e7       	ldi	r20, 0x78	; 120
    22be:	68 e7       	ldi	r22, 0x78	; 120
    22c0:	02 c0       	rjmp	.+4      	; 0x22c6 <Show_FET+0x44>
  }
  else                                  /* unsymmetrical Drain and Source */
  {
    Show_SemiPinout('G', 'D', 'S');     /* show pinout */
    22c2:	43 e5       	ldi	r20, 0x53	; 83
    22c4:	64 e4       	ldi	r22, 0x44	; 68
    22c6:	87 e4       	ldi	r24, 0x47	; 71
    22c8:	0e 94 74 0b 	call	0x16e8	; 0x16e8 <Show_SemiPinout>
  }

  /* show body diode, V_th and Cgs for MOSFETs */
  if (Check.Type & TYPE_MOSFET) Show_FET_Extras();
    22cc:	80 91 07 01 	lds	r24, 0x0107	; 0x800107 <__data_end+0x1>
    22d0:	84 fd       	sbrc	r24, 4
    22d2:	0e 94 a3 10 	call	0x2146	; 0x2146 <Show_FET_Extras>

  /* show I_DSS and V_GS(off) for depletion mode FET */
  if (Check.Type & TYPE_DEPLETION)
    22d6:	80 91 07 01 	lds	r24, 0x0107	; 0x800107 <__data_end+0x1>
    22da:	83 ff       	sbrs	r24, 3
    22dc:	1e c0       	rjmp	.+60     	; 0x231a <Show_FET+0x98>
  {
    /* I_DSS */
    Show_SemiCurrent(I_DSS_str);        /* display Idss */
    22de:	89 e2       	ldi	r24, 0x29	; 41
    22e0:	91 e0       	ldi	r25, 0x01	; 1
    22e2:	0e 94 cc 0d 	call	0x1b98	; 0x1b98 <Show_SemiCurrent>

    /* V_GS(off) */
    if (Semi.U_3 != 0)                  /* valid value */
    22e6:	80 91 b7 01 	lds	r24, 0x01B7	; 0x8001b7 <Semi+0x8>
    22ea:	90 91 b8 01 	lds	r25, 0x01B8	; 0x8001b8 <Semi+0x9>
    22ee:	89 2b       	or	r24, r25
    22f0:	a1 f0       	breq	.+40     	; 0x231a <Show_FET+0x98>
    {
      Display_NL_EEString_Space(V_GSoff_str);     /* display: V_GS(off) */
    22f2:	87 e1       	ldi	r24, 0x17	; 23
    22f4:	91 e0       	ldi	r25, 0x01	; 1
    22f6:	0e 94 82 20 	call	0x4104	; 0x4104 <Display_NL_EEString_Space>
      #ifdef SW_SYMBOLS
      /* we need some space for the symbol: move value to next line */
      Display_NextLine();
    22fa:	0e 94 0b 20 	call	0x4016	; 0x4016 <Display_NextLine>
      Display_Space();
    22fe:	0e 94 6e 20 	call	0x40dc	; 0x40dc <Display_Space>
      #endif
      Display_SignedValue(Semi.U_3, -3, 'V');     /* display V_GS(off) in mV */
    2302:	60 91 b7 01 	lds	r22, 0x01B7	; 0x8001b7 <Semi+0x8>
    2306:	70 91 b8 01 	lds	r23, 0x01B8	; 0x8001b8 <Semi+0x9>
    230a:	07 2e       	mov	r0, r23
    230c:	00 0c       	add	r0, r0
    230e:	88 0b       	sbc	r24, r24
    2310:	99 0b       	sbc	r25, r25
    2312:	26 e5       	ldi	r18, 0x56	; 86
    2314:	4d ef       	ldi	r20, 0xFD	; 253
    2316:	0e 94 82 21 	call	0x4304	; 0x4304 <Display_SignedValue>
    231a:	08 95       	ret

0000231c <Show_IGBT>:
   *  B   - Collector pin
   *  C   - Emitter pin
   *  U_2 - V_th (mV)
   */

  Display_EEString(IGBT_str);      /* display: IGBT */
    231c:	8a e9       	ldi	r24, 0x9A	; 154
    231e:	91 e0       	ldi	r25, 0x01	; 1
    2320:	0e 94 43 20 	call	0x4086	; 0x4086 <Display_EEString>
  Show_FET_Channel();              /* display channel type */
    2324:	0e 94 23 11 	call	0x2246	; 0x2246 <Show_FET_Channel>
  Show_FET_Mode();                 /* display mode */
    2328:	0e 94 33 11 	call	0x2266	; 0x2266 <Show_FET_Mode>

  Display_NextLine();              /* next line (#2) */
    232c:	0e 94 0b 20 	call	0x4016	; 0x4016 <Display_NextLine>
  Show_SemiPinout('G', 'C', 'E');  /* show pinout */
    2330:	45 e4       	ldi	r20, 0x45	; 69
    2332:	63 e4       	ldi	r22, 0x43	; 67
    2334:	87 e4       	ldi	r24, 0x47	; 71
    2336:	0e 94 74 0b 	call	0x16e8	; 0x16e8 <Show_SemiPinout>

  Show_FET_Extras();               /* show diode, V_th and C_GE */
    233a:	0e 94 a3 10 	call	0x2146	; 0x2146 <Show_FET_Extras>
    233e:	08 95       	ret

00002340 <Show_ThyristorTriac>:
   *  C   - Cathode    MT1
   *  U_1 - V_GT (mV)
   */

  /* display component type any pinout */
  if (Check.Found == COMP_THYRISTOR)    /* SCR */
    2340:	80 91 06 01 	lds	r24, 0x0106	; 0x800106 <__data_end>
    2344:	82 32       	cpi	r24, 0x22	; 34
    2346:	49 f4       	brne	.+18     	; 0x235a <Show_ThyristorTriac+0x1a>
  {
    Display_EEString(Thyristor_str);    /* display: thyristor */
    2348:	8d e4       	ldi	r24, 0x4D	; 77
    234a:	92 e0       	ldi	r25, 0x02	; 2
    234c:	0e 94 43 20 	call	0x4086	; 0x4086 <Display_EEString>
    Display_NextLine();                 /* next line (#2) */
    2350:	0e 94 0b 20 	call	0x4016	; 0x4016 <Display_NextLine>
    Show_SemiPinout('G', 'A', 'C');     /* display pinout */
    2354:	43 e4       	ldi	r20, 0x43	; 67
    2356:	61 e4       	ldi	r22, 0x41	; 65
    2358:	08 c0       	rjmp	.+16     	; 0x236a <Show_ThyristorTriac+0x2a>
  }
  else                                  /* TRIAC */
  {
    Display_EEString(Triac_str);        /* display: TRIAC */
    235a:	87 e4       	ldi	r24, 0x47	; 71
    235c:	92 e0       	ldi	r25, 0x02	; 2
    235e:	0e 94 43 20 	call	0x4086	; 0x4086 <Display_EEString>
    Display_NextLine();                 /* next line (#2) */
    2362:	0e 94 0b 20 	call	0x4016	; 0x4016 <Display_NextLine>
    Show_SemiPinout('G', '2', '1');     /* display pinout */
    2366:	41 e3       	ldi	r20, 0x31	; 49
    2368:	62 e3       	ldi	r22, 0x32	; 50
    236a:	87 e4       	ldi	r24, 0x47	; 71
    236c:	0e 94 74 0b 	call	0x16e8	; 0x16e8 <Show_SemiPinout>
  }

  /* show V_GT (gate trigger voltage) */
  if (Semi.U_1 > 0)                /* show if not zero */
    2370:	80 91 b3 01 	lds	r24, 0x01B3	; 0x8001b3 <Semi+0x4>
    2374:	90 91 b4 01 	lds	r25, 0x01B4	; 0x8001b4 <Semi+0x5>
    2378:	89 2b       	or	r24, r25
    237a:	71 f0       	breq	.+28     	; 0x2398 <Show_ThyristorTriac+0x58>
  {
    Display_NL_EEString_Space(V_GT_str);     /* display: V_GT */
    237c:	81 e8       	ldi	r24, 0x81	; 129
    237e:	91 e0       	ldi	r25, 0x01	; 1
    2380:	0e 94 82 20 	call	0x4104	; 0x4104 <Display_NL_EEString_Space>
    Display_Value(Semi.U_1, -3, 'V');        /* display V_GT in mV */
    2384:	60 91 b3 01 	lds	r22, 0x01B3	; 0x8001b3 <Semi+0x4>
    2388:	70 91 b4 01 	lds	r23, 0x01B4	; 0x8001b4 <Semi+0x5>
    238c:	80 e0       	ldi	r24, 0x00	; 0
    238e:	90 e0       	ldi	r25, 0x00	; 0
    2390:	26 e5       	ldi	r18, 0x56	; 86
    2392:	4d ef       	ldi	r20, 0xFD	; 253
    2394:	0e 94 fa 20 	call	0x41f4	; 0x41f4 <Display_Value>
    2398:	08 95       	ret

0000239a <Show_PUT>:
/*
 *  show PUT
 */

void Show_PUT(void)
{
    239a:	cf 93       	push	r28
    239c:	df 93       	push	r29
   *  A   - Gate
   *  B   - Anode
   *  C   - Cathode
   */

  Display_EEString(PUT_str);            /* display: PUT */
    239e:	83 e4       	ldi	r24, 0x43	; 67
    23a0:	92 e0       	ldi	r25, 0x02	; 2
    23a2:	0e 94 43 20 	call	0x4086	; 0x4086 <Display_EEString>
  Display_NextLine();                   /* move to line #2 */
    23a6:	0e 94 0b 20 	call	0x4016	; 0x4016 <Display_NextLine>
  Show_SemiPinout('G', 'A', 'C');       /* display pinout */
    23aa:	43 e4       	ldi	r20, 0x43	; 67
    23ac:	61 e4       	ldi	r22, 0x41	; 65
    23ae:	87 e4       	ldi	r24, 0x47	; 71
    23b0:	0e 94 74 0b 	call	0x16e8	; 0x16e8 <Show_SemiPinout>

  /* display V_T */
  Display_NL_EEString_Space(V_T_str);   /* display: VT */
    23b4:	8c e6       	ldi	r24, 0x6C	; 108
    23b6:	91 e0       	ldi	r25, 0x01	; 1
    23b8:	0e 94 82 20 	call	0x4104	; 0x4104 <Display_NL_EEString_Space>
  Display_Value(AltSemi.U_2, -3, 'V');  /* display V_T */
    23bc:	cc e3       	ldi	r28, 0x3C	; 60
    23be:	d1 e0       	ldi	r29, 0x01	; 1
    23c0:	6d 81       	ldd	r22, Y+5	; 0x05
    23c2:	7e 81       	ldd	r23, Y+6	; 0x06
    23c4:	80 e0       	ldi	r24, 0x00	; 0
    23c6:	90 e0       	ldi	r25, 0x00	; 0
    23c8:	26 e5       	ldi	r18, 0x56	; 86
    23ca:	4d ef       	ldi	r20, 0xFD	; 253
    23cc:	0e 94 fa 20 	call	0x41f4	; 0x41f4 <Display_Value>

  /* display V_f */
  Display_NL_EEString_Space(Vf_str);    /* display: Vf */
    23d0:	89 e7       	ldi	r24, 0x79	; 121
    23d2:	91 e0       	ldi	r25, 0x01	; 1
    23d4:	0e 94 82 20 	call	0x4104	; 0x4104 <Display_NL_EEString_Space>
  Display_Value(AltSemi.U_1, -3, 'V');  /* display V_f */
    23d8:	6b 81       	ldd	r22, Y+3	; 0x03
    23da:	7c 81       	ldd	r23, Y+4	; 0x04
    23dc:	80 e0       	ldi	r24, 0x00	; 0
    23de:	90 e0       	ldi	r25, 0x00	; 0
    23e0:	26 e5       	ldi	r18, 0x56	; 86
    23e2:	4d ef       	ldi	r20, 0xFD	; 253
    23e4:	0e 94 fa 20 	call	0x41f4	; 0x41f4 <Display_Value>
}
    23e8:	df 91       	pop	r29
    23ea:	cf 91       	pop	r28
    23ec:	08 95       	ret

000023ee <Show_UJT>:
   *  A   - Gate
   *  B   - Anode
   *  C   - Cathode
   */

  Display_EEString(UJT_str);            /* display: UJT */
    23ee:	83 ef       	ldi	r24, 0xF3	; 243
    23f0:	91 e0       	ldi	r25, 0x01	; 1
    23f2:	0e 94 43 20 	call	0x4086	; 0x4086 <Display_EEString>
  Display_NextLine();                   /* next line (#2) */
    23f6:	0e 94 0b 20 	call	0x4016	; 0x4016 <Display_NextLine>
  Show_SemiPinout('E', '2', '1');       /* display pinout */
    23fa:	41 e3       	ldi	r20, 0x31	; 49
    23fc:	62 e3       	ldi	r22, 0x32	; 50
    23fe:	85 e4       	ldi	r24, 0x45	; 69
    2400:	0e 94 74 0b 	call	0x16e8	; 0x16e8 <Show_SemiPinout>

  /* display r_BB */
  Display_NL_EEString_Space(R_BB_str);  /* display: R_BB */  
    2404:	8e e0       	ldi	r24, 0x0E	; 14
    2406:	91 e0       	ldi	r25, 0x01	; 1
    2408:	0e 94 82 20 	call	0x4104	; 0x4104 <Display_NL_EEString_Space>
  Display_Value(Resistors[0].Value, Resistors[0].Scale, LCD_CHAR_OMEGA);
    240c:	e1 e1       	ldi	r30, 0x11	; 17
    240e:	f1 e0       	ldi	r31, 0x01	; 1
    2410:	63 81       	ldd	r22, Z+3	; 0x03
    2412:	74 81       	ldd	r23, Z+4	; 0x04
    2414:	85 81       	ldd	r24, Z+5	; 0x05
    2416:	96 81       	ldd	r25, Z+6	; 0x06
    2418:	24 e0       	ldi	r18, 0x04	; 4
    241a:	42 81       	ldd	r20, Z+2	; 0x02
    241c:	0e 94 fa 20 	call	0x41f4	; 0x41f4 <Display_Value>
    2420:	08 95       	ret

00002422 <CheckVoltageRefs>:
/*
 *  manage voltage references
 */

void CheckVoltageRefs(void)
{
    2422:	cf 93       	push	r28
  /*
   *  external 2.5V voltage reference
   */

  #ifdef HW_REF25
  Cfg.Samples = 200;               /* perform 200 ADC samples for high accuracy */
    2424:	88 ec       	ldi	r24, 0xC8	; 200
    2426:	80 93 a3 01 	sts	0x01A3, r24	; 0x8001a3 <Cfg+0x3>
  U_Ref = ReadU(TP_REF);           /* read voltage of reference (mV) */
    242a:	84 e0       	ldi	r24, 0x04	; 4
    242c:	0e 94 b7 1b 	call	0x376e	; 0x376e <ReadU>
    2430:	ac 01       	movw	r20, r24

  /* check for valid voltage range */
  if ((U_Ref > 2250) && (U_Ref < 2750))      /* voltage is fine */
    2432:	8b 5c       	subi	r24, 0xCB	; 203
    2434:	98 40       	sbci	r25, 0x08	; 8
    2436:	c0 91 a0 01 	lds	r28, 0x01A0	; 0x8001a0 <Cfg>
    243a:	83 3f       	cpi	r24, 0xF3	; 243
    243c:	91 40       	sbci	r25, 0x01	; 1
    243e:	98 f4       	brcc	.+38     	; 0x2466 <CheckVoltageRefs+0x44>
  {
    /* adjust Vcc (assuming 2.495V typically) */
    Temp = ((uint32_t)Cfg.Vcc * UREF_25) / U_Ref;
    2440:	20 91 a8 01 	lds	r18, 0x01A8	; 0x8001a8 <Cfg+0x8>
    2444:	30 91 a9 01 	lds	r19, 0x01A9	; 0x8001a9 <Cfg+0x9>
    Cfg.Vcc = (uint16_t)Temp;
    2448:	af eb       	ldi	r26, 0xBF	; 191
    244a:	b9 e0       	ldi	r27, 0x09	; 9
    244c:	0e 94 f6 3e 	call	0x7dec	; 0x7dec <__umulhisi3>
    2450:	9a 01       	movw	r18, r20
    2452:	40 e0       	ldi	r20, 0x00	; 0
    2454:	50 e0       	ldi	r21, 0x00	; 0
    2456:	0e 94 af 3e 	call	0x7d5e	; 0x7d5e <__udivmodsi4>
    245a:	30 93 a9 01 	sts	0x01A9, r19	; 0x8001a9 <Cfg+0x9>
    245e:	20 93 a8 01 	sts	0x01A8, r18	; 0x8001a8 <Cfg+0x8>

    Cfg.OP_Mode |= OP_EXT_REF;          /* set flag */
    2462:	c4 60       	ori	r28, 0x04	; 4
    2464:	01 c0       	rjmp	.+2      	; 0x2468 <CheckVoltageRefs+0x46>
  }
  else                                       /* voltage out of range */
  {
    Cfg.OP_Mode &= ~OP_EXT_REF;         /* clear flag */
    2466:	cb 7f       	andi	r28, 0xFB	; 251
    2468:	c0 93 a0 01 	sts	0x01A0, r28	; 0x8001a0 <Cfg>

  /*
   *  internal 1.1V bandgap reference
   */

  Cfg.Bandgap = ReadU(ADC_CHAN_BANDGAP);     /* dummy read for bandgap stabilization */
    246c:	8e e0       	ldi	r24, 0x0E	; 14
    246e:	0e 94 b7 1b 	call	0x376e	; 0x376e <ReadU>
    2472:	90 93 a7 01 	sts	0x01A7, r25	; 0x8001a7 <Cfg+0x7>
    2476:	80 93 a6 01 	sts	0x01A6, r24	; 0x8001a6 <Cfg+0x6>
  Cfg.Samples = 200;                         /* perform 200 ADC samples for high accuracy */
    247a:	88 ec       	ldi	r24, 0xC8	; 200
    247c:	80 93 a3 01 	sts	0x01A3, r24	; 0x8001a3 <Cfg+0x3>
  Cfg.Bandgap = ReadU(ADC_CHAN_BANDGAP);     /* get voltage of bandgap reference (mV) */
    2480:	8e e0       	ldi	r24, 0x0E	; 14
    2482:	0e 94 b7 1b 	call	0x376e	; 0x376e <ReadU>
  Cfg.Bandgap += NV.RefOffset;               /* add voltage offset */
    2486:	20 91 e4 01 	lds	r18, 0x01E4	; 0x8001e4 <NV+0x7>
    248a:	82 0f       	add	r24, r18
    248c:	91 1d       	adc	r25, r1
    248e:	27 fd       	sbrc	r18, 7
    2490:	9a 95       	dec	r25
    2492:	90 93 a7 01 	sts	0x01A7, r25	; 0x8001a7 <Cfg+0x7>
    2496:	80 93 a6 01 	sts	0x01A6, r24	; 0x8001a6 <Cfg+0x6>

  /* clean up */
  Cfg.Samples = ADC_SAMPLES;            /* set ADC samples back to default */
    249a:	89 e1       	ldi	r24, 0x19	; 25
    249c:	80 93 a3 01 	sts	0x01A3, r24	; 0x8001a3 <Cfg+0x3>
}
    24a0:	cf 91       	pop	r28
    24a2:	08 95       	ret

000024a4 <PowerOff>:
 */

void PowerOff(void)
{
  /* display feedback (otherwise the user will wait :) */
  LCD_Clear();
    24a4:	0e 94 31 3b 	call	0x7662	; 0x7662 <LCD_Clear>
  #ifdef LCD_COLOR
  UI.PenColor = COLOR_TITLE;            /* set pen color */
    24a8:	8f ef       	ldi	r24, 0xFF	; 255
    24aa:	97 e0       	ldi	r25, 0x07	; 7
    24ac:	90 93 2d 01 	sts	0x012D, r25	; 0x80012d <UI+0x7>
    24b0:	80 93 2c 01 	sts	0x012C, r24	; 0x80012c <UI+0x6>
  #endif
  Display_EEString(Bye_str);            /* display: Bye! */
    24b4:	8e e3       	ldi	r24, 0x3E	; 62
    24b6:	92 e0       	ldi	r25, 0x02	; 2
    24b8:	0e 94 43 20 	call	0x4086	; 0x4086 <Display_EEString>

  cli();                                /* disable interrupts */
    24bc:	f8 94       	cli
		);
	}
	else
	{
        uint8_t register temp_reg;
		__asm__ __volatile__ (
    24be:	0f b6       	in	r0, 0x3f	; 63
    24c0:	f8 94       	cli
    24c2:	a8 95       	wdr
    24c4:	80 91 60 00 	lds	r24, 0x0060	; 0x800060 <__DATA_REGION_ORIGIN__>
    24c8:	88 61       	ori	r24, 0x18	; 24
    24ca:	80 93 60 00 	sts	0x0060, r24	; 0x800060 <__DATA_REGION_ORIGIN__>
    24ce:	10 92 60 00 	sts	0x0060, r1	; 0x800060 <__DATA_REGION_ORIGIN__>
    24d2:	0f be       	out	0x3f, r0	; 63
  wdt_disable();                        /* disable watchdog */
  #ifdef POWER_SWITCH_SOFT
  POWER_PORT &= ~(1 << POWER_CTRL);     /* power off myself */
    24d4:	5e 98       	cbi	0x0b, 6	; 11
   *  As long as the user keeps the test button pressed the MCU is still
   *  powered. Therefor we make sure that nothing happens by forcing the
   *  MCU to sleep which also saves power. Same for a classic power switch.
   */

  set_sleep_mode(SLEEP_MODE_PWR_DOWN);  /* set sleep mode to "power down" */
    24d6:	83 b7       	in	r24, 0x33	; 51
    24d8:	81 7f       	andi	r24, 0xF1	; 241
    24da:	84 60       	ori	r24, 0x04	; 4
    24dc:	83 bf       	out	0x33, r24	; 51
  sleep_mode();                         /* enter sleep mode */
    24de:	83 b7       	in	r24, 0x33	; 51
    24e0:	81 60       	ori	r24, 0x01	; 1
    24e2:	83 bf       	out	0x33, r24	; 51
    24e4:	88 95       	sleep
    24e6:	83 b7       	in	r24, 0x33	; 51
    24e8:	8e 7f       	andi	r24, 0xFE	; 254
    24ea:	83 bf       	out	0x33, r24	; 51
    24ec:	08 95       	ret

000024ee <ShowBattery>:
 */

void ShowBattery(void)
{
  /* display battery voltage */
  Display_EEString_Space(Battery_str);     /* display: Bat. */
    24ee:	87 e3       	ldi	r24, 0x37	; 55
    24f0:	92 e0       	ldi	r25, 0x02	; 2
    24f2:	0e 94 72 20 	call	0x40e4	; 0x40e4 <Display_EEString_Space>
  {
     /* powered by battery */
  #endif

    /* display battery voltage */
    Display_Value(Cfg.Vbat / 10, -2, 'V');
    24f6:	80 91 aa 01 	lds	r24, 0x01AA	; 0x8001aa <Cfg+0xa>
    24fa:	90 91 ab 01 	lds	r25, 0x01AB	; 0x8001ab <Cfg+0xb>
    24fe:	6a e0       	ldi	r22, 0x0A	; 10
    2500:	70 e0       	ldi	r23, 0x00	; 0
    2502:	0e 94 87 3e 	call	0x7d0e	; 0x7d0e <__udivmodhi4>
    2506:	80 e0       	ldi	r24, 0x00	; 0
    2508:	90 e0       	ldi	r25, 0x00	; 0
    250a:	26 e5       	ldi	r18, 0x56	; 86
    250c:	4e ef       	ldi	r20, 0xFE	; 254
    250e:	0e 94 fa 20 	call	0x41f4	; 0x41f4 <Display_Value>
    Display_Space();
    2512:	0e 94 6e 20 	call	0x40dc	; 0x40dc <Display_Space>

    /* display status */
    if (Cfg.Vbat < BAT_LOW)        /* low level reached */
    2516:	80 91 aa 01 	lds	r24, 0x01AA	; 0x8001aa <Cfg+0xa>
    251a:	90 91 ab 01 	lds	r25, 0x01AB	; 0x8001ab <Cfg+0xb>
    251e:	81 15       	cp	r24, r1
    2520:	29 e1       	ldi	r18, 0x19	; 25
    2522:	92 07       	cpc	r25, r18
    2524:	48 f4       	brcc	.+18     	; 0x2538 <ShowBattery+0x4a>
    {
      #ifdef LCD_COLOR
      UI.PenColor = COLOR_RED;          /* use red */
    2526:	80 e0       	ldi	r24, 0x00	; 0
    2528:	98 ef       	ldi	r25, 0xF8	; 248
    252a:	90 93 2d 01 	sts	0x012D, r25	; 0x80012d <UI+0x7>
    252e:	80 93 2c 01 	sts	0x012C, r24	; 0x80012c <UI+0x6>
      #endif
      Display_EEString(Low_str);        /* display: low */
    2532:	8b e2       	ldi	r24, 0x2B	; 43
    2534:	92 e0       	ldi	r25, 0x02	; 2
    2536:	14 c0       	rjmp	.+40     	; 0x2560 <ShowBattery+0x72>
    }
    else if (Cfg.Vbat < BAT_WEAK)  /* warning level reached */
    2538:	88 3e       	cpi	r24, 0xE8	; 232
    253a:	9c 41       	sbci	r25, 0x1C	; 28
    253c:	48 f4       	brcc	.+18     	; 0x2550 <ShowBattery+0x62>
    {
      #ifdef LCD_COLOR
      UI.PenColor = COLOR_YELLOW;       /* use yellow */
    253e:	80 ee       	ldi	r24, 0xE0	; 224
    2540:	9f ef       	ldi	r25, 0xFF	; 255
    2542:	90 93 2d 01 	sts	0x012D, r25	; 0x80012d <UI+0x7>
    2546:	80 93 2c 01 	sts	0x012C, r24	; 0x80012c <UI+0x6>
      #endif
      Display_EEString(Weak_str);       /* display: weak */
    254a:	8f e2       	ldi	r24, 0x2F	; 47
    254c:	92 e0       	ldi	r25, 0x02	; 2
    254e:	08 c0       	rjmp	.+16     	; 0x2560 <ShowBattery+0x72>
    }
    else                           /* ok */
    {
      #ifdef LCD_COLOR
      UI.PenColor = COLOR_GREEN;        /* use green */
    2550:	80 ee       	ldi	r24, 0xE0	; 224
    2552:	97 e0       	ldi	r25, 0x07	; 7
    2554:	90 93 2d 01 	sts	0x012D, r25	; 0x80012d <UI+0x7>
    2558:	80 93 2c 01 	sts	0x012C, r24	; 0x80012c <UI+0x6>
      #endif
      Display_EEString(OK_str);         /* display: ok */
    255c:	84 e3       	ldi	r24, 0x34	; 52
    255e:	92 e0       	ldi	r25, 0x02	; 2
    2560:	0e 94 43 20 	call	0x4086	; 0x4086 <Display_EEString>
  #ifdef BAT_EXT_UNMONITORED
  }
  #endif

  #ifdef LCD_COLOR
  UI.PenColor = COLOR_PEN;         /* set color back to default */
    2564:	80 ee       	ldi	r24, 0xE0	; 224
    2566:	97 e0       	ldi	r25, 0x07	; 7
    2568:	90 93 2d 01 	sts	0x012D, r25	; 0x80012d <UI+0x7>
    256c:	80 93 2c 01 	sts	0x012C, r24	; 0x80012c <UI+0x6>
    2570:	08 95       	ret

00002572 <CheckBattery>:
void CheckBattery(void)
{
  uint16_t          U_Bat;         /* battery voltage */

  /* get current battery voltage */
  U_Bat = ReadU(TP_BAT);           /* read voltage (mV) */
    2572:	85 e0       	ldi	r24, 0x05	; 5
    2574:	0e 94 b7 1b 	call	0x376e	; 0x376e <ReadU>
   *  - U2 = (Uin / (R1 + R2)) * R2 
   *  - Uin = (U2 * (R1 + R2)) / R2
   */

  Temp = (((uint32_t)(BAT_R1 + BAT_R2) * 1000) / BAT_R2);   /* factor (0.001) */
  Temp *= U_Bat;                   /* Uin (0.001 mV) */
    2578:	9c 01       	movw	r18, r24
    257a:	ae eb       	ldi	r26, 0xBE	; 190
    257c:	bf e0       	ldi	r27, 0x0F	; 15
    257e:	0e 94 f6 3e 	call	0x7dec	; 0x7dec <__umulhisi3>
  Temp /= 1000;                    /* Uin (mV) */
  U_Bat = (uint16_t)Temp;
    2582:	28 ee       	ldi	r18, 0xE8	; 232
    2584:	33 e0       	ldi	r19, 0x03	; 3
    2586:	40 e0       	ldi	r20, 0x00	; 0
    2588:	50 e0       	ldi	r21, 0x00	; 0
    258a:	0e 94 af 3e 	call	0x7d5e	; 0x7d5e <__udivmodsi4>
  #endif

  U_Bat += BAT_OFFSET;             /* add offset for voltage drop */
    258e:	2e 5d       	subi	r18, 0xDE	; 222
    2590:	3e 4f       	sbci	r19, 0xFE	; 254
  Cfg.Vbat = U_Bat;                /* save battery voltage */
    2592:	30 93 ab 01 	sts	0x01AB, r19	; 0x8001ab <Cfg+0xb>
    2596:	20 93 aa 01 	sts	0x01AA, r18	; 0x8001aa <Cfg+0xa>
  Cfg.BatTimer = 100;              /* reset timer for next battery check (in 100ms) */
    259a:	84 e6       	ldi	r24, 0x64	; 100
    259c:	80 93 ac 01 	sts	0x01AC, r24	; 0x8001ac <Cfg+0xc>
                                   /* about 10s */

  /* check for low-voltage situation */
  if (U_Bat < BAT_LOW)             /* low level reached */
    25a0:	21 15       	cp	r18, r1
    25a2:	39 41       	sbci	r19, 0x19	; 25
    25a4:	50 f4       	brcc	.+20     	; 0x25ba <CheckBattery+0x48>
    if (U_Bat >= 900)                   /* >= 0.9V */
    {
      /* battery operation */
    #endif

      LCD_Clear();                 /* clear display */
    25a6:	0e 94 31 3b 	call	0x7662	; 0x7662 <LCD_Clear>
      ShowBattery();               /* display battery status */
    25aa:	0e 94 77 12 	call	0x24ee	; 0x24ee <ShowBattery>
      MilliSleep(3000);            /* let user read info */
    25ae:	88 eb       	ldi	r24, 0xB8	; 184
    25b0:	9b e0       	ldi	r25, 0x0B	; 11
    25b2:	0e 94 2e 17 	call	0x2e5c	; 0x2e5c <MilliSleep>
      PowerOff();                  /* power off */
    25b6:	0e 94 52 12 	call	0x24a4	; 0x24a4 <PowerOff>
    25ba:	08 95       	ret

000025bc <NumberOfDigits>:
/*
 *  get number of digits of a value
 */

uint8_t NumberOfDigits(uint32_t Value)
{
    25bc:	cf 92       	push	r12
    25be:	df 92       	push	r13
    25c0:	ef 92       	push	r14
    25c2:	ff 92       	push	r15
    25c4:	cf 93       	push	r28
  uint8_t           Counter = 1;   /* return value */
    25c6:	c1 e0       	ldi	r28, 0x01	; 1

  while (Value >= 10)
  {
    Value /= 10;
    25c8:	2a e0       	ldi	r18, 0x0A	; 10
    25ca:	c2 2e       	mov	r12, r18
    25cc:	d1 2c       	mov	r13, r1
    25ce:	e1 2c       	mov	r14, r1
    25d0:	f1 2c       	mov	r15, r1

uint8_t NumberOfDigits(uint32_t Value)
{
  uint8_t           Counter = 1;   /* return value */

  while (Value >= 10)
    25d2:	6a 30       	cpi	r22, 0x0A	; 10
    25d4:	71 05       	cpc	r23, r1
    25d6:	81 05       	cpc	r24, r1
    25d8:	91 05       	cpc	r25, r1
    25da:	40 f0       	brcs	.+16     	; 0x25ec <NumberOfDigits+0x30>
  {
    Value /= 10;
    25dc:	a7 01       	movw	r20, r14
    25de:	96 01       	movw	r18, r12
    25e0:	0e 94 af 3e 	call	0x7d5e	; 0x7d5e <__udivmodsi4>
    25e4:	ca 01       	movw	r24, r20
    25e6:	b9 01       	movw	r22, r18
    Counter++;
    25e8:	cf 5f       	subi	r28, 0xFF	; 255
    25ea:	f3 cf       	rjmp	.-26     	; 0x25d2 <NumberOfDigits+0x16>
  }

  return Counter;
}
    25ec:	8c 2f       	mov	r24, r28
    25ee:	cf 91       	pop	r28
    25f0:	ff 90       	pop	r15
    25f2:	ef 90       	pop	r14
    25f4:	df 90       	pop	r13
    25f6:	cf 90       	pop	r12
    25f8:	08 95       	ret

000025fa <CmpValue>:
 *  - 0 if equal
 *  - 1 if first value is larger than second one
 */

int8_t CmpValue(uint32_t Value1, int8_t Scale1, uint32_t Value2, int8_t Scale2)
{
    25fa:	a0 e0       	ldi	r26, 0x00	; 0
    25fc:	b0 e0       	ldi	r27, 0x00	; 0
    25fe:	e3 e0       	ldi	r30, 0x03	; 3
    2600:	f3 e1       	ldi	r31, 0x13	; 19
    2602:	0c 94 18 3f 	jmp	0x7e30	; 0x7e30 <__prologue_saves__+0x2>
    2606:	4b 01       	movw	r8, r22
    2608:	5c 01       	movw	r10, r24
    260a:	34 2e       	mov	r3, r20
    260c:	28 01       	movw	r4, r16
    260e:	39 01       	movw	r6, r18
    2610:	1e 2d       	mov	r17, r14
    2612:	9b 01       	movw	r18, r22
    2614:	ac 01       	movw	r20, r24
 *  get number of digits of a value
 */

uint8_t NumberOfDigits(uint32_t Value)
{
  uint8_t           Counter = 1;   /* return value */
    2616:	d1 e0       	ldi	r29, 0x01	; 1

  while (Value >= 10)
  {
    Value /= 10;
    2618:	9a e0       	ldi	r25, 0x0A	; 10
    261a:	c9 2e       	mov	r12, r25
    261c:	d1 2c       	mov	r13, r1
    261e:	e1 2c       	mov	r14, r1
    2620:	f1 2c       	mov	r15, r1

uint8_t NumberOfDigits(uint32_t Value)
{
  uint8_t           Counter = 1;   /* return value */

  while (Value >= 10)
    2622:	2a 30       	cpi	r18, 0x0A	; 10
    2624:	31 05       	cpc	r19, r1
    2626:	41 05       	cpc	r20, r1
    2628:	51 05       	cpc	r21, r1
    262a:	40 f0       	brcs	.+16     	; 0x263c <CmpValue+0x42>
  {
    Value /= 10;
    262c:	ca 01       	movw	r24, r20
    262e:	b9 01       	movw	r22, r18
    2630:	a7 01       	movw	r20, r14
    2632:	96 01       	movw	r18, r12
    2634:	0e 94 af 3e 	call	0x7d5e	; 0x7d5e <__udivmodsi4>
    Counter++;
    2638:	df 5f       	subi	r29, 0xFF	; 255
    263a:	f3 cf       	rjmp	.-26     	; 0x2622 <CmpValue+0x28>

uint8_t NumberOfDigits(uint32_t Value)
{
  uint8_t           Counter = 1;   /* return value */

  while (Value >= 10)
    263c:	a3 01       	movw	r20, r6
    263e:	92 01       	movw	r18, r4
 *  get number of digits of a value
 */

uint8_t NumberOfDigits(uint32_t Value)
{
  uint8_t           Counter = 1;   /* return value */
    2640:	c1 e0       	ldi	r28, 0x01	; 1

  while (Value >= 10)
  {
    Value /= 10;
    2642:	8a e0       	ldi	r24, 0x0A	; 10
    2644:	c8 2e       	mov	r12, r24
    2646:	d1 2c       	mov	r13, r1
    2648:	e1 2c       	mov	r14, r1
    264a:	f1 2c       	mov	r15, r1

uint8_t NumberOfDigits(uint32_t Value)
{
  uint8_t           Counter = 1;   /* return value */

  while (Value >= 10)
    264c:	2a 30       	cpi	r18, 0x0A	; 10
    264e:	31 05       	cpc	r19, r1
    2650:	41 05       	cpc	r20, r1
    2652:	51 05       	cpc	r21, r1
    2654:	40 f0       	brcs	.+16     	; 0x2666 <CmpValue+0x6c>
  {
    Value /= 10;
    2656:	ca 01       	movw	r24, r20
    2658:	b9 01       	movw	r22, r18
    265a:	a7 01       	movw	r20, r14
    265c:	96 01       	movw	r18, r12
    265e:	0e 94 af 3e 	call	0x7d5e	; 0x7d5e <__udivmodsi4>
    Counter++;
    2662:	cf 5f       	subi	r28, 0xFF	; 255
    2664:	f3 cf       	rjmp	.-26     	; 0x264c <CmpValue+0x52>

  /* determine virtual length */
  Len1 = NumberOfDigits(Value1) + Scale1;
  Len2 = NumberOfDigits(Value2) + Scale2;

  if ((Value1 == 0) || (Value2 == 0))    /* special case */
    2666:	81 14       	cp	r8, r1
    2668:	91 04       	cpc	r9, r1
    266a:	a1 04       	cpc	r10, r1
    266c:	b1 04       	cpc	r11, r1
    266e:	59 f1       	breq	.+86     	; 0x26c6 <CmpValue+0xcc>
    2670:	41 14       	cp	r4, r1
    2672:	51 04       	cpc	r5, r1
    2674:	61 04       	cpc	r6, r1
    2676:	71 04       	cpc	r7, r1
    2678:	09 f1       	breq	.+66     	; 0x26bc <CmpValue+0xc2>
{
  int8_t            Flag;               /* return value */
  int8_t            Len1, Len2;         /* length */

  /* determine virtual length */
  Len1 = NumberOfDigits(Value1) + Scale1;
    267a:	43 2d       	mov	r20, r3
    267c:	4d 0f       	add	r20, r29
  Len2 = NumberOfDigits(Value2) + Scale2;
    267e:	e1 2e       	mov	r14, r17
    2680:	ec 0e       	add	r14, r28

  if ((Value1 == 0) || (Value2 == 0))    /* special case */
  {
    Flag = 10;                /* perform direct comparison */
  }
  else if (Len1 > Len2)       /* more digits -> larger */
    2682:	e4 16       	cp	r14, r20
    2684:	4c f1       	brlt	.+82     	; 0x26d8 <CmpValue+0xde>
  {
    Flag = 1;
  }
  else if (Len1 == Len2)      /* same length */
    2686:	4e 11       	cpse	r20, r14
    2688:	29 c0       	rjmp	.+82     	; 0x26dc <CmpValue+0xe2>
  {
    /* re-scale to longer value */
    Len1 -= Scale1;
    268a:	ed 2f       	mov	r30, r29
    Len2 -= Scale2;

    while (Len1 > Len2)       /* up-scale Value #2 */
    268c:	cd 17       	cp	r28, r29
    268e:	54 f4       	brge	.+20     	; 0x26a4 <CmpValue+0xaa>
    {
      Value2 *= 10;
    2690:	aa e0       	ldi	r26, 0x0A	; 10
    2692:	b0 e0       	ldi	r27, 0x00	; 0
    2694:	a3 01       	movw	r20, r6
    2696:	92 01       	movw	r18, r4
    2698:	0e 94 0c 3f 	call	0x7e18	; 0x7e18 <__muluhisi3>
    269c:	2b 01       	movw	r4, r22
    269e:	3c 01       	movw	r6, r24
    26a0:	cf 5f       	subi	r28, 0xFF	; 255
    26a2:	f4 cf       	rjmp	.-24     	; 0x268c <CmpValue+0x92>
      Len2++;
      /* Scale2-- */
    }

    while (Len2 > Len1)       /* up-scale Value #1 */
    26a4:	ec 17       	cp	r30, r28
    26a6:	54 f4       	brge	.+20     	; 0x26bc <CmpValue+0xc2>
    {
      Value1 *= 10;
    26a8:	aa e0       	ldi	r26, 0x0A	; 10
    26aa:	b0 e0       	ldi	r27, 0x00	; 0
    26ac:	a5 01       	movw	r20, r10
    26ae:	94 01       	movw	r18, r8
    26b0:	0e 94 0c 3f 	call	0x7e18	; 0x7e18 <__muluhisi3>
    26b4:	4b 01       	movw	r8, r22
    26b6:	5c 01       	movw	r10, r24
    26b8:	ef 5f       	subi	r30, 0xFF	; 255
    26ba:	f4 cf       	rjmp	.-24     	; 0x26a4 <CmpValue+0xaa>
    Flag = -1;
  }

  if (Flag == 10)             /* perform direct comparison */
  {
    if (Value1 > Value2) Flag = 1;
    26bc:	48 14       	cp	r4, r8
    26be:	59 04       	cpc	r5, r9
    26c0:	6a 04       	cpc	r6, r10
    26c2:	7b 04       	cpc	r7, r11
    26c4:	48 f0       	brcs	.+18     	; 0x26d8 <CmpValue+0xde>
    else if (Value1 < Value2) Flag = -1;
    26c6:	81 e0       	ldi	r24, 0x01	; 1
    26c8:	84 14       	cp	r8, r4
    26ca:	95 04       	cpc	r9, r5
    26cc:	a6 04       	cpc	r10, r6
    26ce:	b7 04       	cpc	r11, r7
    26d0:	08 f0       	brcs	.+2      	; 0x26d4 <CmpValue+0xda>
    26d2:	80 e0       	ldi	r24, 0x00	; 0
    26d4:	81 95       	neg	r24
    26d6:	03 c0       	rjmp	.+6      	; 0x26de <CmpValue+0xe4>
  {
    Flag = 10;                /* perform direct comparison */
  }
  else if (Len1 > Len2)       /* more digits -> larger */
  {
    Flag = 1;
    26d8:	81 e0       	ldi	r24, 0x01	; 1
    26da:	01 c0       	rjmp	.+2      	; 0x26de <CmpValue+0xe4>

    Flag = 10;                /* perform direct comparison */
  }
  else                        /* less digits -> smaller */
  {
    Flag = -1;
    26dc:	8f ef       	ldi	r24, 0xFF	; 255
    else if (Value1 < Value2) Flag = -1;
    else Flag = 0;
  }

  return Flag;
}
    26de:	cd b7       	in	r28, 0x3d	; 61
    26e0:	de b7       	in	r29, 0x3e	; 62
    26e2:	e1 e1       	ldi	r30, 0x11	; 17
    26e4:	0c 94 34 3f 	jmp	0x7e68	; 0x7e68 <__epilogue_restores__+0x2>

000026e8 <RescaleValue>:
 *  - value and scale (*10^x)
 *  - new scale (*10^x)
 */

uint32_t RescaleValue(uint32_t Value, int8_t Scale, int8_t NewScale)
{
    26e8:	cf 92       	push	r12
    26ea:	df 92       	push	r13
    26ec:	ef 92       	push	r14
    26ee:	ff 92       	push	r15
    26f0:	cf 93       	push	r28
    26f2:	df 93       	push	r29
    26f4:	c4 2f       	mov	r28, r20
    26f6:	d2 2f       	mov	r29, r18

  while (Scale != NewScale)   /* processing loop */
  {
    if (NewScale > Scale)     /* upscale */
    {
      NewValue /= 10;
    26f8:	2a e0       	ldi	r18, 0x0A	; 10
    26fa:	c2 2e       	mov	r12, r18
    26fc:	d1 2c       	mov	r13, r1
    26fe:	e1 2c       	mov	r14, r1
    2700:	f1 2c       	mov	r15, r1
{
  uint32_t          NewValue;      /* return value */

  NewValue = Value;           /* take old value */

  while (Scale != NewScale)   /* processing loop */
    2702:	cd 17       	cp	r28, r29
    2704:	91 f0       	breq	.+36     	; 0x272a <RescaleValue+0x42>
  {
    if (NewScale > Scale)     /* upscale */
    2706:	cd 17       	cp	r28, r29
    2708:	44 f4       	brge	.+16     	; 0x271a <RescaleValue+0x32>
    {
      NewValue /= 10;
    270a:	a7 01       	movw	r20, r14
    270c:	96 01       	movw	r18, r12
    270e:	0e 94 af 3e 	call	0x7d5e	; 0x7d5e <__udivmodsi4>
    2712:	ca 01       	movw	r24, r20
    2714:	b9 01       	movw	r22, r18
      Scale++;
    2716:	cf 5f       	subi	r28, 0xFF	; 255
    2718:	f4 cf       	rjmp	.-24     	; 0x2702 <RescaleValue+0x1a>
    }
    else                      /* downscale */
    {
      NewValue *= 10;
    271a:	aa e0       	ldi	r26, 0x0A	; 10
    271c:	b0 e0       	ldi	r27, 0x00	; 0
    271e:	9b 01       	movw	r18, r22
    2720:	ac 01       	movw	r20, r24
    2722:	0e 94 0c 3f 	call	0x7e18	; 0x7e18 <__muluhisi3>
      Scale--;
    2726:	c1 50       	subi	r28, 0x01	; 1
    2728:	ec cf       	rjmp	.-40     	; 0x2702 <RescaleValue+0x1a>
    }
  }

  return NewValue;
}
    272a:	df 91       	pop	r29
    272c:	cf 91       	pop	r28
    272e:	ff 90       	pop	r15
    2730:	ef 90       	pop	r14
    2732:	df 90       	pop	r13
    2734:	cf 90       	pop	r12
    2736:	08 95       	ret

00002738 <EEStringLength>:
 *  requires:
 *  - pointer to fixed string
 */

uint8_t EEStringLength(const unsigned char *String)
{
    2738:	0f 93       	push	r16
    273a:	1f 93       	push	r17
    273c:	cf 93       	push	r28
    273e:	df 93       	push	r29
    2740:	18 2f       	mov	r17, r24
  uint8_t           Length = 0;         /* return value */
  unsigned char     Char;               /* character */

  /* read characters until we get the terminating 0 */
  while ((Char = DATA_read_byte(String)))
    2742:	ec 01       	movw	r28, r24
    2744:	0c 2f       	mov	r16, r28
    2746:	01 1b       	sub	r16, r17
    2748:	ce 01       	movw	r24, r28
    274a:	0e 94 9a 3f 	call	0x7f34	; 0x7f34 <eeprom_read_byte>
    274e:	88 23       	and	r24, r24
    2750:	11 f0       	breq	.+4      	; 0x2756 <EEStringLength+0x1e>
  {
    Length++;                           /* got another character */
    String++;                           /* next one */
    2752:	21 96       	adiw	r28, 0x01	; 1
    2754:	f7 cf       	rjmp	.-18     	; 0x2744 <EEStringLength+0xc>
  }

  return Length;
}
    2756:	80 2f       	mov	r24, r16
    2758:	df 91       	pop	r29
    275a:	cf 91       	pop	r28
    275c:	1f 91       	pop	r17
    275e:	0f 91       	pop	r16
    2760:	08 95       	ret

00002762 <ReadEncoder>:
 *  - KEY_RIGHT for right/clockwise turn
 *  - KEY_LEFT for left/counter-clockwise turn
 */

uint8_t ReadEncoder(void)
{
    2762:	cf 93       	push	r28
  uint8_t           Temp;               /* temporary value */
  uint8_t           AB = 0;             /* new AB state */
  uint8_t           Old_AB;             /* old AB state */

  /* set encoder's A & B pins to input */
  Old_AB = ENCODER_DDR;                 /* save current settings */
    2764:	ca b1       	in	r28, 0x0a	; 10
  ENCODER_DDR &= ~((1 << ENCODER_A) | (1 << ENCODER_B));
    2766:	8a b1       	in	r24, 0x0a	; 10
    2768:	85 7f       	andi	r24, 0xF5	; 245
    276a:	8a b9       	out	0x0a, r24	; 10
  wait500us();                          /* settle time */
    276c:	0e 94 7f 3c 	call	0x78fe	; 0x78fe <wait500us>

  /* get A & B signals (1 = open / 0 = closed) */
  Temp = ENCODER_PIN;
    2770:	99 b1       	in	r25, 0x09	; 9
  if (Temp & (1 << ENCODER_A)) AB = 0b00000010;
    2772:	93 ff       	sbrs	r25, 3
    2774:	02 c0       	rjmp	.+4      	; 0x277a <ReadEncoder+0x18>
    2776:	82 e0       	ldi	r24, 0x02	; 2
    2778:	01 c0       	rjmp	.+2      	; 0x277c <ReadEncoder+0x1a>

uint8_t ReadEncoder(void)
{
  uint8_t           Key = KEY_NONE;     /* return value */
  uint8_t           Temp;               /* temporary value */
  uint8_t           AB = 0;             /* new AB state */
    277a:	80 e0       	ldi	r24, 0x00	; 0
  wait500us();                          /* settle time */

  /* get A & B signals (1 = open / 0 = closed) */
  Temp = ENCODER_PIN;
  if (Temp & (1 << ENCODER_A)) AB = 0b00000010;
  if (Temp & (1 << ENCODER_B)) AB |= 0b00000001;
    277c:	91 fd       	sbrc	r25, 1
    277e:	81 60       	ori	r24, 0x01	; 1

  /* restore port/pin settings */
  ENCODER_DDR = Old_AB;                 /* restore old settings */
    2780:	ca b9       	out	0x0a, r28	; 10

  /* update state history */
  if (UI.EncDir == DIR_RESET)           /* first scan */
    2782:	90 91 37 01 	lds	r25, 0x0137	; 0x800137 <UI+0x11>
    2786:	91 30       	cpi	r25, 0x01	; 1
    2788:	31 f4       	brne	.+12     	; 0x2796 <ReadEncoder+0x34>
  {
    UI.EncState = AB;                   /* set as last state */
    278a:	80 93 36 01 	sts	0x0136, r24	; 0x800136 <UI+0x10>
    UI.EncDir = DIR_NONE;               /* reset direction */
    278e:	10 92 37 01 	sts	0x0137, r1	; 0x800137 <UI+0x11>
    UI.EncTicks = 0;                    /* reset time counter */
    2792:	10 92 39 01 	sts	0x0139, r1	; 0x800139 <UI+0x13>
  }

  /* time counter */
  if (UI.EncTicks > 0)        /* after first pulse */
    2796:	90 91 39 01 	lds	r25, 0x0139	; 0x800139 <UI+0x13>
    279a:	2f ef       	ldi	r18, 0xFF	; 255
    279c:	29 0f       	add	r18, r25
    279e:	29 3f       	cpi	r18, 0xF9	; 249
    27a0:	18 f4       	brcc	.+6      	; 0x27a8 <ReadEncoder+0x46>
  {
    if (UI.EncTicks < 250)    /* prevent overflow */
    {
      UI.EncTicks++;          /* increase counter */
    27a2:	9f 5f       	subi	r25, 0xFF	; 255
    27a4:	90 93 39 01 	sts	0x0139, r25	; 0x800139 <UI+0x13>
    }
  }

  Old_AB = UI.EncState;                 /* save last state */
    27a8:	90 91 36 01 	lds	r25, 0x0136	; 0x800136 <UI+0x10>
  UI.EncState = AB;                     /* and save new state */
    27ac:	80 93 36 01 	sts	0x0136, r24	; 0x800136 <UI+0x10>

  /* process signals */
  if (Old_AB != AB)        /* signals changed */
    27b0:	89 17       	cp	r24, r25
    27b2:	71 f1       	breq	.+92     	; 0x2810 <ReadEncoder+0xae>
  {
    /* check if only one bit has changed (Gray code) */
    Temp = AB ^ Old_AB;                 /* get bit difference */
    27b4:	28 2f       	mov	r18, r24
    27b6:	29 27       	eor	r18, r25
    if (!(Temp & 0b00000001))           /* B hasn't changed */
    27b8:	20 ff       	sbrs	r18, 0
    {
      Temp >>= 1;                       /* shift right to get A */
    27ba:	26 95       	lsr	r18
    }

    if (Temp == 1)                      /* valid change */
    27bc:	21 30       	cpi	r18, 0x01	; 1
    27be:	29 f5       	brne	.+74     	; 0x280a <ReadEncoder+0xa8>
       *  - left turn (CCW):
       *    Gray code for AB: 00-01-11-10 -> check sequence 10001101
       */

      Temp = 0b01110010;                /* expected values for a right turn */
      Temp >>= (Old_AB * 2);            /* get expected value by shifting */
    27c0:	99 0f       	add	r25, r25
    27c2:	22 e7       	ldi	r18, 0x72	; 114
    27c4:	30 e0       	ldi	r19, 0x00	; 0
    27c6:	02 c0       	rjmp	.+4      	; 0x27cc <ReadEncoder+0x6a>
    27c8:	35 95       	asr	r19
    27ca:	27 95       	ror	r18
    27cc:	9a 95       	dec	r25
    27ce:	e2 f7       	brpl	.-8      	; 0x27c8 <ReadEncoder+0x66>
      Temp &= 0b00000011;               /* select value */
      if (Temp == AB)                   /* value matches */
    27d0:	23 70       	andi	r18, 0x03	; 3
    27d2:	82 17       	cp	r24, r18
    27d4:	11 f0       	breq	.+4      	; 0x27da <ReadEncoder+0x78>
        Temp = KEY_RIGHT;               /* turn to the right */
      else                              /* value mismatches */
        Temp = KEY_LEFT;                /* turn to the left */
    27d6:	85 e0       	ldi	r24, 0x05	; 5
    27d8:	01 c0       	rjmp	.+2      	; 0x27dc <ReadEncoder+0x7a>

      Temp = 0b01110010;                /* expected values for a right turn */
      Temp >>= (Old_AB * 2);            /* get expected value by shifting */
      Temp &= 0b00000011;               /* select value */
      if (Temp == AB)                   /* value matches */
        Temp = KEY_RIGHT;               /* turn to the right */
    27da:	84 e0       	ldi	r24, 0x04	; 4
      else                              /* value mismatches */
        Temp = KEY_LEFT;                /* turn to the left */

      /* step/detent logic */
      UI.EncPulses++;                   /* got a new pulse */
    27dc:	90 91 38 01 	lds	r25, 0x0138	; 0x800138 <UI+0x12>
    27e0:	9f 5f       	subi	r25, 0xFF	; 255
    27e2:	90 93 38 01 	sts	0x0138, r25	; 0x800138 <UI+0x12>

      if (Temp != UI.EncDir)            /* direction has changed */
    27e6:	90 91 37 01 	lds	r25, 0x0137	; 0x800137 <UI+0x11>
    27ea:	89 17       	cp	r24, r25
    27ec:	29 f0       	breq	.+10     	; 0x27f8 <ReadEncoder+0x96>
      {     
        UI.EncPulses = 1;               /* first pulse for new direction */
    27ee:	91 e0       	ldi	r25, 0x01	; 1
    27f0:	90 93 38 01 	sts	0x0138, r25	; 0x800138 <UI+0x12>
        UI.EncTicks = 1;                /* enable time counter */
    27f4:	90 93 39 01 	sts	0x0139, r25	; 0x800139 <UI+0x13>
      }

      UI.EncDir = Temp;                 /* update direction */
    27f8:	80 93 37 01 	sts	0x0137, r24	; 0x800137 <UI+0x11>

      if (UI.EncPulses >= ENCODER_PULSES)    /* reached step */
    27fc:	90 91 38 01 	lds	r25, 0x0138	; 0x800138 <UI+0x12>
    2800:	94 30       	cpi	r25, 0x04	; 4
    2802:	30 f0       	brcs	.+12     	; 0x2810 <ReadEncoder+0xae>
      {
        UI.EncPulses = 0;               /* reset pulses */
    2804:	10 92 38 01 	sts	0x0138, r1	; 0x800138 <UI+0x12>
    2808:	04 c0       	rjmp	.+8      	; 0x2812 <ReadEncoder+0xb0>
        Key = Temp;                     /* signal valid step */
      }
    }
    else                                /* invalid change */
    {
      UI.EncDir = DIR_RESET;            /* reset direction state */
    280a:	81 e0       	ldi	r24, 0x01	; 1
    280c:	80 93 37 01 	sts	0x0137, r24	; 0x800137 <UI+0x11>
 *  - KEY_LEFT for left/counter-clockwise turn
 */

uint8_t ReadEncoder(void)
{
  uint8_t           Key = KEY_NONE;     /* return value */
    2810:	80 e0       	ldi	r24, 0x00	; 0
      UI.EncDir = DIR_RESET;            /* reset direction state */
    }
  }

  return Key;
}
    2812:	cf 91       	pop	r28
    2814:	08 95       	ret

00002816 <TestKey>:
 *  - KEY_POWER_OFF   power off requested
 *  The turning velocity (speed-up) is returned via UI.KeyStep (1-7).
 */

uint8_t TestKey(uint16_t Timeout, uint8_t Mode)
{
    2816:	a0 e0       	ldi	r26, 0x00	; 0
    2818:	b0 e0       	ldi	r27, 0x00	; 0
    281a:	e1 e1       	ldi	r30, 0x11	; 17
    281c:	f4 e1       	ldi	r31, 0x14	; 20
    281e:	0c 94 19 3f 	jmp	0x7e32	; 0x7e32 <__prologue_saves__+0x4>
    2822:	6c 01       	movw	r12, r24
    2824:	d6 2f       	mov	r29, r22
    #define DELAY_100    20        /* ticks for 100ms */
  #endif

  #ifdef HW_ENCODER
  /* init variables for rotary encoder */
  UI.EncDir = DIR_RESET;      /* resets also UI.EncState and .EncTicks */
    2826:	81 e0       	ldi	r24, 0x01	; 1
    2828:	80 93 37 01 	sts	0x0137, r24	; 0x800137 <UI+0x11>
  UI.EncPulses = 0;
    282c:	10 92 38 01 	sts	0x0138, r1	; 0x800138 <UI+0x12>
  Timeout2 = 50;
  #endif

  #ifdef HW_KEYS
  /* init variables for additional keys */ 
  UI.KeyStep = 1;             /* default level #1 */
    2830:	80 93 34 01 	sts	0x0134, r24	; 0x800134 <UI+0xe>
  #endif

  #ifdef POWER_OFF_TIMEOUT
  /* init power-off timeout */
  if (Cfg.OP_Control & OP_PWR_TIMEOUT)  /* power-off timeout enabled */
    2834:	80 91 a1 01 	lds	r24, 0x01A1	; 0x8001a1 <Cfg+0x1>
    2838:	85 ff       	sbrs	r24, 5
    283a:	04 c0       	rjmp	.+8      	; 0x2844 <TestKey+0x2e>
  {
    PwrTimeout = POWER_OFF_TIMEOUT * 2;      /* in 500ms */
    283c:	60 e5       	ldi	r22, 0x50	; 80
    283e:	e6 2e       	mov	r14, r22
    2840:	f1 2c       	mov	r15, r1
    2842:	02 c0       	rjmp	.+4      	; 0x2848 <TestKey+0x32>
  uint8_t           Steps = 0;          /* step counter */
  uint8_t           MinSteps = 2;       /* required steps */
  uint16_t          Temp;               /* temp value */
  #endif
  #ifdef POWER_OFF_TIMEOUT
  uint16_t          PwrTimeout = 0;     /* timeout for auto power-off (auto-hold mode) */
    2844:	e1 2c       	mov	r14, r1
    2846:	f1 2c       	mov	r15, r1
  {
    PwrTimeout = POWER_OFF_TIMEOUT * 2;      /* in 500ms */
  }
  #endif

  if (Mode & CHECK_OP_MODE)        /* consider operation mode */
    2848:	d2 ff       	sbrs	r29, 2
    284a:	08 c0       	rjmp	.+16     	; 0x285c <TestKey+0x46>
  {
    if (Cfg.OP_Mode & OP_AUTOHOLD)      /* in auto-hold mode */
    284c:	80 91 a0 01 	lds	r24, 0x01A0	; 0x8001a0 <Cfg>
    2850:	80 fd       	sbrc	r24, 0
    2852:	02 c0       	rjmp	.+4      	; 0x2858 <TestKey+0x42>
      Timeout = 0;                 /* disable timeout */
                                   /* and keep cursor mode */
    }
    else                                /* in continuous mode */
    {
      Mode &= ~(CURSOR_STEADY | CURSOR_BLINK);    /* clear all cursor flags */
    2854:	dc 7f       	andi	r29, 0xFC	; 252
    2856:	02 c0       	rjmp	.+4      	; 0x285c <TestKey+0x46>

  if (Mode & CHECK_OP_MODE)        /* consider operation mode */
  {
    if (Cfg.OP_Mode & OP_AUTOHOLD)      /* in auto-hold mode */
    {
      Timeout = 0;                 /* disable timeout */
    2858:	c1 2c       	mov	r12, r1
    285a:	d1 2c       	mov	r13, r1
                                   /* and keep timeout */
    }
  }

  #ifdef UI_KEY_HINTS
  if (Mode & CURSOR_TEXT)          /* show key hint */
    285c:	d5 ff       	sbrs	r29, 5
    285e:	19 c0       	rjmp	.+50     	; 0x2892 <TestKey+0x7c>
  {
    Test = EEStringLength(UI.KeyHint);       /* length of string */
    2860:	80 91 3a 01 	lds	r24, 0x013A	; 0x80013a <UI+0x14>
    2864:	90 91 3b 01 	lds	r25, 0x013B	; 0x80013b <UI+0x15>
    2868:	0e 94 9c 13 	call	0x2738	; 0x2738 <EEStringLength>
    Test--;                                  /* adjust to X addressing */
    286c:	81 50       	subi	r24, 0x01	; 1

    if (UI.CharMax_X > Test)                 /* sanity check */
    286e:	b0 90 29 01 	lds	r11, 0x0129	; 0x800129 <UI+0x3>
    2872:	8b 15       	cp	r24, r11
    2874:	70 f4       	brcc	.+28     	; 0x2892 <TestKey+0x7c>
    {
      Pos = UI.CharMax_X - Test;             /* text position */
    2876:	b8 1a       	sub	r11, r24

      /* disable cursor */
      Mode &= ~(CURSOR_STEADY | CURSOR_BLINK);    /* clear all cursor flags */
    2878:	dc 7f       	andi	r29, 0xFC	; 252

      /* display key hint at bottom right */
      LCD_CharPos(Pos, UI.CharMax_Y);        /* set start position */
    287a:	60 91 2a 01 	lds	r22, 0x012A	; 0x80012a <UI+0x4>
    287e:	8b 2d       	mov	r24, r11
    2880:	0e 94 9f 3a 	call	0x753e	; 0x753e <LCD_CharPos>
      Display_EEString(UI.KeyHint);          /* display hint */
    2884:	80 91 3a 01 	lds	r24, 0x013A	; 0x80013a <UI+0x14>
    2888:	90 91 3b 01 	lds	r25, 0x013B	; 0x80013b <UI+0x15>
    288c:	0e 94 43 20 	call	0x4086	; 0x4086 <Display_EEString>
    2890:	01 c0       	rjmp	.+2      	; 0x2894 <TestKey+0x7e>
  #endif
  #ifdef POWER_OFF_TIMEOUT
  uint16_t          PwrTimeout = 0;     /* timeout for auto power-off (auto-hold mode) */
  #endif
  #ifdef UI_KEY_HINTS
  uint8_t           Pos = 0;            /* X position for text */
    2892:	b1 2c       	mov	r11, r1
    2894:	2d 2f       	mov	r18, r29
    2896:	23 70       	andi	r18, 0x03	; 3
    2898:	82 2e       	mov	r8, r18
      Display_EEString(UI.KeyHint);          /* display hint */
    }
  }
  #endif

  if (Mode & (CURSOR_STEADY | CURSOR_BLINK))  /* cursor enabled */
    289a:	19 f0       	breq	.+6      	; 0x28a2 <TestKey+0x8c>
  {
    LCD_Cursor(1);            /* enable cursor on display */
    289c:	81 e0       	ldi	r24, 0x01	; 1
    289e:	0e 94 fc 3b 	call	0x77f8	; 0x77f8 <LCD_Cursor>
  #endif
  #ifdef POWER_OFF_TIMEOUT
  uint16_t          PwrTimeout = 0;     /* timeout for auto power-off (auto-hold mode) */
  #endif
  #ifdef UI_KEY_HINTS
  uint8_t           Pos = 0;            /* X position for text */
    28a2:	32 e0       	ldi	r19, 0x02	; 2
    28a4:	73 2e       	mov	r7, r19
    28a6:	a1 2c       	mov	r10, r1
    28a8:	42 e3       	ldi	r20, 0x32	; 50
    28aa:	94 2e       	mov	r9, r20
    28ac:	c0 e0       	ldi	r28, 0x00	; 0
    28ae:	01 e0       	ldi	r16, 0x01	; 1
    28b0:	10 e0       	ldi	r17, 0x00	; 0
      /*
       *  100ms timer
       *  - for battery monitoring
       */

      if (Ticks % DELAY_100 == 0)       /* every 100ms */
    28b2:	58 e2       	ldi	r21, 0x28	; 40
    28b4:	65 2e       	mov	r6, r21
      if (Ticks == DELAY_500)           /* every 500ms */
      {
        Ticks = 0;                      /* reset counter */

        /* blinking cursor */
        if (Mode & CURSOR_BLINK)        /* blinking cursor enabled */
    28b6:	8d 2f       	mov	r24, r29
    28b8:	82 70       	andi	r24, 0x02	; 2
    28ba:	58 2e       	mov	r5, r24
        {
          Cfg.BatTimer--;               /* decrease timeout counter */
        }
        else                            /* timeout triggered */
        {
          if (Mode & CHECK_BAT)         /* battery check requested */
    28bc:	2d 2f       	mov	r18, r29
    28be:	20 71       	andi	r18, 0x10	; 16
    28c0:	42 2e       	mov	r4, r18
      else                              /* short (< 300ms) */
      {
        Key = KEY_SHORT;                /* signal short key press */

        /* check for second key press if requested */
        if (Mode & CHECK_KEY_TWICE)
    28c2:	d8 70       	andi	r29, 0x08	; 8
   */
 
  while (Run)
  {
    /* take care about feedback timeout */
    if (Timeout > 0)               /* timeout enabled */
    28c4:	c1 14       	cp	r12, r1
    28c6:	d1 04       	cpc	r13, r1
    28c8:	49 f0       	breq	.+18     	; 0x28dc <TestKey+0xc6>
    {
      if (Timeout > DELAY_TICK)    /* some time left */
    28ca:	83 e0       	ldi	r24, 0x03	; 3
    28cc:	c8 16       	cp	r12, r24
    28ce:	d1 04       	cpc	r13, r1
    28d0:	20 f0       	brcs	.+8      	; 0x28da <TestKey+0xc4>
      {
        Timeout -= DELAY_TICK;     /* decrease timeout */
    28d2:	22 e0       	ldi	r18, 0x02	; 2
    28d4:	c2 1a       	sub	r12, r18
    28d6:	d1 08       	sbc	r13, r1
    28d8:	01 c0       	rjmp	.+2      	; 0x28dc <TestKey+0xc6>
      }
      else                         /* timeout */
      {
        Run = 0;                   /* end loop */
    28da:	00 e0       	ldi	r16, 0x00	; 0
     *  - push button is low active
     */

    Test = BUTTON_PIN & (1 << TEST_BUTTON);  /* get button status */

    if (Test == 0)            /* test button pressed */
    28dc:	4f 99       	sbic	0x09, 7	; 9
    28de:	35 c0       	rjmp	.+106    	; 0x294a <TestKey+0x134>
    {
      Ticks = 0;              /* reset counter */
      MilliSleep(30);         /* time to debounce */
    28e0:	8e e1       	ldi	r24, 0x1E	; 30
    28e2:	90 e0       	ldi	r25, 0x00	; 0
    28e4:	0e 94 2e 17 	call	0x2e5c	; 0x2e5c <MilliSleep>

    Test = BUTTON_PIN & (1 << TEST_BUTTON);  /* get button status */

    if (Test == 0)            /* test button pressed */
    {
      Ticks = 0;              /* reset counter */
    28e8:	c0 e0       	ldi	r28, 0x00	; 0
      MilliSleep(30);         /* time to debounce */

      while (Run)             /* detect how long key is pressed */
    28ea:	00 23       	and	r16, r16
    28ec:	11 f0       	breq	.+4      	; 0x28f2 <TestKey+0xdc>
      {
        Test = BUTTON_PIN & (1 << TEST_BUTTON);   /* get button status */

        if (Test == 0)        /* key still pressed */
    28ee:	4f 9b       	sbis	0x09, 7	; 9
    28f0:	04 c0       	rjmp	.+8      	; 0x28fa <TestKey+0xe4>
          Run = 0;                      /* end loop */
        }
      }

      /* determine key press type */
      if (Ticks > 26)                   /* long (>= 300ms) */
    28f2:	cb 31       	cpi	r28, 0x1B	; 27
    28f4:	08 f0       	brcs	.+2      	; 0x28f8 <TestKey+0xe2>
    28f6:	8e c0       	rjmp	.+284    	; 0x2a14 <TestKey+0x1fe>
    28f8:	08 c0       	rjmp	.+16     	; 0x290a <TestKey+0xf4>
      {
        Test = BUTTON_PIN & (1 << TEST_BUTTON);   /* get button status */

        if (Test == 0)        /* key still pressed */
        {
          Ticks++;                      /* increase counter */
    28fa:	cf 5f       	subi	r28, 0xFF	; 255
          if (Ticks > 26) Run = 0;      /* end loop if 300ms are reached */
    28fc:	cb 31       	cpi	r28, 0x1B	; 27
    28fe:	c8 f7       	brcc	.-14     	; 0x28f2 <TestKey+0xdc>
          else MilliSleep(10);          /* otherwise wait 10ms */
    2900:	8a e0       	ldi	r24, 0x0A	; 10
    2902:	90 e0       	ldi	r25, 0x00	; 0
    2904:	0e 94 2e 17 	call	0x2e5c	; 0x2e5c <MilliSleep>
    2908:	f0 cf       	rjmp	.-32     	; 0x28ea <TestKey+0xd4>
      else                              /* short (< 300ms) */
      {
        Key = KEY_SHORT;                /* signal short key press */

        /* check for second key press if requested */
        if (Mode & CHECK_KEY_TWICE)
    290a:	dd 23       	and	r29, r29
    290c:	09 f4       	brne	.+2      	; 0x2910 <TestKey+0xfa>
    290e:	85 c0       	rjmp	.+266    	; 0x2a1a <TestKey+0x204>
        {
          MilliSleep(50);               /* delay for checking key again */
    2910:	82 e3       	ldi	r24, 0x32	; 50
    2912:	90 e0       	ldi	r25, 0x00	; 0
    2914:	0e 94 2e 17 	call	0x2e5c	; 0x2e5c <MilliSleep>
          Ticks = 20;                   /* timeout of 200ms */
    2918:	c4 e1       	ldi	r28, 0x14	; 20
      {
        Key = KEY_LONG;                 /* signal long key press */
      }
      else                              /* short (< 300ms) */
      {
        Key = KEY_SHORT;                /* signal short key press */
    291a:	11 e0       	ldi	r17, 0x01	; 1
 
          while (Ticks > 0)             /* timeout loop */
          {
            Test = BUTTON_PIN & (1 << TEST_BUTTON);    /* get button status */         

            if (Test == 0)                             /* test button pressed */
    291c:	4f 99       	sbic	0x09, 7	; 9
    291e:	0c c0       	rjmp	.+24     	; 0x2938 <TestKey+0x122>
            {
              MilliSleep(30);                          /* time to debounce */
    2920:	8e e1       	ldi	r24, 0x1E	; 30
    2922:	90 e0       	ldi	r25, 0x00	; 0
    2924:	0e 94 2e 17 	call	0x2e5c	; 0x2e5c <MilliSleep>
              Test = BUTTON_PIN & (1 << TEST_BUTTON);  /* get button status */

              if (Test == 0)                           /* test button still pressed */
    2928:	4f 99       	sbic	0x09, 7	; 9
    292a:	06 c0       	rjmp	.+12     	; 0x2938 <TestKey+0x122>
              {
                Ticks = 1;                             /* end loop */
                Key = KEY_TWICE;                       /* signal two key presses */
                MilliSleep(200);                       /* smooth UI */
    292c:	88 ec       	ldi	r24, 0xC8	; 200
    292e:	90 e0       	ldi	r25, 0x00	; 0
    2930:	0e 94 2e 17 	call	0x2e5c	; 0x2e5c <MilliSleep>
              MilliSleep(30);                          /* time to debounce */
              Test = BUTTON_PIN & (1 << TEST_BUTTON);  /* get button status */

              if (Test == 0)                           /* test button still pressed */
              {
                Ticks = 1;                             /* end loop */
    2934:	c1 e0       	ldi	r28, 0x01	; 1
                Key = KEY_TWICE;                       /* signal two key presses */
    2936:	13 e0       	ldi	r17, 0x03	; 3
                MilliSleep(200);                       /* smooth UI */
              }
            }

            Ticks--;                                   /* decrease timeout */
    2938:	c1 50       	subi	r28, 0x01	; 1
            MilliSleep(10);                            /* wait 10ms */
    293a:	8a e0       	ldi	r24, 0x0A	; 10
    293c:	90 e0       	ldi	r25, 0x00	; 0
    293e:	0e 94 2e 17 	call	0x2e5c	; 0x2e5c <MilliSleep>
        if (Mode & CHECK_KEY_TWICE)
        {
          MilliSleep(50);               /* delay for checking key again */
          Ticks = 20;                   /* timeout of 200ms */
 
          while (Ticks > 0)             /* timeout loop */
    2942:	c1 11       	cpse	r28, r1
    2944:	eb cf       	rjmp	.-42     	; 0x291c <TestKey+0x106>
    2946:	00 e0       	ldi	r16, 0x00	; 0
    2948:	70 c0       	rjmp	.+224    	; 0x2a2a <TestKey+0x214>
      /*
       *  rotary encoder
       */

      #ifdef HW_ENCODER
      Test = ReadEncoder();        /* read rotary encoder */
    294a:	0e 94 b1 13 	call	0x2762	; 0x2762 <ReadEncoder>

      if (Test)                    /* got user input */
    294e:	88 23       	and	r24, r24
    2950:	51 f1       	breq	.+84     	; 0x29a6 <TestKey+0x190>
      {
        if (Steps == 0)            /* first step */
    2952:	aa 20       	and	r10, r10
    2954:	19 f0       	breq	.+6      	; 0x295c <TestKey+0x146>
        {
          Key = Test;              /* save direction */
        }

        if (Test == Key)           /* step in same direction */
    2956:	81 17       	cp	r24, r17
    2958:	11 f0       	breq	.+4      	; 0x295e <TestKey+0x148>
    295a:	73 c0       	rjmp	.+230    	; 0x2a42 <TestKey+0x22c>
    295c:	18 2f       	mov	r17, r24
        {
          Steps++;                 /* increase counter */
    295e:	a3 94       	inc	r10

          /* calculate turning velocity */
          Test = UI.EncTicks / Steps;        /* ticks per step */
    2960:	80 91 39 01 	lds	r24, 0x0139	; 0x800139 <UI+0x13>
    2964:	6a 2d       	mov	r22, r10
    2966:	0e 94 6d 3e 	call	0x7cda	; 0x7cda <__udivmodqi4>
    296a:	9c e0       	ldi	r25, 0x0C	; 12
    296c:	99 0d       	add	r25, r9
          Timeout2 += Test;                  /* add to timeout */
          Timeout2 += 3 * ENCODER_PULSES;    /* add some buffer */
    296e:	98 2e       	mov	r9, r24
    2970:	99 0e       	add	r9, r25
          /* adjustment for steps/360: *(steps/16) */
          Temp = Test * ENCODER_STEPS;
    2972:	28 e1       	ldi	r18, 0x18	; 24
    2974:	82 9f       	mul	r24, r18
    2976:	c0 01       	movw	r24, r0
    2978:	11 24       	eor	r1, r1
          Temp /= 16;
          Test = (uint8_t)Temp;
    297a:	24 e0       	ldi	r18, 0x04	; 4
    297c:	96 95       	lsr	r25
    297e:	87 95       	ror	r24
    2980:	2a 95       	dec	r18
    2982:	e1 f7       	brne	.-8      	; 0x297c <TestKey+0x166>
    2984:	89 32       	cpi	r24, 0x29	; 41
    2986:	08 f0       	brcs	.+2      	; 0x298a <TestKey+0x174>
    2988:	88 e2       	ldi	r24, 0x28	; 40
          /* velocity levels: 0 (fast) - 5 (slow) */
          if (Test > 40) Test = 40;          /* limit ticks */
          Test /= 8;                         /* get velocity level (0-5) */
    298a:	86 95       	lsr	r24
    298c:	86 95       	lsr	r24
    298e:	86 95       	lsr	r24
          /* require 3 steps for high velocities */
          if (Test <= 2) MinSteps = 3;
    2990:	83 30       	cpi	r24, 0x03	; 3
    2992:	10 f4       	brcc	.+4      	; 0x2998 <TestKey+0x182>
    2994:	93 e0       	ldi	r25, 0x03	; 3
    2996:	79 2e       	mov	r7, r25

          if (Steps == MinSteps)        /* got required steps */
    2998:	7a 10       	cpse	r7, r10
    299a:	05 c0       	rjmp	.+10     	; 0x29a6 <TestKey+0x190>
          {
            /* reverse velocity level: 2 (slow) - 7 (fast) */
            UI.KeyStep = 7 - Test;      /* velocity level (2-7) */
    299c:	97 e0       	ldi	r25, 0x07	; 7
    299e:	98 1b       	sub	r25, r24
    29a0:	90 93 34 01 	sts	0x0134, r25	; 0x800134 <UI+0xe>
            break;                      /* exit loop */
    29a4:	4e c0       	rjmp	.+156    	; 0x2a42 <TestKey+0x22c>
          /* keep last direction and velocity level #1 */
          break;                   /* exit loop */
        }
      }

      if (Steps)                   /* after first step */
    29a6:	aa 20       	and	r10, r10
    29a8:	29 f0       	breq	.+10     	; 0x29b4 <TestKey+0x19e>
      {
        if (UI.EncTicks >= Timeout2)    /* timeout for velocity detection */
    29aa:	80 91 39 01 	lds	r24, 0x0139	; 0x800139 <UI+0x13>
    29ae:	89 15       	cp	r24, r9
    29b0:	08 f0       	brcs	.+2      	; 0x29b4 <TestKey+0x19e>
    29b2:	47 c0       	rjmp	.+142    	; 0x2a42 <TestKey+0x22c>
      /*
       *  timing
       */

      /* delay for next loop run */
      MilliSleep(DELAY_TICK);           /* wait a little bit */
    29b4:	82 e0       	ldi	r24, 0x02	; 2
    29b6:	90 e0       	ldi	r25, 0x00	; 0
    29b8:	0e 94 2e 17 	call	0x2e5c	; 0x2e5c <MilliSleep>

      Ticks++;                          /* increase counter */
    29bc:	cf 5f       	subi	r28, 0xFF	; 255
      /*
       *  100ms timer
       *  - for battery monitoring
       */

      if (Ticks % DELAY_100 == 0)       /* every 100ms */
    29be:	8c 2f       	mov	r24, r28
    29c0:	66 2d       	mov	r22, r6
    29c2:	0e 94 6d 3e 	call	0x7cda	; 0x7cda <__udivmodqi4>
    29c6:	91 11       	cpse	r25, r1
    29c8:	0b c0       	rjmp	.+22     	; 0x29e0 <TestKey+0x1ca>
      {
        if (Cfg.BatTimer > 1)           /* timeout not zero yet */
    29ca:	80 91 ac 01 	lds	r24, 0x01AC	; 0x8001ac <Cfg+0xc>
    29ce:	82 30       	cpi	r24, 0x02	; 2
    29d0:	20 f0       	brcs	.+8      	; 0x29da <TestKey+0x1c4>
        {
          Cfg.BatTimer--;               /* decrease timeout counter */
    29d2:	81 50       	subi	r24, 0x01	; 1
    29d4:	80 93 ac 01 	sts	0x01AC, r24	; 0x8001ac <Cfg+0xc>
    29d8:	03 c0       	rjmp	.+6      	; 0x29e0 <TestKey+0x1ca>
        }
        else                            /* timeout triggered */
        {
          if (Mode & CHECK_BAT)         /* battery check requested */
    29da:	41 10       	cpse	r4, r1
          {
            CheckBattery();             /* check battery */
    29dc:	0e 94 b9 12 	call	0x2572	; 0x2572 <CheckBattery>
       *  - for blinking cursor
       *    HD44780's built-in blinking cursor is ugly anyway :)
       *  - also for optional auto power-off
       */

      if (Ticks == DELAY_500)           /* every 500ms */
    29e0:	c8 3c       	cpi	r28, 0xC8	; 200
    29e2:	19 f5       	brne	.+70     	; 0x2a2a <TestKey+0x214>
      {
        Ticks = 0;                      /* reset counter */

        /* blinking cursor */
        if (Mode & CURSOR_BLINK)        /* blinking cursor enabled */
    29e4:	55 20       	and	r5, r5
    29e6:	59 f0       	breq	.+22     	; 0x29fe <TestKey+0x1e8>
        {
          /* we misuse Run as toggle switch */
          if (Run == 1)                 /* turn off */
    29e8:	01 30       	cpi	r16, 0x01	; 1
    29ea:	29 f4       	brne	.+10     	; 0x29f6 <TestKey+0x1e0>
          {
            LCD_Cursor(0);              /* disable cursor */
    29ec:	80 e0       	ldi	r24, 0x00	; 0
    29ee:	0e 94 fc 3b 	call	0x77f8	; 0x77f8 <LCD_Cursor>
            Run = 2;                    /* toggle flag */
    29f2:	02 e0       	ldi	r16, 0x02	; 2
    29f4:	04 c0       	rjmp	.+8      	; 0x29fe <TestKey+0x1e8>
          }
          else                          /* turn on */
          {
            LCD_Cursor(1);              /* enable cursor */
    29f6:	81 e0       	ldi	r24, 0x01	; 1
    29f8:	0e 94 fc 3b 	call	0x77f8	; 0x77f8 <LCD_Cursor>
            Run = 1;                    /* toggle flag */
    29fc:	01 e0       	ldi	r16, 0x01	; 1
          }
        }

        #ifdef POWER_OFF_TIMEOUT
        /* automatic power-off */
        if (PwrTimeout > 0)             /* power-off timeout enabled */
    29fe:	e1 14       	cp	r14, r1
    2a00:	f1 04       	cpc	r15, r1
    2a02:	71 f0       	breq	.+28     	; 0x2a20 <TestKey+0x20a>
        {
          if (PwrTimeout > 1)           /* some time left */
    2a04:	81 e0       	ldi	r24, 0x01	; 1
    2a06:	e8 16       	cp	r14, r24
    2a08:	f1 04       	cpc	r15, r1
    2a0a:	61 f0       	breq	.+24     	; 0x2a24 <TestKey+0x20e>
          {
            PwrTimeout--;               /* decrease counter */
    2a0c:	21 e0       	ldi	r18, 0x01	; 1
    2a0e:	e2 1a       	sub	r14, r18
    2a10:	f1 08       	sbc	r15, r1
    2a12:	06 c0       	rjmp	.+12     	; 0x2a20 <TestKey+0x20a>
    2a14:	00 e0       	ldi	r16, 0x00	; 0
      }

      /* determine key press type */
      if (Ticks > 26)                   /* long (>= 300ms) */
      {
        Key = KEY_LONG;                 /* signal long key press */
    2a16:	12 e0       	ldi	r17, 0x02	; 2
    2a18:	08 c0       	rjmp	.+16     	; 0x2a2a <TestKey+0x214>
    2a1a:	00 e0       	ldi	r16, 0x00	; 0
      }
      else                              /* short (< 300ms) */
      {
        Key = KEY_SHORT;                /* signal short key press */
    2a1c:	11 e0       	ldi	r17, 0x01	; 1
    2a1e:	05 c0       	rjmp	.+10     	; 0x2a2a <TestKey+0x214>
       *  - also for optional auto power-off
       */

      if (Ticks == DELAY_500)           /* every 500ms */
      {
        Ticks = 0;                      /* reset counter */
    2a20:	c0 e0       	ldi	r28, 0x00	; 0
    2a22:	03 c0       	rjmp	.+6      	; 0x2a2a <TestKey+0x214>
    2a24:	c0 e0       	ldi	r28, 0x00	; 0
            PwrTimeout--;               /* decrease counter */
          }
          else                          /* timeout */
          {
            Key = KEY_POWER_OFF;        /* signal power-off */
            Run = 0;                    /* exit loop */
    2a26:	00 e0       	ldi	r16, 0x00	; 0
          {
            PwrTimeout--;               /* decrease counter */
          }
          else                          /* timeout */
          {
            Key = KEY_POWER_OFF;        /* signal power-off */
    2a28:	17 e6       	ldi	r17, 0x67	; 103
        #endif
      }
    }

    /* check if we should exit anyway */
    if (Cfg.OP_Control & OP_BREAK_KEY)  /* got break signal */
    2a2a:	80 91 a1 01 	lds	r24, 0x01A1	; 0x8001a1 <Cfg+0x1>
    2a2e:	80 ff       	sbrs	r24, 0
    2a30:	06 c0       	rjmp	.+12     	; 0x2a3e <TestKey+0x228>
    {
      Cfg.OP_Control &= ~OP_BREAK_KEY;  /* clear break signal */
    2a32:	80 91 a1 01 	lds	r24, 0x01A1	; 0x8001a1 <Cfg+0x1>
    2a36:	8e 7f       	andi	r24, 0xFE	; 254
    2a38:	80 93 a1 01 	sts	0x01A1, r24	; 0x8001a1 <Cfg+0x1>
      break;                            /* exit loop */
    2a3c:	02 c0       	rjmp	.+4      	; 0x2a42 <TestKey+0x22c>

  /*
   *  wait for user feedback or timeout
   */
 
  while (Run)
    2a3e:	01 11       	cpse	r16, r1
    2a40:	41 cf       	rjmp	.-382    	; 0x28c4 <TestKey+0xae>

  /*
   *  clean up
   */

  if (Mode & (CURSOR_STEADY | CURSOR_BLINK))  /* cursor enabled */
    2a42:	88 20       	and	r8, r8
    2a44:	19 f0       	breq	.+6      	; 0x2a4c <TestKey+0x236>
  {
    LCD_Cursor(0);            /* disable cursor on display */
    2a46:	80 e0       	ldi	r24, 0x00	; 0
    2a48:	0e 94 fc 3b 	call	0x77f8	; 0x77f8 <LCD_Cursor>
  }

  #ifdef UI_KEY_HINTS
  if (Pos)                    /* show key hint */
    2a4c:	bb 20       	and	r11, r11
    2a4e:	41 f0       	breq	.+16     	; 0x2a60 <TestKey+0x24a>
  {
    /* clear key hint */
    LCD_CharPos(Pos, UI.CharMax_Y);     /* set start position */
    2a50:	60 91 2a 01 	lds	r22, 0x012A	; 0x80012a <UI+0x4>
    2a54:	8b 2d       	mov	r24, r11
    2a56:	0e 94 9f 3a 	call	0x753e	; 0x753e <LCD_CharPos>
    LCD_ClearLine(0);                   /* clear remaining space */
    2a5a:	80 e0       	ldi	r24, 0x00	; 0
    2a5c:	0e 94 ca 3a 	call	0x7594	; 0x7594 <LCD_ClearLine>
  }
  #endif

  #ifdef HW_KEYS
  UI.KeyOld = Key;            /* update former key */
    2a60:	10 93 33 01 	sts	0x0133, r17	; 0x800133 <UI+0xd>
  #endif

  #ifdef POWER_OFF_TIMEOUT
  /* automatic power-off */
  if (Key == KEY_POWER_OFF)   /* power-off triggered */
    2a64:	17 36       	cpi	r17, 0x67	; 103
    2a66:	11 f4       	brne	.+4      	; 0x2a6c <TestKey+0x256>
  {
    PowerOff();               /* power off */
    2a68:	0e 94 52 12 	call	0x24a4	; 0x24a4 <PowerOff>

  #undef DELAY_500
  #undef DELAY_TICK

  return Key;
}
    2a6c:	81 2f       	mov	r24, r17
    2a6e:	cd b7       	in	r28, 0x3d	; 61
    2a70:	de b7       	in	r29, 0x3e	; 62
    2a72:	e0 e1       	ldi	r30, 0x10	; 16
    2a74:	0c 94 35 3f 	jmp	0x7e6a	; 0x7e6a <__epilogue_restores__+0x4>

00002a78 <WaitKey>:
 */

void WaitKey(void)
{
  /* wait for key press or 3s timeout */
  TestKey(3000, CURSOR_STEADY | CHECK_OP_MODE | CHECK_BAT);
    2a78:	65 e1       	ldi	r22, 0x15	; 21
    2a7a:	88 eb       	ldi	r24, 0xB8	; 184
    2a7c:	9b e0       	ldi	r25, 0x0B	; 11
    2a7e:	0e 94 0b 14 	call	0x2816	; 0x2816 <TestKey>
    2a82:	08 95       	ret

00002a84 <SmoothLongKeyPress>:
 */

void SmoothLongKeyPress(void)
{
  /* wait until button is released */
  while (!(BUTTON_PIN & (1 << TEST_BUTTON)))  /* as long as key is pressed */
    2a84:	4f 99       	sbic	0x09, 7	; 9
    2a86:	04 c0       	rjmp	.+8      	; 0x2a90 <SmoothLongKeyPress+0xc>
  {
    wait10ms();               /* wait a little bit */
    2a88:	0e 94 79 3c 	call	0x78f2	; 0x78f2 <wait10ms>
    wdt_reset();              /* reset watchdog */
    2a8c:	a8 95       	wdr
    2a8e:	fa cf       	rjmp	.-12     	; 0x2a84 <SmoothLongKeyPress>
  }

  MilliSleep(500);            /* smooth UI */
    2a90:	84 ef       	ldi	r24, 0xF4	; 244
    2a92:	91 e0       	ldi	r25, 0x01	; 1
    2a94:	0e 94 2e 17 	call	0x2e5c	; 0x2e5c <MilliSleep>
    2a98:	08 95       	ret

00002a9a <ShortCircuit>:
 *  - 0 on any problem
 *  - 1 on success
 */

uint8_t ShortCircuit(uint8_t Mode)
{
    2a9a:	0f 93       	push	r16
    2a9c:	1f 93       	push	r17
    2a9e:	cf 93       	push	r28
    2aa0:	df 93       	push	r29
    2aa2:	d8 2f       	mov	r29, r24
  uint8_t           Test;               /* test feedback */
  uint8_t           Comp;               /* expected result */
  unsigned char     *String;            /* display string pointer */

  /* init */
  if (Mode == 0)         /* remove short */
    2aa4:	88 23       	and	r24, r24
    2aa6:	21 f0       	breq	.+8      	; 0x2ab0 <ShortCircuit+0x16>
    String = (unsigned char *)Remove_str;    /* "remove" */
    Comp = 0;                                /* no shorted probe pairs */
  }
  else                   /* create short */
  {
    String = (unsigned char *)Create_str;    /* "create" */
    2aa8:	02 e8       	ldi	r16, 0x82	; 130
    2aaa:	12 e0       	ldi	r17, 0x02	; 2
    Comp = 3;                                /* 3 shorted probe pairs */
    2aac:	c3 e0       	ldi	r28, 0x03	; 3
    2aae:	03 c0       	rjmp	.+6      	; 0x2ab6 <ShortCircuit+0x1c>
  unsigned char     *String;            /* display string pointer */

  /* init */
  if (Mode == 0)         /* remove short */
  {
    String = (unsigned char *)Remove_str;    /* "remove" */
    2ab0:	09 e8       	ldi	r16, 0x89	; 137
    2ab2:	12 e0       	ldi	r17, 0x02	; 2
    Comp = 0;                                /* no shorted probe pairs */
    2ab4:	c0 e0       	ldi	r28, 0x00	; 0
    String = (unsigned char *)Create_str;    /* "create" */
    Comp = 3;                                /* 3 shorted probe pairs */
  } 

  /* check if already done */
  Test = ShortedProbes();               /* get current status */
    2ab6:	0e 94 d1 1c 	call	0x39a2	; 0x39a2 <ShortedProbes>

  if (Test == Comp)                     /* already done */
    2aba:	c8 17       	cp	r28, r24
    2abc:	f9 f0       	breq	.+62     	; 0x2afc <ShortCircuit+0x62>
    Flag = 1;                           /* skip loop */
  }
  else                                  /* not done yet */
  {
    /* tell user what to do */
    LCD_Clear();
    2abe:	0e 94 31 3b 	call	0x7662	; 0x7662 <LCD_Clear>
    Display_EEString(String);             /* display: Remove/Create */
    2ac2:	c8 01       	movw	r24, r16
    2ac4:	0e 94 43 20 	call	0x4086	; 0x4086 <Display_EEString>
    Display_NextLine();
    2ac8:	0e 94 0b 20 	call	0x4016	; 0x4016 <Display_NextLine>
    Display_EEString(ShortCircuit_str);   /* display: short circuit! */
    2acc:	83 e7       	ldi	r24, 0x73	; 115
    2ace:	92 e0       	ldi	r25, 0x02	; 2
    2ad0:	0e 94 43 20 	call	0x4086	; 0x4086 <Display_EEString>
  }  

  /* wait until all probes are dis/connected */
  while (Flag == 2)
  {
    Test = ShortedProbes();        /* check for shorted probes */
    2ad4:	0e 94 d1 1c 	call	0x39a2	; 0x39a2 <ShortedProbes>

    if (Test == Comp)              /* job done */
    2ad8:	c8 13       	cpse	r28, r24
    2ada:	05 c0       	rjmp	.+10     	; 0x2ae6 <ShortCircuit+0x4c>
    {
       Flag = 1;                   /* end loop */
       MilliSleep(200);            /* delay to smooth UI */
    2adc:	88 ec       	ldi	r24, 0xC8	; 200
    2ade:	90 e0       	ldi	r25, 0x00	; 0
    2ae0:	0e 94 2e 17 	call	0x2e5c	; 0x2e5c <MilliSleep>
    2ae4:	0b c0       	rjmp	.+22     	; 0x2afc <ShortCircuit+0x62>
    }
    else                           /* job not done yet */
    {
      /* wait 100ms or for any key press */
      Test = TestKey(100, CHECK_BAT);
    2ae6:	60 e1       	ldi	r22, 0x10	; 16
    2ae8:	84 e6       	ldi	r24, 0x64	; 100
    2aea:	90 e0       	ldi	r25, 0x00	; 0
    2aec:	0e 94 0b 14 	call	0x2816	; 0x2816 <TestKey>
      if (Mode == 1)                         /* short circuit expected */
    2af0:	d1 30       	cpi	r29, 0x01	; 1
    2af2:	81 f7       	brne	.-32     	; 0x2ad4 <ShortCircuit+0x3a>
      {
        if (Test > KEY_TIMEOUT) Flag = 0;    /* abort on key press */
    2af4:	88 23       	and	r24, r24
    2af6:	71 f3       	breq	.-36     	; 0x2ad4 <ShortCircuit+0x3a>
    2af8:	80 e0       	ldi	r24, 0x00	; 0
      }
    }
  }

  return Flag;
    2afa:	01 c0       	rjmp	.+2      	; 0x2afe <ShortCircuit+0x64>
  /* check if already done */
  Test = ShortedProbes();               /* get current status */

  if (Test == Comp)                     /* already done */
  {
    Flag = 1;                           /* skip loop */
    2afc:	81 e0       	ldi	r24, 0x01	; 1
      }
    }
  }

  return Flag;
}
    2afe:	df 91       	pop	r29
    2b00:	cf 91       	pop	r28
    2b02:	1f 91       	pop	r17
    2b04:	0f 91       	pop	r16
    2b06:	08 95       	ret

00002b08 <MarkItem>:
 *  - selected: selected item number (0-255)
 */

void MarkItem(uint8_t Item, uint8_t Selected)
{
  if (Selected == Item)       /* current item selected */
    2b08:	68 13       	cpse	r22, r24
    2b0a:	10 c0       	rjmp	.+32     	; 0x2b2c <MarkItem+0x24>
  {
    #ifdef LCD_COLOR
    UI.PenColor = COLOR_MARKER;    /* change color */
    2b0c:	80 ee       	ldi	r24, 0xE0	; 224
    2b0e:	9f ef       	ldi	r25, 0xFF	; 255
    2b10:	90 93 2d 01 	sts	0x012D, r25	; 0x80012d <UI+0x7>
    2b14:	80 93 2c 01 	sts	0x012C, r24	; 0x80012c <UI+0x6>
    #endif
    Display_Char('*');             /* display asterisk */
    2b18:	8a e2       	ldi	r24, 0x2A	; 42
    2b1a:	0e 94 8a 3b 	call	0x7714	; 0x7714 <LCD_Char>
    #ifdef LCD_COLOR
    UI.PenColor = COLOR_PEN;       /* reset color */
    2b1e:	80 ee       	ldi	r24, 0xE0	; 224
    2b20:	97 e0       	ldi	r25, 0x07	; 7
    2b22:	90 93 2d 01 	sts	0x012D, r25	; 0x80012d <UI+0x7>
    2b26:	80 93 2c 01 	sts	0x012C, r24	; 0x80012c <UI+0x6>
    2b2a:	08 95       	ret
    #endif
  }
  else                        /* current item not selected */
  {
    Display_Space();               /* display space */
    2b2c:	0e 94 6e 20 	call	0x40dc	; 0x40dc <Display_Space>
    2b30:	08 95       	ret

00002b32 <MenuTool>:
 *  returns:
 *  - ID of selected item
 */

uint8_t MenuTool(uint8_t Items, uint8_t Type, void *Menu[], unsigned char *Unit)
{
    2b32:	a0 e0       	ldi	r26, 0x00	; 0
    2b34:	b0 e0       	ldi	r27, 0x00	; 0
    2b36:	ef e9       	ldi	r30, 0x9F	; 159
    2b38:	f5 e1       	ldi	r31, 0x15	; 21
    2b3a:	0c 94 1a 3f 	jmp	0x7e34	; 0x7e34 <__prologue_saves__+0x6>
    2b3e:	76 2e       	mov	r7, r22
    2b40:	64 2e       	mov	r6, r20
    2b42:	55 2e       	mov	r5, r21
    2b44:	59 01       	movw	r10, r18
  uint8_t           Lines;              /* line number */
  uint8_t           n;                  /* temp value */
  void              *Address;           /* address of menu element */
  uint16_t          Value;              /* temp. value */

  Items--;                    /* to match array counter */
    2b46:	0f ef       	ldi	r16, 0xFF	; 255
    2b48:	08 0f       	add	r16, r24
  Lines = UI.CharMax_Y;       /* max. number of lines */
    2b4a:	90 90 2a 01 	lds	r9, 0x012A	; 0x80012a <UI+0x4>
  Lines--;                    /* adjust to match item counter */
    2b4e:	dd 24       	eor	r13, r13
    2b50:	da 94       	dec	r13
    2b52:	d9 0c       	add	r13, r9
  Display_Char(':');          /* whatever: */
    2b54:	8a e3       	ldi	r24, 0x3A	; 58
    2b56:	0e 94 8a 3b 	call	0x7714	; 0x7714 <LCD_Char>

uint8_t MenuTool(uint8_t Items, uint8_t Type, void *Menu[], unsigned char *Unit)
{
  uint8_t           Selected = 0;       /* return value / ID of selected item */
  uint8_t           First = 0;          /* first item listed */
  uint8_t           Run = 2;            /* loop control flag */
    2b5a:	12 e0       	ldi	r17, 0x02	; 2
 */

uint8_t MenuTool(uint8_t Items, uint8_t Type, void *Menu[], unsigned char *Unit)
{
  uint8_t           Selected = 0;       /* return value / ID of selected item */
  uint8_t           First = 0;          /* first item listed */
    2b5c:	d0 e0       	ldi	r29, 0x00	; 0
 *  - ID of selected item
 */

uint8_t MenuTool(uint8_t Items, uint8_t Type, void *Menu[], unsigned char *Unit)
{
  uint8_t           Selected = 0;       /* return value / ID of selected item */
    2b5e:	c0 e0       	ldi	r28, 0x00	; 0
      else                         /* more items follow */
      {
        Selected++;                /* move to next item */        

        n = First + Lines - 1;     /* last item on screen */
        if (Selected == n)         /* item would be the last one listed */
    2b60:	9a 94       	dec	r9
    2b62:	9a 94       	dec	r9
      {
        Selected = Items;               /* roll over to last item */

        if (Items >= Lines)             /* large list */
        {
          First = Items - Lines + 1;    /* update first item listed */
    2b64:	81 e0       	ldi	r24, 0x01	; 1
    2b66:	88 2e       	mov	r8, r24
    2b68:	8d 18       	sub	r8, r13
  Display_Char(':');          /* whatever: */


  while (Run)
  {
    if (Lines == 1)           /* 2 line display */
    2b6a:	81 e0       	ldi	r24, 0x01	; 1
    2b6c:	d8 12       	cpse	r13, r24
    2b6e:	02 c0       	rjmp	.+4      	; 0x2b74 <MenuTool+0x42>
    {
      First = Selected;       /* just one line for items */
      Run++;                  /* set flag for changed list */
    2b70:	1f 5f       	subi	r17, 0xFF	; 255
    2b72:	dc 2f       	mov	r29, r28

    /*
     *  display item(s)
     */

    Address = &Menu[First];        /* get address of first item */
    2b74:	e6 2c       	mov	r14, r6
    2b76:	f5 2c       	mov	r15, r5
    2b78:	ed 0e       	add	r14, r29
    2b7a:	f1 1c       	adc	r15, r1
    2b7c:	ed 0e       	add	r14, r29
    2b7e:	f1 1c       	adc	r15, r1
    n = 0;
    2b80:	c1 2c       	mov	r12, r1

    while (n < Lines)
    2b82:	cd 14       	cp	r12, r13
    2b84:	98 f5       	brcc	.+102    	; 0x2bec <MenuTool+0xba>
    {
      LCD_CharPos(1, n + 2);       /* move to start of line */
    2b86:	62 e0       	ldi	r22, 0x02	; 2
    2b88:	6c 0d       	add	r22, r12
    2b8a:	81 e0       	ldi	r24, 0x01	; 1
    2b8c:	0e 94 9f 3a 	call	0x753e	; 0x753e <LCD_CharPos>

      /* display indicator for multiline displays */
      if (Lines > 1)
    2b90:	e1 e0       	ldi	r30, 0x01	; 1
    2b92:	de 16       	cp	r13, r30
    2b94:	29 f0       	breq	.+10     	; 0x2ba0 <MenuTool+0x6e>
      {
        MarkItem(First + n, Selected);
    2b96:	6c 2f       	mov	r22, r28
    2b98:	8d 2f       	mov	r24, r29
    2b9a:	8c 0d       	add	r24, r12
    2b9c:	0e 94 84 15 	call	0x2b08	; 0x2b08 <MarkItem>
      }

      if (Run > 1)            /* list changed */
    2ba0:	11 30       	cpi	r17, 0x01	; 1
    2ba2:	e1 f0       	breq	.+56     	; 0x2bdc <MenuTool+0xaa>
      {
        /* display item or value */
        if (Type == 1)                  /* fixed string */
    2ba4:	f1 e0       	ldi	r31, 0x01	; 1
    2ba6:	7f 12       	cpse	r7, r31
    2ba8:	06 c0       	rjmp	.+12     	; 0x2bb6 <MenuTool+0x84>
        {
          Display_EEString(*(unsigned char **)Address);
    2baa:	f7 01       	movw	r30, r14
    2bac:	80 81       	ld	r24, Z
    2bae:	91 81       	ldd	r25, Z+1	; 0x01
    2bb0:	0e 94 43 20 	call	0x4086	; 0x4086 <Display_EEString>
    2bb4:	0a c0       	rjmp	.+20     	; 0x2bca <MenuTool+0x98>
        }
        else                            /* uint16_t in EEPROM */
        {
          Value = DATA_read_word(Address);   /* read value at eeprom address */
    2bb6:	c7 01       	movw	r24, r14
    2bb8:	0e 94 a2 3f 	call	0x7f44	; 0x7f44 <eeprom_read_word>
          Display_Value(Value, 0, 0);
    2bbc:	bc 01       	movw	r22, r24
    2bbe:	80 e0       	ldi	r24, 0x00	; 0
    2bc0:	90 e0       	ldi	r25, 0x00	; 0
    2bc2:	20 e0       	ldi	r18, 0x00	; 0
    2bc4:	40 e0       	ldi	r20, 0x00	; 0
    2bc6:	0e 94 fa 20 	call	0x41f4	; 0x41f4 <Display_Value>
        }     

        /* display optional fixed string */
        if (Unit)
    2bca:	a1 14       	cp	r10, r1
    2bcc:	b1 04       	cpc	r11, r1
    2bce:	19 f0       	breq	.+6      	; 0x2bd6 <MenuTool+0xa4>
        {
          Display_EEString(Unit);
    2bd0:	c5 01       	movw	r24, r10
    2bd2:	0e 94 43 20 	call	0x4086	; 0x4086 <Display_EEString>
        }  

        LCD_ClearLine(0);     /* clear rest of this line */
    2bd6:	80 e0       	ldi	r24, 0x00	; 0
    2bd8:	0e 94 ca 3a 	call	0x7594	; 0x7594 <LCD_ClearLine>
      }

      Address += 2;                /* next address (2 byte steps) */
    2bdc:	f2 e0       	ldi	r31, 0x02	; 2
    2bde:	ef 0e       	add	r14, r31
    2be0:	f1 1c       	adc	r15, r1
      n++;                         /* next item */
    2be2:	c3 94       	inc	r12

      if (n > Items) n = Lines;    /* end loop for a short list */
    2be4:	0c 15       	cp	r16, r12
    2be6:	68 f6       	brcc	.-102    	; 0x2b82 <MenuTool+0x50>
    2be8:	cd 2c       	mov	r12, r13
    2bea:	cb cf       	rjmp	.-106    	; 0x2b82 <MenuTool+0x50>
    }

    Run = 1;             /* reset loop flag (changed list) */

    /* show navigation help for 2 line displays */
    if (Lines == 1)
    2bec:	81 e0       	ldi	r24, 0x01	; 1
    2bee:	d8 12       	cpse	r13, r24
    2bf0:	09 c0       	rjmp	.+18     	; 0x2c04 <MenuTool+0xd2>
    {
      LCD_CharPos(UI.CharMax_X, UI.CharMax_Y);    /* set position to bottom right */
    2bf2:	60 91 2a 01 	lds	r22, 0x012A	; 0x80012a <UI+0x4>
    2bf6:	80 91 29 01 	lds	r24, 0x0129	; 0x800129 <UI+0x3>
    2bfa:	0e 94 9f 3a 	call	0x753e	; 0x753e <LCD_CharPos>
      }
      else n = '<';                /* last item */
      {
        n = '<';                   /* '<' for less */
      }
      Display_Char(n);             /* display char */
    2bfe:	8c e3       	ldi	r24, 0x3C	; 60
    2c00:	0e 94 8a 3b 	call	0x7714	; 0x7714 <LCD_Char>

    /*
     *  process user feedback
     */
 
    n = TestKey(0, CHECK_BAT);     /* wait for key */
    2c04:	60 e1       	ldi	r22, 0x10	; 16
    2c06:	80 e0       	ldi	r24, 0x00	; 0
    2c08:	90 e0       	ldi	r25, 0x00	; 0
    2c0a:	0e 94 0b 14 	call	0x2816	; 0x2816 <TestKey>

    #ifdef HW_KEYS
    /* processing for rotary encoder etc. */
    if (n == KEY_SHORT)            /* short key press: select item */
    2c0e:	81 30       	cpi	r24, 0x01	; 1
    2c10:	71 f1       	breq	.+92     	; 0x2c6e <MenuTool+0x13c>
    {
      n = KEY_LONG;                     /* trigger item selection */
    }
    else if (n == KEY_RIGHT)       /* rotary encoder: right turn */
    2c12:	84 30       	cpi	r24, 0x04	; 4
    2c14:	b1 f0       	breq	.+44     	; 0x2c42 <MenuTool+0x110>
    {
      n = KEY_SHORT;                    /* trigger next item */
    }
    else if (n == KEY_LEFT)        /* rotary encoder: left turn */
    2c16:	85 30       	cpi	r24, 0x05	; 5
    2c18:	89 f4       	brne	.+34     	; 0x2c3c <MenuTool+0x10a>
    {
      if (Selected == 0)                /* first item */
    2c1a:	c1 11       	cpse	r28, r1
    2c1c:	06 c0       	rjmp	.+12     	; 0x2c2a <MenuTool+0xf8>
      {
        Selected = Items;               /* roll over to last item */

        if (Items >= Lines)             /* large list */
    2c1e:	0d 15       	cp	r16, r13
    2c20:	18 f1       	brcs	.+70     	; 0x2c68 <MenuTool+0x136>
        {
          First = Items - Lines + 1;    /* update first item listed */
    2c22:	d8 2d       	mov	r29, r8
    2c24:	d0 0f       	add	r29, r16
    2c26:	c0 2f       	mov	r28, r16
    2c28:	07 c0       	rjmp	.+14     	; 0x2c38 <MenuTool+0x106>
          Run++;                        /* set flag for changed list */
        }
      }
      else                              /* not first item */
      {
        Selected--;                     /* move to previous item */
    2c2a:	c1 50       	subi	r28, 0x01	; 1

        if (Selected == First)          /* item would be the first one listed */
    2c2c:	dc 13       	cpse	r29, r28
    2c2e:	1d c0       	rjmp	.+58     	; 0x2c6a <MenuTool+0x138>
        {
          if (Selected > 0)             /* more items in list */
          {
            First--;                    /* scroll one item down */
    2c30:	cd 2f       	mov	r28, r29
      {
        Selected--;                     /* move to previous item */

        if (Selected == First)          /* item would be the first one listed */
        {
          if (Selected > 0)             /* more items in list */
    2c32:	dd 23       	and	r29, r29
    2c34:	d1 f0       	breq	.+52     	; 0x2c6a <MenuTool+0x138>
          {
            First--;                    /* scroll one item down */
    2c36:	d1 50       	subi	r29, 0x01	; 1
            Run++;                      /* set flag for changed list */
    2c38:	12 e0       	ldi	r17, 0x02	; 2
    2c3a:	97 cf       	rjmp	.-210    	; 0x2b6a <MenuTool+0x38>
            Run++;                 /* set flag for changed list */
          }
        }
      }
    }
    else if (n == KEY_LONG)        /* long key press: select current item */
    2c3c:	82 30       	cpi	r24, 0x02	; 2
    2c3e:	a9 f4       	brne	.+42     	; 0x2c6a <MenuTool+0x138>
    2c40:	16 c0       	rjmp	.+44     	; 0x2c6e <MenuTool+0x13c>
    #endif

    /* processing for test key */
    if (n == KEY_SHORT)            /* short key press: move to next item */
    {
      if (Selected == Items)       /* last item */
    2c42:	0c 13       	cpse	r16, r28
    2c44:	04 c0       	rjmp	.+8      	; 0x2c4e <MenuTool+0x11c>
      {
        Selected = 0;              /* roll over to first one */
        First = 0;                 /* also reset first item listed */

        if (Items >= Lines)        /* large list */
    2c46:	0d 15       	cp	r16, r13
    2c48:	58 f0       	brcs	.+22     	; 0x2c60 <MenuTool+0x12e>
        {
          Run++;                   /* set flag for changed list */
    2c4a:	12 e0       	ldi	r17, 0x02	; 2
    2c4c:	0a c0       	rjmp	.+20     	; 0x2c62 <MenuTool+0x130>
        }
      }
      else                         /* more items follow */
      {
        Selected++;                /* move to next item */        
    2c4e:	cf 5f       	subi	r28, 0xFF	; 255

        n = First + Lines - 1;     /* last item on screen */
        if (Selected == n)         /* item would be the last one listed */
    2c50:	89 2d       	mov	r24, r9
    2c52:	8d 0f       	add	r24, r29
    2c54:	c8 13       	cpse	r28, r24
    2c56:	09 c0       	rjmp	.+18     	; 0x2c6a <MenuTool+0x138>
        {
          if (Items > Selected)    /* more items follow in list */
    2c58:	c0 17       	cp	r28, r16
    2c5a:	38 f4       	brcc	.+14     	; 0x2c6a <MenuTool+0x138>
          {
            First++;               /* scroll one item up */
    2c5c:	df 5f       	subi	r29, 0xFF	; 255
    2c5e:	ec cf       	rjmp	.-40     	; 0x2c38 <MenuTool+0x106>
      n++;                         /* next item */

      if (n > Items) n = Lines;    /* end loop for a short list */
    }

    Run = 1;             /* reset loop flag (changed list) */
    2c60:	11 e0       	ldi	r17, 0x01	; 1
    if (n == KEY_SHORT)            /* short key press: move to next item */
    {
      if (Selected == Items)       /* last item */
      {
        Selected = 0;              /* roll over to first one */
        First = 0;                 /* also reset first item listed */
    2c62:	d0 e0       	ldi	r29, 0x00	; 0
    /* processing for test key */
    if (n == KEY_SHORT)            /* short key press: move to next item */
    {
      if (Selected == Items)       /* last item */
      {
        Selected = 0;              /* roll over to first one */
    2c64:	c0 e0       	ldi	r28, 0x00	; 0
    2c66:	81 cf       	rjmp	.-254    	; 0x2b6a <MenuTool+0x38>
    2c68:	c0 2f       	mov	r28, r16
      n++;                         /* next item */

      if (n > Items) n = Lines;    /* end loop for a short list */
    }

    Run = 1;             /* reset loop flag (changed list) */
    2c6a:	11 e0       	ldi	r17, 0x01	; 1
    2c6c:	7e cf       	rjmp	.-260    	; 0x2b6a <MenuTool+0x38>
    {
      Run = 0;                     /* end loop */
    }
  }

  LCD_Clear();                /* feedback for user */
    2c6e:	0e 94 31 3b 	call	0x7662	; 0x7662 <LCD_Clear>
  MilliSleep(500);            /* smooth UI */
    2c72:	84 ef       	ldi	r24, 0xF4	; 244
    2c74:	91 e0       	ldi	r25, 0x01	; 1
    2c76:	0e 94 2e 17 	call	0x2e5c	; 0x2e5c <MilliSleep>

  return Selected;
}
    2c7a:	8c 2f       	mov	r24, r28
    2c7c:	cd b7       	in	r28, 0x3d	; 61
    2c7e:	de b7       	in	r29, 0x3e	; 62
    2c80:	ef e0       	ldi	r30, 0x0F	; 15
    2c82:	0c 94 36 3f 	jmp	0x7e6c	; 0x7e6c <__epilogue_restores__+0x6>

00002c86 <AdjustmentMenu>:
 *    STORAGE_LOAD      - load profile
 *    STORAGE_SHORT     - short menu
 */

void AdjustmentMenu(uint8_t Mode)
{
    2c86:	a9 e0       	ldi	r26, 0x09	; 9
    2c88:	b0 e0       	ldi	r27, 0x00	; 0
    2c8a:	e9 e4       	ldi	r30, 0x49	; 73
    2c8c:	f6 e1       	ldi	r31, 0x16	; 22
    2c8e:	0c 94 26 3f 	jmp	0x7e4c	; 0x7e4c <__prologue_saves__+0x1e>
    2c92:	18 2f       	mov	r17, r24
   *  set up menu
   *  - items are added in display order
   */

  /* profile #1 */
  Item_Str[n] = (void *)Profile1_str;
    2c94:	81 e3       	ldi	r24, 0x31	; 49
    2c96:	91 e0       	ldi	r25, 0x01	; 1
    2c98:	9a 83       	std	Y+2, r25	; 0x02
    2c9a:	89 83       	std	Y+1, r24	; 0x01
  Item_ID[n] = 1;
    2c9c:	81 e0       	ldi	r24, 0x01	; 1
    2c9e:	8f 83       	std	Y+7, r24	; 0x07
  n++;  

  /* profile #2 */
  Item_Str[n] = (void *)Profile2_str;
    2ca0:	8e e2       	ldi	r24, 0x2E	; 46
    2ca2:	91 e0       	ldi	r25, 0x01	; 1
    2ca4:	9c 83       	std	Y+4, r25	; 0x04
    2ca6:	8b 83       	std	Y+3, r24	; 0x03
  Item_ID[n] = 2;
    2ca8:	82 e0       	ldi	r24, 0x02	; 2
    2caa:	88 87       	std	Y+8, r24	; 0x08
  else                                  /* normal menu */
  {
  #endif

    /* exit menu */
    Item_Str[n] = (void *)Exit_str;
    2cac:	8e e5       	ldi	r24, 0x5E	; 94
    2cae:	92 e0       	ldi	r25, 0x02	; 2
    2cb0:	9e 83       	std	Y+6, r25	; 0x06
    2cb2:	8d 83       	std	Y+5, r24	; 0x05
    Item_ID[n] = 0;
    2cb4:	19 86       	std	Y+9, r1	; 0x09
  #ifdef UI_CHOOSE_PROFILE
  }
  #endif

  /* display storage mode */
  LCD_Clear();
    2cb6:	0e 94 31 3b 	call	0x7662	; 0x7662 <LCD_Clear>
  if (Mode == STORAGE_SAVE)        /* write mode */
    2cba:	12 30       	cpi	r17, 0x02	; 2
    2cbc:	19 f4       	brne	.+6      	; 0x2cc4 <AdjustmentMenu+0x3e>
  {
    Display_EEString(Save_str);    /* display: Save */
    2cbe:	81 ea       	ldi	r24, 0xA1	; 161
    2cc0:	92 e0       	ldi	r25, 0x02	; 2
    2cc2:	02 c0       	rjmp	.+4      	; 0x2cc8 <AdjustmentMenu+0x42>
  }
  else                             /* read mode */
  {
    Display_EEString(Load_str);    /* display: Load */
    2cc4:	8c e9       	ldi	r24, 0x9C	; 156
    2cc6:	92 e0       	ldi	r25, 0x02	; 2
    2cc8:	0e 94 43 20 	call	0x4086	; 0x4086 <Display_EEString>
  }

  /* run menu */
  ID = MenuTool(n, 1, Item_Str, NULL);       /* menu dialog */
    2ccc:	20 e0       	ldi	r18, 0x00	; 0
    2cce:	30 e0       	ldi	r19, 0x00	; 0
    2cd0:	ae 01       	movw	r20, r28
    2cd2:	4f 5f       	subi	r20, 0xFF	; 255
    2cd4:	5f 4f       	sbci	r21, 0xFF	; 255
    2cd6:	61 e0       	ldi	r22, 0x01	; 1
    2cd8:	83 e0       	ldi	r24, 0x03	; 3
    2cda:	0e 94 99 15 	call	0x2b32	; 0x2b32 <MenuTool>
  ID = Item_ID[ID];                          /* get item ID */
    2cde:	fe 01       	movw	r30, r28
    2ce0:	e8 0f       	add	r30, r24
    2ce2:	f1 1d       	adc	r31, r1
    2ce4:	67 81       	ldd	r22, Z+7	; 0x07

  if (ID > 0)                 /* valid profile ID */
    2ce6:	66 23       	and	r22, r22
    2ce8:	19 f0       	breq	.+6      	; 0x2cf0 <AdjustmentMenu+0x6a>
  {
    /* load/save selected profile */
    ManageAdjustmentStorage(Mode, ID);
    2cea:	81 2f       	mov	r24, r17
    2cec:	0e 94 be 17 	call	0x2f7c	; 0x2f7c <ManageAdjustmentStorage>
  }

  #undef MENU_ITEMS
}
    2cf0:	29 96       	adiw	r28, 0x09	; 9
    2cf2:	e3 e0       	ldi	r30, 0x03	; 3
    2cf4:	0c 94 42 3f 	jmp	0x7e84	; 0x7e84 <__epilogue_restores__+0x1e>

00002cf8 <PresentMainMenu>:
 *  returns:
 *  - ID of selected menu item
 */

uint8_t PresentMainMenu(void)
{
    2cf8:	aa e2       	ldi	r26, 0x2A	; 42
    2cfa:	b0 e0       	ldi	r27, 0x00	; 0
    2cfc:	e2 e8       	ldi	r30, 0x82	; 130
    2cfe:	f6 e1       	ldi	r31, 0x16	; 22
    2d00:	0c 94 27 3f 	jmp	0x7e4e	; 0x7e4e <__prologue_saves__+0x20>
   *  test/check/signal features
   */

  #if defined (SW_PWM_SIMPLE) || defined (SW_PWM_PLUS)
  /* PWM tool */
  Item_Str[n] = (void *)PWM_str;
    2d04:	8b e1       	ldi	r24, 0x1B	; 27
    2d06:	92 e0       	ldi	r25, 0x02	; 2
    2d08:	9a 83       	std	Y+2, r25	; 0x02
    2d0a:	89 83       	std	Y+1, r24	; 0x01
  Item_ID[n] = MENUITEM_PWM_TOOL;
    2d0c:	86 e0       	ldi	r24, 0x06	; 6
    2d0e:	8d 8f       	std	Y+29, r24	; 0x1d
  n++;
  #endif

  #ifdef SW_SQUAREWAVE
  /* Square Wave Signal Generator */
  Item_Str[n] = (void *)SquareWave_str;
    2d10:	8f e0       	ldi	r24, 0x0F	; 15
    2d12:	92 e0       	ldi	r25, 0x02	; 2
    2d14:	9c 83       	std	Y+4, r25	; 0x04
    2d16:	8b 83       	std	Y+3, r24	; 0x03
  Item_ID[n] = MENUITEM_SQUAREWAVE;
    2d18:	87 e0       	ldi	r24, 0x07	; 7
    2d1a:	8e 8f       	std	Y+30, r24	; 0x1e
  n++;
  #endif

  #ifdef HW_ZENER
  /* Zener tool */
  Item_Str[n] = (void *)Zener_str;
    2d1c:	89 e0       	ldi	r24, 0x09	; 9
    2d1e:	92 e0       	ldi	r25, 0x02	; 2
    2d20:	9e 83       	std	Y+6, r25	; 0x06
    2d22:	8d 83       	std	Y+5, r24	; 0x05
  Item_ID[n] = MENUITEM_ZENER;  
    2d24:	88 e0       	ldi	r24, 0x08	; 8
    2d26:	8f 8f       	std	Y+31, r24	; 0x1f
  n++;
  #endif

  #ifdef SW_ESR_TOOL
  /* in-circuit ESR */
  Item_Str[n] = (void *)ESR_str;
    2d28:	83 e1       	ldi	r24, 0x13	; 19
    2d2a:	91 e0       	ldi	r25, 0x01	; 1
    2d2c:	98 87       	std	Y+8, r25	; 0x08
    2d2e:	8f 83       	std	Y+7, r24	; 0x07
  Item_ID[n] = MENUITEM_ESR;
    2d30:	89 e0       	ldi	r24, 0x09	; 9
    2d32:	88 a3       	std	Y+32, r24	; 0x20
  n++;
  #endif

  #ifdef SW_CAP_LEAKAGE
  /* cap leakage */
  Item_Str[n] = (void *)CapLeak_str;
    2d34:	87 ee       	ldi	r24, 0xE7	; 231
    2d36:	91 e0       	ldi	r25, 0x01	; 1
    2d38:	9a 87       	std	Y+10, r25	; 0x0a
    2d3a:	89 87       	std	Y+9, r24	; 0x09
  Item_ID[n] = MENUITEM_CAP_LEAKAGE;
    2d3c:	83 e1       	ldi	r24, 0x13	; 19
    2d3e:	89 a3       	std	Y+33, r24	; 0x21
  n++;
  #endif

  #ifdef SW_MONITOR_RCL
  /* monitor R/C/L */
  Item_Str[n] = (void *)Monitor_RCL_str;
    2d40:	80 ec       	ldi	r24, 0xC0	; 192
    2d42:	91 e0       	ldi	r25, 0x01	; 1
    2d44:	9c 87       	std	Y+12, r25	; 0x0c
    2d46:	8b 87       	std	Y+11, r24	; 0x0b
  Item_ID[n] = MENUITEM_MONITOR_RCL;
    2d48:	8c e1       	ldi	r24, 0x1C	; 28
    2d4a:	8a a3       	std	Y+34, r24	; 0x22
  n++;
  #endif

  #ifdef HW_FREQ_COUNTER
  /* frequency counter */
  Item_Str[n] = (void *)FreqCounter_str;
    2d4c:	87 ef       	ldi	r24, 0xF7	; 247
    2d4e:	91 e0       	ldi	r25, 0x01	; 1
    2d50:	9e 87       	std	Y+14, r25	; 0x0e
    2d52:	8d 87       	std	Y+13, r24	; 0x0d
  Item_ID[n] = MENUITEM_FREQ_COUNTER;
    2d54:	8a e0       	ldi	r24, 0x0A	; 10
    2d56:	8b a3       	std	Y+35, r24	; 0x23
  /*
   *  tester management and settings
   */

  /* selftest */
  Item_Str[n] = (void *)Selftest_str;
    2d58:	81 eb       	ldi	r24, 0xB1	; 177
    2d5a:	92 e0       	ldi	r25, 0x02	; 2
    2d5c:	98 8b       	std	Y+16, r25	; 0x10
    2d5e:	8f 87       	std	Y+15, r24	; 0x0f
  Item_ID[n] = MENUITEM_SELFTEST;
    2d60:	81 e0       	ldi	r24, 0x01	; 1
    2d62:	8c a3       	std	Y+36, r24	; 0x24
  n++;

  /* self-adjustment */
  Item_Str[n] = (void *)Adjustment_str;
    2d64:	86 ea       	ldi	r24, 0xA6	; 166
    2d66:	92 e0       	ldi	r25, 0x02	; 2
    2d68:	9a 8b       	std	Y+18, r25	; 0x12
    2d6a:	89 8b       	std	Y+17, r24	; 0x11
  Item_ID[n] = MENUITEM_ADJUSTMENT;
    2d6c:	82 e0       	ldi	r24, 0x02	; 2
    2d6e:	8d a3       	std	Y+37, r24	; 0x25
  Item_ID[n] = MENUITEM_TOUCH;
  n++;
  #endif

  /* save self-adjustment values */
  Item_Str[n] = (void *)Save_str;
    2d70:	81 ea       	ldi	r24, 0xA1	; 161
    2d72:	92 e0       	ldi	r25, 0x02	; 2
    2d74:	9c 8b       	std	Y+20, r25	; 0x14
    2d76:	8b 8b       	std	Y+19, r24	; 0x13
  Item_ID[n] = MENUITEM_SAVE;
    2d78:	83 e0       	ldi	r24, 0x03	; 3
    2d7a:	8e a3       	std	Y+38, r24	; 0x26
  n++;

  /* load self-adjustment values */
  Item_Str[n] = (void *)Load_str;
    2d7c:	8c e9       	ldi	r24, 0x9C	; 156
    2d7e:	92 e0       	ldi	r25, 0x02	; 2
    2d80:	9e 8b       	std	Y+22, r25	; 0x16
    2d82:	8d 8b       	std	Y+21, r24	; 0x15
  Item_ID[n] = MENUITEM_LOAD;
    2d84:	84 e0       	ldi	r24, 0x04	; 4
    2d86:	8f a3       	std	Y+39, r24	; 0x27
  n++;

  /* show self-adjustment values */
  Item_Str[n] = (void *)Show_str;
    2d88:	80 e9       	ldi	r24, 0x90	; 144
    2d8a:	92 e0       	ldi	r25, 0x02	; 2
    2d8c:	98 8f       	std	Y+24, r25	; 0x18
    2d8e:	8f 8b       	std	Y+23, r24	; 0x17
  Item_ID[n] = MENUITEM_SHOW;
    2d90:	85 e0       	ldi	r24, 0x05	; 5
    2d92:	88 a7       	std	Y+40, r24	; 0x28
  n++;
  #endif

  #ifdef SW_POWER_OFF
  /* power off tester */
  Item_Str[n] = (void *)PowerOff_str;
    2d94:	8c eb       	ldi	r24, 0xBC	; 188
    2d96:	91 e0       	ldi	r25, 0x01	; 1
    2d98:	9a 8f       	std	Y+26, r25	; 0x1a
    2d9a:	89 8f       	std	Y+25, r24	; 0x19
  Item_ID[n] = MENUITEM_POWER_OFF;
    2d9c:	84 e1       	ldi	r24, 0x14	; 20
    2d9e:	89 a7       	std	Y+41, r24	; 0x29
  n++;
  #endif

  /* exit menu */
  Item_Str[n] = (void *)Exit_str;
    2da0:	8e e5       	ldi	r24, 0x5E	; 94
    2da2:	92 e0       	ldi	r25, 0x02	; 2
    2da4:	9c 8f       	std	Y+28, r25	; 0x1c
    2da6:	8b 8f       	std	Y+27, r24	; 0x1b
  Item_ID[n] = MENUITEM_EXIT;
    2da8:	1a a6       	std	Y+42, r1	; 0x2a

  /*
   *  run menu
   */

  LCD_Clear();
    2daa:	0e 94 31 3b 	call	0x7662	; 0x7662 <LCD_Clear>
  Display_EEString(Select_str);         /* display "Select" */
    2dae:	86 eb       	ldi	r24, 0xB6	; 182
    2db0:	92 e0       	ldi	r25, 0x02	; 2
    2db2:	0e 94 43 20 	call	0x4086	; 0x4086 <Display_EEString>
  ID = MenuTool(n, 1, Item_Str, NULL);  /* menu dialog */
    2db6:	20 e0       	ldi	r18, 0x00	; 0
    2db8:	30 e0       	ldi	r19, 0x00	; 0
    2dba:	ae 01       	movw	r20, r28
    2dbc:	4f 5f       	subi	r20, 0xFF	; 255
    2dbe:	5f 4f       	sbci	r21, 0xFF	; 255
    2dc0:	61 e0       	ldi	r22, 0x01	; 1
    2dc2:	8e e0       	ldi	r24, 0x0E	; 14
    2dc4:	0e 94 99 15 	call	0x2b32	; 0x2b32 <MenuTool>
  ID = Item_ID[ID];                     /* get item ID */
    2dc8:	fe 01       	movw	r30, r28
    2dca:	e8 0f       	add	r30, r24
    2dcc:	f1 1d       	adc	r31, r1
  #undef ITEM_23
  #undef ITEM_24
  #undef ITEM_25

  return(ID);                 /* return item ID */
}
    2dce:	85 8d       	ldd	r24, Z+29	; 0x1d
    2dd0:	aa 96       	adiw	r28, 0x2a	; 42
    2dd2:	e2 e0       	ldi	r30, 0x02	; 2
    2dd4:	0c 94 43 3f 	jmp	0x7e86	; 0x7e86 <__epilogue_restores__+0x20>

00002dd8 <MainMenu>:
/*
 *  main menu
 */

void MainMenu(void)
{
    2dd8:	cf 93       	push	r28
  uint8_t           Flag = 1;           /* feedback flag */
  #ifdef SW_PWM_SIMPLE
  uint16_t          Frequency;          /* PWM frequency */  
  #endif

  ID = PresentMainMenu();     /* create menu and get user feedback */
    2dda:	0e 94 7c 16 	call	0x2cf8	; 0x2cf8 <PresentMainMenu>

  /* run selected item */
  switch (ID)
    2dde:	90 e0       	ldi	r25, 0x00	; 0
    2de0:	fc 01       	movw	r30, r24
    2de2:	31 97       	sbiw	r30, 0x01	; 1
    2de4:	ec 31       	cpi	r30, 0x1C	; 28
    2de6:	f1 05       	cpc	r31, r1
    2de8:	58 f5       	brcc	.+86     	; 0x2e40 <MainMenu+0x68>
    2dea:	ec 5c       	subi	r30, 0xCC	; 204
    2dec:	ff 4f       	sbci	r31, 0xFF	; 255
    2dee:	0c 94 f0 3e 	jmp	0x7de0	; 0x7de0 <__tablejump2__>
    /* exit menu */
    /* case MENUITEM_EXIT: */

    /* self-test */
    case MENUITEM_SELFTEST:
      Flag = SelfTest();
    2df2:	0e 94 9b 1a 	call	0x3536	; 0x3536 <SelfTest>
    2df6:	02 c0       	rjmp	.+4      	; 0x2dfc <MainMenu+0x24>
      break;

    /* self-adjustment */
    case MENUITEM_ADJUSTMENT:
      Flag = SelfAdjustment();
    2df8:	0e 94 7b 18 	call	0x30f6	; 0x30f6 <SelfAdjustment>
    2dfc:	c8 2f       	mov	r28, r24
      break;
    2dfe:	21 c0       	rjmp	.+66     	; 0x2e42 <MainMenu+0x6a>

    /* save adjustment values */
    case MENUITEM_SAVE:
      AdjustmentMenu(STORAGE_SAVE);
    2e00:	82 e0       	ldi	r24, 0x02	; 2
    2e02:	01 c0       	rjmp	.+2      	; 0x2e06 <MainMenu+0x2e>
      break;

    /* load adjustment values */
    case MENUITEM_LOAD:
      AdjustmentMenu(STORAGE_LOAD);
    2e04:	81 e0       	ldi	r24, 0x01	; 1
    2e06:	0e 94 43 16 	call	0x2c86	; 0x2c86 <AdjustmentMenu>
    2e0a:	1a c0       	rjmp	.+52     	; 0x2e40 <MainMenu+0x68>
      break;

    /* show basic adjustment values */
    case MENUITEM_SHOW:
      ShowAdjustmentValues();
    2e0c:	0e 94 08 18 	call	0x3010	; 0x3010 <ShowAdjustmentValues>
    2e10:	17 c0       	rjmp	.+46     	; 0x2e40 <MainMenu+0x68>
    #endif

    #ifdef SW_PWM_PLUS
    /* PWM tool with improved UI */
    case MENUITEM_PWM_TOOL:
      PWM_Tool();
    2e12:	0e 94 d8 36 	call	0x6db0	; 0x6db0 <PWM_Tool>
    2e16:	14 c0       	rjmp	.+40     	; 0x2e40 <MainMenu+0x68>
    #endif

    #ifdef SW_SQUAREWAVE
    /* square wave signal generator */
    case MENUITEM_SQUAREWAVE:
      SquareWave_SignalGenerator();
    2e18:	0e 94 3a 38 	call	0x7074	; 0x7074 <SquareWave_SignalGenerator>
    2e1c:	11 c0       	rjmp	.+34     	; 0x2e40 <MainMenu+0x68>
    #endif

    #ifdef HW_ZENER
    /* Zener tool */
    case MENUITEM_ZENER:
      Zener_Tool();
    2e1e:	0e 94 81 34 	call	0x6902	; 0x6902 <Zener_Tool>
    2e22:	0e c0       	rjmp	.+28     	; 0x2e40 <MainMenu+0x68>
    #endif

    #ifdef SW_ESR_TOOL
    /* ESR tool */
    case MENUITEM_ESR:
      ESR_Tool();
    2e24:	0e 94 00 35 	call	0x6a00	; 0x6a00 <ESR_Tool>
    2e28:	0b c0       	rjmp	.+22     	; 0x2e40 <MainMenu+0x68>
    #endif

    #ifdef HW_FREQ_COUNTER
    /* frequency counter */
    case MENUITEM_FREQ_COUNTER:
      FrequencyCounter();
    2e2a:	0e 94 72 39 	call	0x72e4	; 0x72e4 <FrequencyCounter>
    2e2e:	08 c0       	rjmp	.+16     	; 0x2e40 <MainMenu+0x68>
    #endif

    #ifdef SW_CAP_LEAKAGE
    /* cap leakage */
    case MENUITEM_CAP_LEAKAGE:
      Cap_Leakage();
    2e30:	0e 94 46 35 	call	0x6a8c	; 0x6a8c <Cap_Leakage>
    2e34:	05 c0       	rjmp	.+10     	; 0x2e40 <MainMenu+0x68>
    #endif

    #ifdef SW_POWER_OFF
    /* power off */
    case MENUITEM_POWER_OFF:
      PowerOff();
    2e36:	0e 94 52 12 	call	0x24a4	; 0x24a4 <PowerOff>
    2e3a:	02 c0       	rjmp	.+4      	; 0x2e40 <MainMenu+0x68>
    #endif

    #ifdef SW_MONITOR_RCL
    /* monitor R/C/L */
    case MENUITEM_MONITOR_RCL:
      Monitor_RCL();
    2e3c:	0e 94 3c 36 	call	0x6c78	; 0x6c78 <Monitor_RCL>
 */

void MainMenu(void)
{
  uint8_t           ID;                 /* ID of selected item */
  uint8_t           Flag = 1;           /* feedback flag */
    2e40:	c1 e0       	ldi	r28, 0x01	; 1
      break;
    #endif
  }

  /* display result */
  LCD_Clear();                     /* clear display */
    2e42:	0e 94 31 3b 	call	0x7662	; 0x7662 <LCD_Clear>
  if (Flag == 0)
    2e46:	c1 11       	cpse	r28, r1
    2e48:	03 c0       	rjmp	.+6      	; 0x2e50 <MainMenu+0x78>
    Display_EEString(Error_str);   /* display: error! */
    2e4a:	83 e6       	ldi	r24, 0x63	; 99
    2e4c:	92 e0       	ldi	r25, 0x02	; 2
    2e4e:	02 c0       	rjmp	.+4      	; 0x2e54 <MainMenu+0x7c>
  else
    Display_EEString(Done_str);    /* display: done! */
    2e50:	8d eb       	ldi	r24, 0xBD	; 189
    2e52:	92 e0       	ldi	r25, 0x02	; 2
    2e54:	0e 94 43 20 	call	0x4086	; 0x4086 <Display_EEString>
}
    2e58:	cf 91       	pop	r28
    2e5a:	08 95       	ret

00002e5c <MilliSleep>:
      required for the processing loop, because it would make things much more
      complicated and we don't need exact timing here.
  */

  #ifdef SAVE_POWER
  Mode = Cfg.SleepMode;                 /* get current sleep mode */
    2e5c:	20 91 a2 01 	lds	r18, 0x01A2	; 0x8001a2 <Cfg+0x2>
  #endif

  /* calculate required timer cycles (prescaler 1024) */
  Cycles = Time;                        /* ms * 1024 -> s */
  Cycles *= MCU_CYCLES_PER_US;          /* timer cycles based on MCU frequency */
    2e60:	a0 e0       	ldi	r26, 0x00	; 0
    2e62:	b0 e0       	ldi	r27, 0x00	; 0
    2e64:	f3 e0       	ldi	r31, 0x03	; 3
    2e66:	88 0f       	add	r24, r24
    2e68:	99 1f       	adc	r25, r25
    2e6a:	aa 1f       	adc	r26, r26
    2e6c:	bb 1f       	adc	r27, r27
    2e6e:	fa 95       	dec	r31
    2e70:	d1 f7       	brne	.-12     	; 0x2e66 <MilliSleep+0xa>

  #ifdef SAVE_POWER
  if (Mode == SLEEP_MODE_PWR_SAVE)      /* power save mode */
    2e72:	26 30       	cpi	r18, 0x06	; 6
    2e74:	d1 f4       	brne	.+52     	; 0x2eaa <MilliSleep+0x4e>
     *  - low power crystal / ceramic resonator:  1k or 256 cycles
     *  - internal RC oscillator:                 6 cycles
     */

    /* compensate oscillator start-up */
    Value = Cycles / 256;               /* calculate loop runs */
    2e76:	49 2f       	mov	r20, r25
    2e78:	5a 2f       	mov	r21, r26
    2e7a:	6b 2f       	mov	r22, r27
    2e7c:	77 27       	eor	r23, r23
    Value++;                            /* fix offset by division */
    2e7e:	4f 5f       	subi	r20, 0xFF	; 255
    2e80:	5f 4f       	sbci	r21, 0xFF	; 255
    2e82:	6f 4f       	sbci	r22, 0xFF	; 255
    2e84:	7f 4f       	sbci	r23, 0xFF	; 255
    /* multiply with startup cycles equivalent to timer cycles */
    Value *= (OSC_STARTUP / 1024);      /* overhead cycles */
    2e86:	e4 e0       	ldi	r30, 0x04	; 4
    2e88:	44 0f       	add	r20, r20
    2e8a:	55 1f       	adc	r21, r21
    2e8c:	66 1f       	adc	r22, r22
    2e8e:	77 1f       	adc	r23, r23
    2e90:	ea 95       	dec	r30
    2e92:	d1 f7       	brne	.-12     	; 0x2e88 <MilliSleep+0x2c>

    if (Cycles > Value)            /* we are able to compensate */
    2e94:	48 17       	cp	r20, r24
    2e96:	59 07       	cpc	r21, r25
    2e98:	6a 07       	cpc	r22, r26
    2e9a:	7b 07       	cpc	r23, r27
    2e9c:	28 f4       	brcc	.+10     	; 0x2ea8 <MilliSleep+0x4c>
    {
      Cycles -= Value;                  /* subtract overhead cycles */
    2e9e:	84 1b       	sub	r24, r20
    2ea0:	95 0b       	sbc	r25, r21
    2ea2:	a6 0b       	sbc	r26, r22
    2ea4:	b7 0b       	sbc	r27, r23
    2ea6:	01 c0       	rjmp	.+2      	; 0x2eaa <MilliSleep+0x4e>
    }
    else                           /* no way to compensate */
    {
      /* idle mode doesn't require oscillator start-up after wake-up */
      /* just 6 cycles delay */ 
      Mode = SLEEP_MODE_IDLE;           /* change sleep mode to Idle */
    2ea8:	20 e0       	ldi	r18, 0x00	; 0

  /*
   *  set up timer
   */

  TCCR2B = 0;                      /* stop timer */
    2eaa:	10 92 b1 00 	sts	0x00B1, r1	; 0x8000b1 <__DATA_REGION_ORIGIN__+0x51>
  TCNT2 = 0;                       /* set counter to 0 */
    2eae:	10 92 b2 00 	sts	0x00B2, r1	; 0x8000b2 <__DATA_REGION_ORIGIN__+0x52>
  TCCR2A = (1 << WGM21);           /* set CTC mode */
    2eb2:	32 e0       	ldi	r19, 0x02	; 2
    2eb4:	30 93 b0 00 	sts	0x00B0, r19	; 0x8000b0 <__DATA_REGION_ORIGIN__+0x50>
  TIMSK2 = (1 << OCIE2A);          /* enable interrupt for OCR2A match */
    2eb8:	30 93 70 00 	sts	0x0070, r19	; 0x800070 <__DATA_REGION_ORIGIN__+0x10>

  #ifdef SAVE_POWER
  set_sleep_mode(Mode);            /* set sleep mode */
    2ebc:	33 b7       	in	r19, 0x33	; 51
    2ebe:	31 7f       	andi	r19, 0xF1	; 241
    2ec0:	23 2b       	or	r18, r19
    2ec2:	23 bf       	out	0x33, r18	; 51
  #endif

  if (SREG & (1 << SREG_I))        /* if interrupts are already enabled */
    2ec4:	0f b6       	in	r0, 0x3f	; 63
    2ec6:	07 fc       	sbrc	r0, 7
    2ec8:	03 c0       	rjmp	.+6      	; 0x2ed0 <MilliSleep+0x74>
  {
    Flag = 1;                      /* keep that in mind */
  }
  else                             /* otherwise */
  {
    sei();                         /* enable interrupts */
    2eca:	78 94       	sei

void MilliSleep(uint16_t Time)
{
  uint32_t               Cycles;        /* timer cycles */
  uint8_t                Timeout;       /* compare value */
  uint8_t                Flag = 0;      /* interrupt flag */
    2ecc:	30 e0       	ldi	r19, 0x00	; 0
    2ece:	01 c0       	rjmp	.+2      	; 0x2ed2 <MilliSleep+0x76>
  set_sleep_mode(Mode);            /* set sleep mode */
  #endif

  if (SREG & (1 << SREG_I))        /* if interrupts are already enabled */
  {
    Flag = 1;                      /* keep that in mind */
    2ed0:	31 e0       	ldi	r19, 0x01	; 1

    /* update timer */
    OCR2A = Timeout;               /* set compare value (timeout) */

    /* start timer by setting clock prescaler to 1024 */
    TCCR2B = (1 << CS22) | (1 << CS21) | (1 << CS20);
    2ed2:	47 e0       	ldi	r20, 0x07	; 7
  /*
   *  processing loop
   *  - sleep for several intervals until requested time is reached
   */

  while (Cycles > 0)
    2ed4:	00 97       	sbiw	r24, 0x00	; 0
    2ed6:	a1 05       	cpc	r26, r1
    2ed8:	b1 05       	cpc	r27, r1
    2eda:	f9 f0       	breq	.+62     	; 0x2f1a <MilliSleep+0xbe>
  {
    wdt_reset();              /* reset watchdog */
    2edc:	a8 95       	wdr

    /*
     *  manage timeout
     */

    if (Cycles > 255)         /* prevent 8 bit overflow */
    2ede:	8f 3f       	cpi	r24, 0xFF	; 255
    2ee0:	91 05       	cpc	r25, r1
    2ee2:	a1 05       	cpc	r26, r1
    2ee4:	b1 05       	cpc	r27, r1
    2ee6:	09 f0       	breq	.+2      	; 0x2eea <MilliSleep+0x8e>
    2ee8:	10 f4       	brcc	.+4      	; 0x2eee <MilliSleep+0x92>
    {
      Timeout = 255;          /* use maximum */
    }
    else                      /* within 8 bit range */
    {
      Timeout = (uint8_t)Cycles;
    2eea:	28 2f       	mov	r18, r24
    2eec:	01 c0       	rjmp	.+2      	; 0x2ef0 <MilliSleep+0x94>
     *  manage timeout
     */

    if (Cycles > 255)         /* prevent 8 bit overflow */
    {
      Timeout = 255;          /* use maximum */
    2eee:	2f ef       	ldi	r18, 0xFF	; 255
    else                      /* within 8 bit range */
    {
      Timeout = (uint8_t)Cycles;
    }

    Cycles -= Timeout;        /* update counter */
    2ef0:	82 1b       	sub	r24, r18
    2ef2:	91 09       	sbc	r25, r1
    2ef4:	a1 09       	sbc	r26, r1
    2ef6:	b1 09       	sbc	r27, r1
    Timeout--;                /* interrupt is triggered by cycle after match */
    2ef8:	21 50       	subi	r18, 0x01	; 1
    /* todo: what happens if Timeout is 0? */

    /* update timer */
    OCR2A = Timeout;               /* set compare value (timeout) */
    2efa:	20 93 b3 00 	sts	0x00B3, r18	; 0x8000b3 <__DATA_REGION_ORIGIN__+0x53>

    /* start timer by setting clock prescaler to 1024 */
    TCCR2B = (1 << CS22) | (1 << CS21) | (1 << CS20);
    2efe:	40 93 b1 00 	sts	0x00B1, r20	; 0x8000b1 <__DATA_REGION_ORIGIN__+0x51>
     *  sleep
     *  - since any interrupt would wake up the MCU we have to make sure
     *    that we track the right interrupt
     */

    while (TCCR2B != 0)       /* as long as Timer2 is running */
    2f02:	20 91 b1 00 	lds	r18, 0x00B1	; 0x8000b1 <__DATA_REGION_ORIGIN__+0x51>
    2f06:	22 23       	and	r18, r18
    2f08:	29 f3       	breq	.-54     	; 0x2ed4 <MilliSleep+0x78>
    {
      #ifdef SAVE_POWER
        /* enter sleep mode to save power */
        sleep_mode();              /* sleep (again) */
    2f0a:	23 b7       	in	r18, 0x33	; 51
    2f0c:	21 60       	ori	r18, 0x01	; 1
    2f0e:	23 bf       	out	0x33, r18	; 51
    2f10:	88 95       	sleep
    2f12:	23 b7       	in	r18, 0x33	; 51
    2f14:	2e 7f       	andi	r18, 0xFE	; 254
    2f16:	23 bf       	out	0x33, r18	; 51
    2f18:	f4 cf       	rjmp	.-24     	; 0x2f02 <MilliSleep+0xa6>
        );
      #endif
    }
  }

  if (Flag == 0)              /* restore former interrupt setting */
    2f1a:	31 11       	cpse	r19, r1
    2f1c:	01 c0       	rjmp	.+2      	; 0x2f20 <MilliSleep+0xc4>
  {
    cli();                    /* disable interrupts */
    2f1e:	f8 94       	cli
    2f20:	08 95       	ret

00002f22 <__vector_7>:
/*
 *  ISR for match of Timer2's OCR2A (Output Compare Register A)
 */

ISR(TIMER2_COMPA_vect, ISR_BLOCK)
{
    2f22:	1f 92       	push	r1
    2f24:	0f 92       	push	r0
    2f26:	0f b6       	in	r0, 0x3f	; 63
    2f28:	0f 92       	push	r0
    2f2a:	11 24       	eor	r1, r1
   *  - the OCF2A interrupt flag is cleared automatically
   *  - interrupt processing is disabled while this ISR runs
   *    (no nested interrupts)
   */

  TCCR2B = 0;                 /* stop Timer2 */
    2f2c:	10 92 b1 00 	sts	0x00B1, r1	; 0x8000b1 <__DATA_REGION_ORIGIN__+0x51>
}
    2f30:	0f 90       	pop	r0
    2f32:	0f be       	out	0x3f, r0	; 63
    2f34:	0f 90       	pop	r0
    2f36:	1f 90       	pop	r1
    2f38:	18 95       	reti

00002f3a <SetAdjustmentDefaults>:
{
  /*
   *  set defaults for basic offsets/values
   */

  NV.RiL = R_MCU_LOW;
    2f3a:	ed ed       	ldi	r30, 0xDD	; 221
    2f3c:	f1 e0       	ldi	r31, 0x01	; 1
    2f3e:	88 ec       	ldi	r24, 0xC8	; 200
    2f40:	90 e0       	ldi	r25, 0x00	; 0
    2f42:	91 83       	std	Z+1, r25	; 0x01
    2f44:	80 83       	st	Z, r24
  NV.RiH = R_MCU_HIGH;
    2f46:	8c ed       	ldi	r24, 0xDC	; 220
    2f48:	90 e0       	ldi	r25, 0x00	; 0
    2f4a:	93 83       	std	Z+3, r25	; 0x03
    2f4c:	82 83       	std	Z+2, r24	; 0x02
  #ifdef R_MULTIOFFSET
  NV.RZero[0] = R_ZERO;
  NV.RZero[1] = R_ZERO;
  NV.RZero[2] = R_ZERO;
  #else
  NV.RZero = R_ZERO;
    2f4e:	84 e1       	ldi	r24, 0x14	; 20
    2f50:	90 e0       	ldi	r25, 0x00	; 0
    2f52:	95 83       	std	Z+5, r25	; 0x05
    2f54:	84 83       	std	Z+4, r24	; 0x04
  #ifdef CAP_MULTIOFFSET
  NV.CapZero[0] = C_ZERO;
  NV.CapZero[1] = C_ZERO;
  NV.CapZero[2] = C_ZERO;
  #else
  NV.CapZero = C_ZERO;
    2f56:	8b e2       	ldi	r24, 0x2B	; 43
    2f58:	86 83       	std	Z+6, r24	; 0x06
  #endif

  NV.RefOffset = UREF_OFFSET;
    2f5a:	17 82       	std	Z+7, r1	; 0x07
  NV.CompOffset = COMPARATOR_OFFSET;
    2f5c:	10 86       	std	Z+8, r1	; 0x08
  NV.Contrast = LCD_CONTRAST;
    2f5e:	11 86       	std	Z+9, r1	; 0x09
    2f60:	08 95       	ret

00002f62 <CheckSum>:

uint8_t CheckSum(void)
{
  uint8_t      Checksum = 0;            /* checksum / return value */
  uint8_t      n;                       /* counter */
  uint8_t      *Data = (uint8_t *)&NV;  /* pointer to RAM */
    2f62:	ed ed       	ldi	r30, 0xDD	; 221
    2f64:	f1 e0       	ldi	r31, 0x01	; 1
 *  calculate checksum for adjustment values
 */

uint8_t CheckSum(void)
{
  uint8_t      Checksum = 0;            /* checksum / return value */
    2f66:	80 e0       	ldi	r24, 0x00	; 0
  uint8_t      *Data = (uint8_t *)&NV;  /* pointer to RAM */

  /* we simply add all bytes, besides the checksum */
  for (n = 0; n < (sizeof(Adjust_Type) - 1); n++)
  {  
    Checksum += *Data;        /* add byte */
    2f68:	91 91       	ld	r25, Z+
    2f6a:	89 0f       	add	r24, r25
  uint8_t      Checksum = 0;            /* checksum / return value */
  uint8_t      n;                       /* counter */
  uint8_t      *Data = (uint8_t *)&NV;  /* pointer to RAM */

  /* we simply add all bytes, besides the checksum */
  for (n = 0; n < (sizeof(Adjust_Type) - 1); n++)
    2f6c:	91 e0       	ldi	r25, 0x01	; 1
    2f6e:	e7 3e       	cpi	r30, 0xE7	; 231
    2f70:	f9 07       	cpc	r31, r25
    2f72:	d1 f7       	brne	.-12     	; 0x2f68 <CheckSum+0x6>
    Checksum += *Data;        /* add byte */
    Data++;                   /* next byte */
  }

  /* fix for zero (not updated yet) */
  if (Checksum == 0) Checksum++;
    2f74:	81 11       	cpse	r24, r1
    2f76:	01 c0       	rjmp	.+2      	; 0x2f7a <CheckSum+0x18>
    2f78:	81 e0       	ldi	r24, 0x01	; 1

  return Checksum;
}
    2f7a:	08 95       	ret

00002f7c <ManageAdjustmentStorage>:
 *    STORAGE_SAVE  save data from RAM to EEPROM
 *  - ID: profile ID
 */

void ManageAdjustmentStorage(uint8_t Mode, uint8_t ID)
{
    2f7c:	ef 92       	push	r14
    2f7e:	ff 92       	push	r15
    2f80:	0f 93       	push	r16
    2f82:	1f 93       	push	r17
    2f84:	cf 93       	push	r28
    2f86:	df 93       	push	r29
    2f88:	e8 2e       	mov	r14, r24
  uint8_t      n;                            /* counter */
  uint8_t      *Addr_RAM = (uint8_t *)&NV;   /* pointer to RAM */
  uint8_t      *Addr_EE;                     /* pointer to EEPROM */

  /* determine EEPROM address */
  if (ID == 2)                     /* profile #2 */
    2f8a:	62 30       	cpi	r22, 0x02	; 2
    2f8c:	19 f0       	breq	.+6      	; 0x2f94 <ManageAdjustmentStorage+0x18>
  {
    Addr_EE = (uint8_t *)&NV_Adjust_2;
  }
  else                             /* profile #1 */
  {
    Addr_EE = (uint8_t *)&NV_Adjust_1;
    2f8e:	c6 e0       	ldi	r28, 0x06	; 6
    2f90:	d3 e0       	ldi	r29, 0x03	; 3
    2f92:	02 c0       	rjmp	.+4      	; 0x2f98 <ManageAdjustmentStorage+0x1c>
  uint8_t      *Addr_EE;                     /* pointer to EEPROM */

  /* determine EEPROM address */
  if (ID == 2)                     /* profile #2 */
  {
    Addr_EE = (uint8_t *)&NV_Adjust_2;
    2f94:	cb ef       	ldi	r28, 0xFB	; 251
    2f96:	d2 e0       	ldi	r29, 0x02	; 2
  else                             /* profile #1 */
  {
    Addr_EE = (uint8_t *)&NV_Adjust_1;
  }

  NV.CheckSum = CheckSum();        /* update checksum */
    2f98:	0e 94 b1 17 	call	0x2f62	; 0x2f62 <CheckSum>
    2f9c:	80 93 e7 01 	sts	0x01E7, r24	; 0x8001e7 <NV+0xa>
    2fa0:	8b e0       	ldi	r24, 0x0B	; 11
    2fa2:	f8 2e       	mov	r15, r24
 */

void ManageAdjustmentStorage(uint8_t Mode, uint8_t ID)
{
  uint8_t      n;                            /* counter */
  uint8_t      *Addr_RAM = (uint8_t *)&NV;   /* pointer to RAM */
    2fa4:	0d ed       	ldi	r16, 0xDD	; 221
    2fa6:	11 e0       	ldi	r17, 0x01	; 1
   *  read/write EEPROM byte-wise to/from data structure 
   */

  for (n = 0; n < sizeof(Adjust_Type); n++)
  {
    if (Mode == STORAGE_SAVE)           /* write */
    2fa8:	82 e0       	ldi	r24, 0x02	; 2
    2faa:	e8 12       	cpse	r14, r24
    2fac:	06 c0       	rjmp	.+12     	; 0x2fba <ManageAdjustmentStorage+0x3e>
    {
      eeprom_write_byte(Addr_EE, *Addr_RAM);    /* write a byte */
    2fae:	f8 01       	movw	r30, r16
    2fb0:	60 81       	ld	r22, Z
    2fb2:	ce 01       	movw	r24, r28
    2fb4:	0e 94 a8 3f 	call	0x7f50	; 0x7f50 <eeprom_write_byte>
    2fb8:	05 c0       	rjmp	.+10     	; 0x2fc4 <ManageAdjustmentStorage+0x48>
    }
    else                                /* read */
    {
      *Addr_RAM = eeprom_read_byte(Addr_EE);    /* read a byte */
    2fba:	ce 01       	movw	r24, r28
    2fbc:	0e 94 9a 3f 	call	0x7f34	; 0x7f34 <eeprom_read_byte>
    2fc0:	f8 01       	movw	r30, r16
    2fc2:	80 83       	st	Z, r24
    }

    Addr_RAM++;               /* next byte */
    2fc4:	0f 5f       	subi	r16, 0xFF	; 255
    2fc6:	1f 4f       	sbci	r17, 0xFF	; 255
    Addr_EE++;                /* next byte */
    2fc8:	21 96       	adiw	r28, 0x01	; 1
    2fca:	fa 94       	dec	r15

  /*
   *  read/write EEPROM byte-wise to/from data structure 
   */

  for (n = 0; n < sizeof(Adjust_Type); n++)
    2fcc:	f1 10       	cpse	r15, r1
    2fce:	ec cf       	rjmp	.-40     	; 0x2fa8 <ManageAdjustmentStorage+0x2c>

  /*
   *  check checksum on read
   */

  if (Mode != STORAGE_SAVE)        /* read mode */
    2fd0:	f2 e0       	ldi	r31, 0x02	; 2
    2fd2:	ef 16       	cp	r14, r31
    2fd4:	c1 f0       	breq	.+48     	; 0x3006 <ManageAdjustmentStorage+0x8a>
  {
    n = CheckSum();                /* get checksum */
    2fd6:	0e 94 b1 17 	call	0x2f62	; 0x2f62 <CheckSum>

    if (NV.CheckSum != 0)          /* EEPROM updated */
    2fda:	90 91 e7 01 	lds	r25, 0x01E7	; 0x8001e7 <NV+0xa>
    2fde:	99 23       	and	r25, r25
    2fe0:	91 f0       	breq	.+36     	; 0x3006 <ManageAdjustmentStorage+0x8a>
    {
      if (NV.CheckSum != n)        /* mismatch */
    2fe2:	89 17       	cp	r24, r25
    2fe4:	81 f0       	breq	.+32     	; 0x3006 <ManageAdjustmentStorage+0x8a>
      {
        /* tell user */
        LCD_Clear();
    2fe6:	0e 94 31 3b 	call	0x7662	; 0x7662 <LCD_Clear>
        Display_EEString(Checksum_str);      /* display: Checksum */
    2fea:	85 e5       	ldi	r24, 0x55	; 85
    2fec:	92 e0       	ldi	r25, 0x02	; 2
    2fee:	0e 94 43 20 	call	0x4086	; 0x4086 <Display_EEString>
        Display_NL_EEString(Error_str);      /* display: error! */
    2ff2:	83 e6       	ldi	r24, 0x63	; 99
    2ff4:	92 e0       	ldi	r25, 0x02	; 2
    2ff6:	0e 94 77 20 	call	0x40ee	; 0x40ee <Display_NL_EEString>
        MilliSleep(2000);                    /* give user some time to read */
    2ffa:	80 ed       	ldi	r24, 0xD0	; 208
    2ffc:	97 e0       	ldi	r25, 0x07	; 7
    2ffe:	0e 94 2e 17 	call	0x2e5c	; 0x2e5c <MilliSleep>

        SetAdjustmentDefaults();             /* set defaults */
    3002:	0e 94 9d 17 	call	0x2f3a	; 0x2f3a <SetAdjustmentDefaults>
      }
    }
  }
}
    3006:	cd b7       	in	r28, 0x3d	; 61
    3008:	de b7       	in	r29, 0x3e	; 62
    300a:	e6 e0       	ldi	r30, 0x06	; 6
    300c:	0c 94 3f 3f 	jmp	0x7e7e	; 0x7e7e <__epilogue_restores__+0x18>

00003010 <ShowAdjustmentValues>:
 *  show basic adjustment values and offsets
 */

void ShowAdjustmentValues(void)
{
  UI.LineMode = LINE_KEY;     /* next-line mode: wait for key/timeout */
    3010:	81 e0       	ldi	r24, 0x01	; 1
    3012:	80 93 26 01 	sts	0x0126, r24	; 0x800126 <UI>

  /* display RiL and RiH (values are in 0.1 Ohms) */
  LCD_Clear();
    3016:	0e 94 31 3b 	call	0x7662	; 0x7662 <LCD_Clear>
  Display_EEString_Space(RiLow_str);              /* display: Ri- */
    301a:	8b e5       	ldi	r24, 0x5B	; 91
    301c:	91 e0       	ldi	r25, 0x01	; 1
    301e:	0e 94 72 20 	call	0x40e4	; 0x40e4 <Display_EEString_Space>
  Display_Value(NV.RiL, -1, LCD_CHAR_OMEGA);
    3022:	60 91 dd 01 	lds	r22, 0x01DD	; 0x8001dd <NV>
    3026:	70 91 de 01 	lds	r23, 0x01DE	; 0x8001de <NV+0x1>
    302a:	80 e0       	ldi	r24, 0x00	; 0
    302c:	90 e0       	ldi	r25, 0x00	; 0
    302e:	24 e0       	ldi	r18, 0x04	; 4
    3030:	4f ef       	ldi	r20, 0xFF	; 255
    3032:	0e 94 fa 20 	call	0x41f4	; 0x41f4 <Display_Value>
  Display_NL_EEString_Space(RiHigh_str);          /* display: Ri+ */
    3036:	87 e5       	ldi	r24, 0x57	; 87
    3038:	91 e0       	ldi	r25, 0x01	; 1
    303a:	0e 94 82 20 	call	0x4104	; 0x4104 <Display_NL_EEString_Space>
  Display_Value(NV.RiH, -1, LCD_CHAR_OMEGA);
    303e:	60 91 df 01 	lds	r22, 0x01DF	; 0x8001df <NV+0x2>
    3042:	70 91 e0 01 	lds	r23, 0x01E0	; 0x8001e0 <NV+0x3>
    3046:	80 e0       	ldi	r24, 0x00	; 0
    3048:	90 e0       	ldi	r25, 0x00	; 0
    304a:	24 e0       	ldi	r18, 0x04	; 4
    304c:	4f ef       	ldi	r20, 0xFF	; 255
    304e:	0e 94 fa 20 	call	0x41f4	; 0x41f4 <Display_Value>

  /* display C-Zero (values are in pF) */
  Display_NL_EEString_Space(CapOffset_str);       /* display: C0 */
    3052:	81 e4       	ldi	r24, 0x41	; 65
    3054:	91 e0       	ldi	r25, 0x01	; 1
    3056:	0e 94 82 20 	call	0x4104	; 0x4104 <Display_NL_EEString_Space>
  Display_Space();                           /* display space */
  Display_Value(NV.CapZero[1], 0, 0);        /* display C0 offset for probes 1-3 */
  Display_Space();                           /* display space */
  Display_Value(NV.CapZero[2], -12, 'F');    /* display C0 offset for probes 2-3 */
  #else
  Display_Value(NV.CapZero, -12, 'F');       /* display C0 offset */
    305a:	60 91 e3 01 	lds	r22, 0x01E3	; 0x8001e3 <NV+0x6>
    305e:	70 e0       	ldi	r23, 0x00	; 0
    3060:	80 e0       	ldi	r24, 0x00	; 0
    3062:	90 e0       	ldi	r25, 0x00	; 0
    3064:	26 e4       	ldi	r18, 0x46	; 70
    3066:	44 ef       	ldi	r20, 0xF4	; 244
    3068:	0e 94 fa 20 	call	0x41f4	; 0x41f4 <Display_Value>
  #endif

  /* display R-Zero (values are in 0.01 Ohms) */
  Display_NL_EEString_Space(ROffset_str);    /* display: R0 */
    306c:	8e e3       	ldi	r24, 0x3E	; 62
    306e:	91 e0       	ldi	r25, 0x01	; 1
    3070:	0e 94 82 20 	call	0x4104	; 0x4104 <Display_NL_EEString_Space>
  Display_Value(NV.RZero[1], -2, 0);         /* display R0 offset for probes 1-3 */
  Display_NextLine();
  Display_Space();                           /* display space */
  Display_Value(NV.RZero[2], -2, LCD_CHAR_OMEGA); /* display R0 offset for probes 2-3 */
  #else
  Display_Value(NV.RZero, -2, LCD_CHAR_OMEGA);    /* display R0 */
    3074:	60 91 e1 01 	lds	r22, 0x01E1	; 0x8001e1 <NV+0x4>
    3078:	70 91 e2 01 	lds	r23, 0x01E2	; 0x8001e2 <NV+0x5>
    307c:	80 e0       	ldi	r24, 0x00	; 0
    307e:	90 e0       	ldi	r25, 0x00	; 0
    3080:	24 e0       	ldi	r18, 0x04	; 4
    3082:	4e ef       	ldi	r20, 0xFE	; 254
    3084:	0e 94 fa 20 	call	0x41f4	; 0x41f4 <Display_Value>
  #endif

  /* display internal bandgap reference (value is in mV) */
  Display_NL_EEString_Space(URef_str);       /* display: Vref */
    3088:	87 e6       	ldi	r24, 0x67	; 103
    308a:	91 e0       	ldi	r25, 0x01	; 1
    308c:	0e 94 82 20 	call	0x4104	; 0x4104 <Display_NL_EEString_Space>
  Display_Value(Cfg.Bandgap, -3, 'V');       /* display bandgap ref */
    3090:	60 91 a6 01 	lds	r22, 0x01A6	; 0x8001a6 <Cfg+0x6>
    3094:	70 91 a7 01 	lds	r23, 0x01A7	; 0x8001a7 <Cfg+0x7>
    3098:	80 e0       	ldi	r24, 0x00	; 0
    309a:	90 e0       	ldi	r25, 0x00	; 0
    309c:	26 e5       	ldi	r18, 0x56	; 86
    309e:	4d ef       	ldi	r20, 0xFD	; 253
    30a0:	0e 94 fa 20 	call	0x41f4	; 0x41f4 <Display_Value>

  /* display Vcc (value is in mV) */
  Display_NL_EEString_Space(Vcc_str);        /* display: Vcc */
    30a4:	8a e3       	ldi	r24, 0x3A	; 58
    30a6:	91 e0       	ldi	r25, 0x01	; 1
    30a8:	0e 94 82 20 	call	0x4104	; 0x4104 <Display_NL_EEString_Space>
  Display_Value(Cfg.Vcc, -3, 'V');           /* display Vcc */
    30ac:	60 91 a8 01 	lds	r22, 0x01A8	; 0x8001a8 <Cfg+0x8>
    30b0:	70 91 a9 01 	lds	r23, 0x01A9	; 0x8001a9 <Cfg+0x9>
    30b4:	80 e0       	ldi	r24, 0x00	; 0
    30b6:	90 e0       	ldi	r25, 0x00	; 0
    30b8:	26 e5       	ldi	r18, 0x56	; 86
    30ba:	4d ef       	ldi	r20, 0xFD	; 253
    30bc:	0e 94 fa 20 	call	0x41f4	; 0x41f4 <Display_Value>

  #ifdef HW_REF25
  /* show if external voltage reference is used */
  if (Cfg.OP_Mode & OP_EXT_REF)         /* external 2.5V reference used */
    30c0:	80 91 a0 01 	lds	r24, 0x01A0	; 0x8001a0 <Cfg>
    30c4:	82 ff       	sbrs	r24, 2
    30c6:	05 c0       	rjmp	.+10     	; 0x30d2 <ShowAdjustmentValues+0xc2>
  {
    Display_Space();                    /* display space */
    30c8:	0e 94 6e 20 	call	0x40dc	; 0x40dc <Display_Space>
    Display_Char('*');                  /* display: * */
    30cc:	8a e2       	ldi	r24, 0x2A	; 42
    30ce:	0e 94 8a 3b 	call	0x7714	; 0x7714 <LCD_Char>
  }
  #endif

  /* display offset of analog comparator (value is in mV) */
  Display_NL_EEString_Space(CompOffset_str);      /* display: AComp */
    30d2:	84 e3       	ldi	r24, 0x34	; 52
    30d4:	91 e0       	ldi	r25, 0x01	; 1
    30d6:	0e 94 82 20 	call	0x4104	; 0x4104 <Display_NL_EEString_Space>
  Display_SignedValue(NV.CompOffset, -3, 'V');    /* display offset */
    30da:	60 91 e5 01 	lds	r22, 0x01E5	; 0x8001e5 <NV+0x8>
    30de:	06 2e       	mov	r0, r22
    30e0:	00 0c       	add	r0, r0
    30e2:	77 0b       	sbc	r23, r23
    30e4:	88 0b       	sbc	r24, r24
    30e6:	99 0b       	sbc	r25, r25
    30e8:	26 e5       	ldi	r18, 0x56	; 86
    30ea:	4d ef       	ldi	r20, 0xFD	; 253
    30ec:	0e 94 82 21 	call	0x4304	; 0x4304 <Display_SignedValue>

  WaitKey();                  /* let the user read */
    30f0:	0e 94 3c 15 	call	0x2a78	; 0x2a78 <WaitKey>
    30f4:	08 95       	ret

000030f6 <SelfAdjustment>:
 *  - 0 on error
 *  - 1 on success
 */

uint8_t SelfAdjustment(void)
{
    30f6:	a5 e0       	ldi	r26, 0x05	; 5
    30f8:	b0 e0       	ldi	r27, 0x00	; 0
    30fa:	e1 e8       	ldi	r30, 0x81	; 129
    30fc:	f8 e1       	ldi	r31, 0x18	; 24
    30fe:	0c 94 17 3f 	jmp	0x7e2e	; 0x7e2e <__prologue_saves__>
  /*
   *  measurements
   */

  /* make sure all probes are shorted */
  Flag = ShortCircuit(1);
    3102:	81 e0       	ldi	r24, 0x01	; 1
    3104:	0e 94 4d 15 	call	0x2a9a	; 0x2a9a <ShortCircuit>
    3108:	61 2c       	mov	r6, r1
    310a:	71 2c       	mov	r7, r1
    310c:	1b 82       	std	Y+3, r1	; 0x03
    310e:	a1 2c       	mov	r10, r1
    3110:	b1 2c       	mov	r11, r1
    3112:	1a 82       	std	Y+2, r1	; 0x02
    3114:	c1 2c       	mov	r12, r1
    3116:	d1 2c       	mov	r13, r1
    3118:	41 2c       	mov	r4, r1
  if (Flag == 0)              /* aborted */
    311a:	88 23       	and	r24, r24
    311c:	09 f4       	brne	.+2      	; 0x3120 <SelfAdjustment+0x2a>
    311e:	83 c1       	rjmp	.+774    	; 0x3426 <SelfAdjustment+0x330>
    3120:	81 2c       	mov	r8, r1
    3122:	91 2c       	mov	r9, r1
    3124:	21 2c       	mov	r2, r1
    3126:	e1 2c       	mov	r14, r1
    3128:	f1 2c       	mov	r15, r1
    312a:	00 e0       	ldi	r16, 0x00	; 0
    312c:	10 e0       	ldi	r17, 0x00	; 0
    312e:	1d 82       	std	Y+5, r1	; 0x05
    3130:	1c 82       	std	Y+4, r1	; 0x04
  #endif

  #ifdef HW_ADJUST_CAP
    Step = 1;            /* start with step #1 */
  #else
    Step = 2;            /* start with step #2 */
    3132:	62 e0       	ldi	r22, 0x02	; 2
    3134:	56 2e       	mov	r5, r22
        case 4:     /* internal resistance of MCU pin in pull-down mode */
          Display_EEString(RiLow_str);  /* display: Ri- */

          /* TP1:  Gnd -- RiL -- probe-1 -- Rl -- RiH -- Vcc */
          ADC_PORT = 0;
          ADC_DDR = (1 << TP1);
    3136:	33 24       	eor	r3, r3
    3138:	33 94       	inc	r3
  #endif

  #ifdef HW_ADJUST_CAP
    Step = 1;            /* start with step #1 */
  #else
    Step = 2;            /* start with step #2 */
    313a:	21 e0       	ldi	r18, 0x01	; 1
    313c:	29 83       	std	Y+1, r18	; 0x01

    /* repeat each measurement 5 times */
    while (Flag <= 5)
    {
      /* display step number */
      LCD_Clear();
    313e:	0e 94 31 3b 	call	0x7662	; 0x7662 <LCD_Clear>
      Display_Char('A');                /* display: A (for Adjust) */
    3142:	81 e4       	ldi	r24, 0x41	; 65
    3144:	0e 94 8a 3b 	call	0x7714	; 0x7714 <LCD_Char>
      Display_Char('0' + Step);         /* display number */
    3148:	80 e3       	ldi	r24, 0x30	; 48
    314a:	85 0d       	add	r24, r5
    314c:	0e 94 8a 3b 	call	0x7714	; 0x7714 <LCD_Char>
      Display_Space();
    3150:	0e 94 6e 20 	call	0x40dc	; 0x40dc <Display_Space>

      /*
       *  adjustment steps
       */

      switch (Step)
    3154:	34 e0       	ldi	r19, 0x04	; 4
    3156:	53 16       	cp	r5, r19
    3158:	09 f4       	brne	.+2      	; 0x315c <SelfAdjustment+0x66>
    315a:	51 c0       	rjmp	.+162    	; 0x31fe <SelfAdjustment+0x108>
    315c:	35 15       	cp	r19, r5
    315e:	68 f0       	brcs	.+26     	; 0x317a <SelfAdjustment+0x84>
    3160:	82 e0       	ldi	r24, 0x02	; 2
    3162:	58 16       	cp	r5, r24
    3164:	99 f0       	breq	.+38     	; 0x318c <SelfAdjustment+0x96>
    3166:	93 e0       	ldi	r25, 0x03	; 3
    3168:	59 12       	cpse	r5, r25
    316a:	08 c1       	rjmp	.+528    	; 0x337c <SelfAdjustment+0x286>
          }

          break;

        case 3:     /* un-short probes */
          ShortCircuit(0);              /* make sure probes are not shorted */
    316c:	80 e0       	ldi	r24, 0x00	; 0
    316e:	0e 94 4d 15 	call	0x2a9a	; 0x2a9a <ShortCircuit>
          Flag = 100;                   /* skip test */
          DisplayFlag = 0;              /* don't display any result */
    3172:	80 e0       	ldi	r24, 0x00	; 0

          break;

        case 3:     /* un-short probes */
          ShortCircuit(0);              /* make sure probes are not shorted */
          Flag = 100;                   /* skip test */
    3174:	94 e6       	ldi	r25, 0x64	; 100
    3176:	99 83       	std	Y+1, r25	; 0x01
          DisplayFlag = 0;              /* don't display any result */
          break;
    3178:	02 c1       	rjmp	.+516    	; 0x337e <SelfAdjustment+0x288>

      /*
       *  adjustment steps
       */

      switch (Step)
    317a:	25 e0       	ldi	r18, 0x05	; 5
    317c:	52 16       	cp	r5, r18
    317e:	09 f4       	brne	.+2      	; 0x3182 <SelfAdjustment+0x8c>
    3180:	67 c0       	rjmp	.+206    	; 0x3250 <SelfAdjustment+0x15a>
    3182:	36 e0       	ldi	r19, 0x06	; 6
    3184:	53 16       	cp	r5, r19
    3186:	09 f4       	brne	.+2      	; 0x318a <SelfAdjustment+0x94>
    3188:	a2 c0       	rjmp	.+324    	; 0x32ce <SelfAdjustment+0x1d8>
    318a:	f8 c0       	rjmp	.+496    	; 0x337c <SelfAdjustment+0x286>
          DisplayFlag = 0;                   /* reset flag */
          break;
        #endif        

        case 2:     /* resistance of probe leads (probes shorted) */
          Display_EEString_Space(ROffset_str);    /* display: R0 */
    318c:	8e e3       	ldi	r24, 0x3E	; 62
    318e:	91 e0       	ldi	r25, 0x01	; 1
    3190:	0e 94 72 20 	call	0x40e4	; 0x40e4 <Display_EEString_Space>
          Display_EEString(ProbeComb_str);        /* display: 12 13 23 */          
    3194:	84 e4       	ldi	r24, 0x44	; 68
    3196:	91 e0       	ldi	r25, 0x01	; 1
    3198:	0e 94 43 20 	call	0x4086	; 0x4086 <Display_EEString>
           *  The resistance is for two probes in series and we expect it to be
           *  lower than 1.50 Ohms, i.e. 0.75 Ohms for a single probe.
           */

          /* probe pair 1-2 */
          UpdateProbes(PROBE_2, PROBE_1, 0); /* probes #2 and #1 */
    319c:	40 e0       	ldi	r20, 0x00	; 0
    319e:	60 e0       	ldi	r22, 0x00	; 0
    31a0:	81 e0       	ldi	r24, 0x01	; 1
    31a2:	0e 94 2a 1c 	call	0x3854	; 0x3854 <UpdateProbes>
          Val1 = SmallResistor(0);           /* get R in 0.01 Ohm */
    31a6:	80 e0       	ldi	r24, 0x00	; 0
    31a8:	0e 94 32 22 	call	0x4464	; 0x4464 <SmallResistor>
    31ac:	9d 83       	std	Y+5, r25	; 0x05
    31ae:	8c 83       	std	Y+4, r24	; 0x04
          if (Val1 < 150)                    /* within limit (< 1.5 Ohm) */
    31b0:	86 39       	cpi	r24, 0x96	; 150
    31b2:	91 05       	cpc	r25, r1
    31b4:	18 f4       	brcc	.+6      	; 0x31bc <SelfAdjustment+0xc6>
          {
            #ifdef R_MULTIOFFSET
            RSum1 += Val1;                   /* add R to probe pair sum */
            #else
            RSum += Val1;                    /* add R to total sum */
    31b6:	c8 0e       	add	r12, r24
    31b8:	d9 1e       	adc	r13, r25
            #endif

            RCounter++;                      /* valid measurement */
    31ba:	43 94       	inc	r4
          }

          /* probe pair 1-3 */
          UpdateProbes(PROBE_3, PROBE_1, 0); /* probes #3 and #1 */
    31bc:	40 e0       	ldi	r20, 0x00	; 0
    31be:	60 e0       	ldi	r22, 0x00	; 0
    31c0:	82 e0       	ldi	r24, 0x02	; 2
    31c2:	0e 94 2a 1c 	call	0x3854	; 0x3854 <UpdateProbes>
          Val2 = SmallResistor(0);           /* get R in 0.01 Ohm */
    31c6:	80 e0       	ldi	r24, 0x00	; 0
    31c8:	0e 94 32 22 	call	0x4464	; 0x4464 <SmallResistor>
    31cc:	8c 01       	movw	r16, r24
          if (Val2 < 150)                    /* within limit (< 1.5 Ohm) */
    31ce:	86 39       	cpi	r24, 0x96	; 150
    31d0:	91 05       	cpc	r25, r1
    31d2:	18 f4       	brcc	.+6      	; 0x31da <SelfAdjustment+0xe4>
          {
            #ifdef R_MULTIOFFSET
            RSum2 += Val2;                   /* add R to probe pair sum */
            #else
            RSum += Val2;                    /* add R to total sum */
    31d4:	c8 0e       	add	r12, r24
    31d6:	d9 1e       	adc	r13, r25
            #endif

            RCounter++;                      /* valid measurement */
    31d8:	43 94       	inc	r4
          }

          /* probe pair 2-3 */
          UpdateProbes(PROBE_3, PROBE_2, 0); /* probes #3 and #2 */
    31da:	40 e0       	ldi	r20, 0x00	; 0
    31dc:	61 e0       	ldi	r22, 0x01	; 1
    31de:	82 e0       	ldi	r24, 0x02	; 2
    31e0:	0e 94 2a 1c 	call	0x3854	; 0x3854 <UpdateProbes>
          Val3 = SmallResistor(0);           /* get R in 0.01 Ohm */
    31e4:	80 e0       	ldi	r24, 0x00	; 0
    31e6:	0e 94 32 22 	call	0x4464	; 0x4464 <SmallResistor>
    31ea:	7c 01       	movw	r14, r24
          if (Val3 < 150)                    /* within limit (< 1.5 Ohm) */
    31ec:	86 e9       	ldi	r24, 0x96	; 150
    31ee:	e8 16       	cp	r14, r24
    31f0:	f1 04       	cpc	r15, r1
    31f2:	08 f0       	brcs	.+2      	; 0x31f6 <SelfAdjustment+0x100>
    31f4:	c3 c0       	rjmp	.+390    	; 0x337c <SelfAdjustment+0x286>
          {
            #ifdef R_MULTIOFFSET
            RSum3 += Val3;                   /* add R to probe pair sum */
            #else
            RSum += Val3;                    /* add R to total sum */
    31f6:	ce 0c       	add	r12, r14
    31f8:	df 1c       	adc	r13, r15
            #endif

            RCounter++;                      /* valid measurement */
    31fa:	43 94       	inc	r4
    31fc:	bf c0       	rjmp	.+382    	; 0x337c <SelfAdjustment+0x286>
          Flag = 100;                   /* skip test */
          DisplayFlag = 0;              /* don't display any result */
          break;

        case 4:     /* internal resistance of MCU pin in pull-down mode */
          Display_EEString(RiLow_str);  /* display: Ri- */
    31fe:	8b e5       	ldi	r24, 0x5B	; 91
    3200:	91 e0       	ldi	r25, 0x01	; 1
    3202:	0e 94 43 20 	call	0x4086	; 0x4086 <Display_EEString>

          /* TP1:  Gnd -- RiL -- probe-1 -- Rl -- RiH -- Vcc */
          ADC_PORT = 0;
    3206:	18 b8       	out	0x08, r1	; 8
          ADC_DDR = (1 << TP1);
    3208:	37 b8       	out	0x07, r3	; 7
          R_PORT = (1 << R_RL_1);
    320a:	35 b8       	out	0x05, r3	; 5
          R_DDR = (1 << R_RL_1);
    320c:	34 b8       	out	0x04, r3	; 4
          Val1 = ReadU_5ms(TP1);             /* U across RiL */
    320e:	80 e0       	ldi	r24, 0x00	; 0
    3210:	0e 94 18 1c 	call	0x3830	; 0x3830 <ReadU_5ms>
    3214:	9d 83       	std	Y+5, r25	; 0x05
    3216:	8c 83       	std	Y+4, r24	; 0x04
          U_RiL += Val1;                     /* add U to total sum */

          /* TP2: Gnd -- RiL -- probe-2 -- Rl -- RiH -- Vcc */
          ADC_DDR = (1 << TP2);
    3218:	22 e0       	ldi	r18, 0x02	; 2
    321a:	27 b9       	out	0x07, r18	; 7
          R_PORT =  (1 << R_RL_2);
    321c:	55 b8       	out	0x05, r5	; 5
          R_DDR = (1 << R_RL_2);
    321e:	54 b8       	out	0x04, r5	; 4
          Val2 = ReadU_5ms(TP2);             /* U across RiL */
    3220:	81 e0       	ldi	r24, 0x01	; 1
    3222:	0e 94 18 1c 	call	0x3830	; 0x3830 <ReadU_5ms>
    3226:	8c 01       	movw	r16, r24
          U_RiL += Val2;                     /* add U to total sum */
    3228:	8c 81       	ldd	r24, Y+4	; 0x04
    322a:	9d 81       	ldd	r25, Y+5	; 0x05
    322c:	80 0f       	add	r24, r16
    322e:	91 1f       	adc	r25, r17
    3230:	a8 0e       	add	r10, r24
    3232:	b9 1e       	adc	r11, r25

          /* TP3: Gnd -- RiL -- probe-3 -- Rl -- RiH -- Vcc */
          ADC_DDR = (1 << TP3);
    3234:	57 b8       	out	0x07, r5	; 7
          R_PORT =  (1 << R_RL_3);
    3236:	30 e1       	ldi	r19, 0x10	; 16
    3238:	35 b9       	out	0x05, r19	; 5
          R_DDR = (1 << R_RL_3);
    323a:	34 b9       	out	0x04, r19	; 4
          Val3 = ReadU_5ms(TP3);             /* U across RiL */
    323c:	82 e0       	ldi	r24, 0x02	; 2
    323e:	0e 94 18 1c 	call	0x3830	; 0x3830 <ReadU_5ms>
    3242:	7c 01       	movw	r14, r24
          U_RiL += Val3;                     /* add U to total sum */
    3244:	a8 0e       	add	r10, r24
    3246:	b9 1e       	adc	r11, r25

          RiL_Counter += 3;
    3248:	8a 81       	ldd	r24, Y+2	; 0x02
    324a:	8d 5f       	subi	r24, 0xFD	; 253
    324c:	8a 83       	std	Y+2, r24	; 0x02
    324e:	96 c0       	rjmp	.+300    	; 0x337c <SelfAdjustment+0x286>
          break;

        case 5:     /* internal resistance of MCU pin in pull-up mode */
          Display_EEString(RiHigh_str);      /* display: Ri+ */
    3250:	87 e5       	ldi	r24, 0x57	; 87
    3252:	91 e0       	ldi	r25, 0x01	; 1
    3254:	0e 94 43 20 	call	0x4086	; 0x4086 <Display_EEString>

          /* TP1: Gnd -- RiL -- Rl -- probe-1 -- RiH -- Vcc */
          R_PORT = 0;
    3258:	15 b8       	out	0x05, r1	; 5
          ADC_PORT = (1 << TP1);
    325a:	38 b8       	out	0x08, r3	; 8
          ADC_DDR = (1 << TP1);
    325c:	37 b8       	out	0x07, r3	; 7
          R_DDR = (1 << R_RL_1);
    325e:	34 b8       	out	0x04, r3	; 4
          Val1 = Cfg.Vcc - ReadU_5ms(TP1);   /* U across RiH */
    3260:	20 91 a8 01 	lds	r18, 0x01A8	; 0x8001a8 <Cfg+0x8>
    3264:	30 91 a9 01 	lds	r19, 0x01A9	; 0x8001a9 <Cfg+0x9>
    3268:	3d 83       	std	Y+5, r19	; 0x05
    326a:	2c 83       	std	Y+4, r18	; 0x04
    326c:	80 e0       	ldi	r24, 0x00	; 0
    326e:	0e 94 18 1c 	call	0x3830	; 0x3830 <ReadU_5ms>
    3272:	2c 81       	ldd	r18, Y+4	; 0x04
    3274:	3d 81       	ldd	r19, Y+5	; 0x05
    3276:	28 1b       	sub	r18, r24
    3278:	39 0b       	sbc	r19, r25
    327a:	3d 83       	std	Y+5, r19	; 0x05
    327c:	2c 83       	std	Y+4, r18	; 0x04
          U_RiH += Val1;                     /* add U to total sum */

          /* TP2: Gnd -- RiL -- Rl -- probe-2 -- RiH -- Vcc */
          ADC_PORT = (1 << TP2);
    327e:	32 e0       	ldi	r19, 0x02	; 2
    3280:	38 b9       	out	0x08, r19	; 8
          ADC_DDR = (1 << TP2);
    3282:	37 b9       	out	0x07, r19	; 7
          R_DDR = (1 << R_RL_2);
    3284:	84 e0       	ldi	r24, 0x04	; 4
    3286:	84 b9       	out	0x04, r24	; 4
          Val2 = Cfg.Vcc - ReadU_5ms(TP2);   /* U across RiH */
    3288:	00 91 a8 01 	lds	r16, 0x01A8	; 0x8001a8 <Cfg+0x8>
    328c:	10 91 a9 01 	lds	r17, 0x01A9	; 0x8001a9 <Cfg+0x9>
    3290:	81 e0       	ldi	r24, 0x01	; 1
    3292:	0e 94 18 1c 	call	0x3830	; 0x3830 <ReadU_5ms>
    3296:	08 1b       	sub	r16, r24
    3298:	19 0b       	sbc	r17, r25
          U_RiH += Val2;                     /* add U to total sum */
    329a:	8c 81       	ldd	r24, Y+4	; 0x04
    329c:	9d 81       	ldd	r25, Y+5	; 0x05
    329e:	80 0f       	add	r24, r16
    32a0:	91 1f       	adc	r25, r17
    32a2:	68 0e       	add	r6, r24
    32a4:	79 1e       	adc	r7, r25

          /* TP3: Gnd -- RiL -- Rl -- probe-3 -- RiH -- Vcc */
          ADC_PORT = (1 << TP3);
    32a6:	94 e0       	ldi	r25, 0x04	; 4
    32a8:	98 b9       	out	0x08, r25	; 8
          ADC_DDR = (1 << TP3);
    32aa:	97 b9       	out	0x07, r25	; 7
          R_DDR = (1 << R_RL_3);
    32ac:	20 e1       	ldi	r18, 0x10	; 16
    32ae:	24 b9       	out	0x04, r18	; 4
          Val3 = Cfg.Vcc - ReadU_5ms(TP3);   /* U across RiH */
    32b0:	e0 90 a8 01 	lds	r14, 0x01A8	; 0x8001a8 <Cfg+0x8>
    32b4:	f0 90 a9 01 	lds	r15, 0x01A9	; 0x8001a9 <Cfg+0x9>
    32b8:	82 e0       	ldi	r24, 0x02	; 2
    32ba:	0e 94 18 1c 	call	0x3830	; 0x3830 <ReadU_5ms>
    32be:	e8 1a       	sub	r14, r24
    32c0:	f9 0a       	sbc	r15, r25
          U_RiH += Val3;                     /* add U to total sum */
    32c2:	6e 0c       	add	r6, r14
    32c4:	7f 1c       	adc	r7, r15

          RiH_Counter += 3;
    32c6:	3b 81       	ldd	r19, Y+3	; 0x03
    32c8:	3d 5f       	subi	r19, 0xFD	; 253
    32ca:	3b 83       	std	Y+3, r19	; 0x03
    32cc:	57 c0       	rjmp	.+174    	; 0x337c <SelfAdjustment+0x286>
          break;

        case 6:     /* capacitance offset (PCB and probe leads) */
          Display_EEString_Space(CapOffset_str);  /* display: C0 */
    32ce:	81 e4       	ldi	r24, 0x41	; 65
    32d0:	91 e0       	ldi	r25, 0x01	; 1
    32d2:	0e 94 72 20 	call	0x40e4	; 0x40e4 <Display_EEString_Space>
          Display_EEString(ProbeComb_str);        /* display: 12 13 23 */
    32d6:	84 e4       	ldi	r24, 0x44	; 68
    32d8:	91 e0       	ldi	r25, 0x01	; 1
    32da:	0e 94 43 20 	call	0x4086	; 0x4086 <Display_EEString>
           *  measure the probe pair capacitance
           *  - we expect a value less than 100pF
           */

          /* probe pair 1-2 */
          MeasureCap(PROBE_2, PROBE_1, 0);   /* measure C */
    32de:	40 e0       	ldi	r20, 0x00	; 0
    32e0:	60 e0       	ldi	r22, 0x00	; 0
    32e2:	81 e0       	ldi	r24, 0x01	; 1
    32e4:	0e 94 80 29 	call	0x5300	; 0x5300 <MeasureCap>
          /* limit offset to 100pF */
          if ((Caps[0].Scale == -12) && (Caps[0].Raw <= 100UL))
    32e8:	80 91 51 01 	lds	r24, 0x0151	; 0x800151 <Caps+0x2>
    32ec:	84 3f       	cpi	r24, 0xF4	; 244
    32ee:	91 f4       	brne	.+36     	; 0x3314 <SelfAdjustment+0x21e>
    32f0:	80 91 56 01 	lds	r24, 0x0156	; 0x800156 <Caps+0x7>
    32f4:	90 91 57 01 	lds	r25, 0x0157	; 0x800157 <Caps+0x8>
    32f8:	a0 91 58 01 	lds	r26, 0x0158	; 0x800158 <Caps+0x9>
    32fc:	b0 91 59 01 	lds	r27, 0x0159	; 0x800159 <Caps+0xa>
    3300:	85 36       	cpi	r24, 0x65	; 101
    3302:	91 05       	cpc	r25, r1
    3304:	a1 05       	cpc	r26, r1
    3306:	b1 05       	cpc	r27, r1
    3308:	28 f4       	brcc	.+10     	; 0x3314 <SelfAdjustment+0x21e>
          {
            Val1 = (uint16_t)Caps[0].Raw;    /* get C (in pF) */
    330a:	9d 83       	std	Y+5, r25	; 0x05
    330c:	8c 83       	std	Y+4, r24	; 0x04

            #ifdef CAP_MULTIOFFSET
            CapSum1 += Val1;                 /* add C to probe pair sum */
            #else
            CapSum += Val1;                  /* add C to total sum */
    330e:	88 0e       	add	r8, r24
    3310:	99 1e       	adc	r9, r25
            #endif

            CapCounter++;                    /* valid measurement */
    3312:	23 94       	inc	r2
          }

          /* probe pair 1-3 */
          MeasureCap(PROBE_3, PROBE_1, 1);   /* measure C */
    3314:	41 e0       	ldi	r20, 0x01	; 1
    3316:	60 e0       	ldi	r22, 0x00	; 0
    3318:	82 e0       	ldi	r24, 0x02	; 2
    331a:	0e 94 80 29 	call	0x5300	; 0x5300 <MeasureCap>
          /* limit offset to 100pF */
          if ((Caps[1].Scale == -12) && (Caps[1].Raw <= 100UL))
    331e:	80 91 60 01 	lds	r24, 0x0160	; 0x800160 <Caps+0x11>
    3322:	84 3f       	cpi	r24, 0xF4	; 244
    3324:	89 f4       	brne	.+34     	; 0x3348 <SelfAdjustment+0x252>
    3326:	80 91 65 01 	lds	r24, 0x0165	; 0x800165 <Caps+0x16>
    332a:	90 91 66 01 	lds	r25, 0x0166	; 0x800166 <Caps+0x17>
    332e:	a0 91 67 01 	lds	r26, 0x0167	; 0x800167 <Caps+0x18>
    3332:	b0 91 68 01 	lds	r27, 0x0168	; 0x800168 <Caps+0x19>
    3336:	85 36       	cpi	r24, 0x65	; 101
    3338:	91 05       	cpc	r25, r1
    333a:	a1 05       	cpc	r26, r1
    333c:	b1 05       	cpc	r27, r1
    333e:	20 f4       	brcc	.+8      	; 0x3348 <SelfAdjustment+0x252>
          {
            Val2 = (uint16_t)Caps[1].Raw;    /* get C (in pF) */
    3340:	8c 01       	movw	r16, r24

            #ifdef CAP_MULTIOFFSET
            CapSum2 += Val2;                 /* add C to probe pair sum */
            #else
            CapSum += Val2;                  /* add C to total sum */
    3342:	88 0e       	add	r8, r24
    3344:	99 1e       	adc	r9, r25
            #endif

            CapCounter++;                    /* valid measurement */
    3346:	23 94       	inc	r2
          }

          /* probe pair 2-3 */
          MeasureCap(PROBE_3, PROBE_2, 2);   /* measure C */
    3348:	42 e0       	ldi	r20, 0x02	; 2
    334a:	61 e0       	ldi	r22, 0x01	; 1
    334c:	82 e0       	ldi	r24, 0x02	; 2
    334e:	0e 94 80 29 	call	0x5300	; 0x5300 <MeasureCap>
          /* limit offset to 100pF */
          if ((Caps[2].Scale == -12) && (Caps[2].Raw <= 100UL))
    3352:	80 91 6f 01 	lds	r24, 0x016F	; 0x80016f <Caps+0x20>
    3356:	84 3f       	cpi	r24, 0xF4	; 244
    3358:	89 f4       	brne	.+34     	; 0x337c <SelfAdjustment+0x286>
    335a:	80 91 74 01 	lds	r24, 0x0174	; 0x800174 <Caps+0x25>
    335e:	90 91 75 01 	lds	r25, 0x0175	; 0x800175 <Caps+0x26>
    3362:	a0 91 76 01 	lds	r26, 0x0176	; 0x800176 <Caps+0x27>
    3366:	b0 91 77 01 	lds	r27, 0x0177	; 0x800177 <Caps+0x28>
    336a:	85 36       	cpi	r24, 0x65	; 101
    336c:	91 05       	cpc	r25, r1
    336e:	a1 05       	cpc	r26, r1
    3370:	b1 05       	cpc	r27, r1
    3372:	20 f4       	brcc	.+8      	; 0x337c <SelfAdjustment+0x286>
          {
            Val3 = (uint16_t)Caps[2].Raw;    /* get C (in pF) */
    3374:	7c 01       	movw	r14, r24

            #ifdef CAP_MULTIOFFSET
            CapSum3 += Val3;                 /* add C to probe pair sum */
            #else
            CapSum += Val3;                  /* add C to total sum */
    3376:	88 0e       	add	r8, r24
    3378:	99 1e       	adc	r9, r25
            #endif

            CapCounter++;                    /* valid measurement */
    337a:	23 94       	inc	r2
      LCD_Clear();
      Display_Char('A');                /* display: A (for Adjust) */
      Display_Char('0' + Step);         /* display number */
      Display_Space();

      DisplayFlag = 1;        /* display values by default */
    337c:	81 e0       	ldi	r24, 0x01	; 1

          break;
      }

      /* reset ports to defaults */
      ADC_DDR = 0;                      /* input mode */
    337e:	17 b8       	out	0x07, r1	; 7
      ADC_PORT = 0;                     /* all pins low */
    3380:	18 b8       	out	0x08, r1	; 8
      R_DDR = 0;                        /* input mode */
    3382:	14 b8       	out	0x04, r1	; 4
      R_PORT = 0;                       /* all pins low */
    3384:	15 b8       	out	0x05, r1	; 5

      /* display values */
      if (DisplayFlag)
    3386:	88 23       	and	r24, r24
    3388:	19 f1       	breq	.+70     	; 0x33d0 <SelfAdjustment+0x2da>
      {
        Display_NextLine();             /* move to line #2 */
    338a:	0e 94 0b 20 	call	0x4016	; 0x4016 <Display_NextLine>
        Display_Value(Val1, 0 , 0);     /* display value probe-1 */
    338e:	2c 81       	ldd	r18, Y+4	; 0x04
    3390:	3d 81       	ldd	r19, Y+5	; 0x05
    3392:	c9 01       	movw	r24, r18
    3394:	a0 e0       	ldi	r26, 0x00	; 0
    3396:	b0 e0       	ldi	r27, 0x00	; 0
    3398:	20 e0       	ldi	r18, 0x00	; 0
    339a:	40 e0       	ldi	r20, 0x00	; 0
    339c:	bc 01       	movw	r22, r24
    339e:	cd 01       	movw	r24, r26
    33a0:	0e 94 fa 20 	call	0x41f4	; 0x41f4 <Display_Value>
        Display_Space();
    33a4:	0e 94 6e 20 	call	0x40dc	; 0x40dc <Display_Space>
        Display_Value(Val2, 0 , 0);     /* display value probe-2 */
    33a8:	c8 01       	movw	r24, r16
    33aa:	a0 e0       	ldi	r26, 0x00	; 0
    33ac:	b0 e0       	ldi	r27, 0x00	; 0
    33ae:	20 e0       	ldi	r18, 0x00	; 0
    33b0:	40 e0       	ldi	r20, 0x00	; 0
    33b2:	bc 01       	movw	r22, r24
    33b4:	cd 01       	movw	r24, r26
    33b6:	0e 94 fa 20 	call	0x41f4	; 0x41f4 <Display_Value>
        Display_Space();
    33ba:	0e 94 6e 20 	call	0x40dc	; 0x40dc <Display_Space>
        Display_Value(Val3, 0 , 0);     /* display value probe-3 */
    33be:	c7 01       	movw	r24, r14
    33c0:	a0 e0       	ldi	r26, 0x00	; 0
    33c2:	b0 e0       	ldi	r27, 0x00	; 0
    33c4:	20 e0       	ldi	r18, 0x00	; 0
    33c6:	40 e0       	ldi	r20, 0x00	; 0
    33c8:	bc 01       	movw	r22, r24
    33ca:	cd 01       	movw	r24, r26
    33cc:	0e 94 fa 20 	call	0x41f4	; 0x41f4 <Display_Value>
      }

      /* wait and check test push button */
      if (Flag < 100)                   /* when we don't skip this test */
    33d0:	39 81       	ldd	r19, Y+1	; 0x01
    33d2:	34 36       	cpi	r19, 0x64	; 100
    33d4:	81 f0       	breq	.+32     	; 0x33f6 <SelfAdjustment+0x300>
      {
        /* catch key press or timeout */
        DisplayFlag = TestKey(1000, CHECK_BAT);
    33d6:	60 e1       	ldi	r22, 0x10	; 16
    33d8:	88 ee       	ldi	r24, 0xE8	; 232
    33da:	93 e0       	ldi	r25, 0x03	; 3
    33dc:	0e 94 0b 14 	call	0x2816	; 0x2816 <TestKey>

        /* short press -> next test / long press -> end selftest */
        if (DisplayFlag > KEY_TIMEOUT)
    33e0:	88 23       	and	r24, r24
    33e2:	49 f0       	breq	.+18     	; 0x33f6 <SelfAdjustment+0x300>
        {
          Flag = 100;                   /* skip current test anyway */
          if (DisplayFlag == KEY_LONG) Step = 100;  /* also skip selftest */
    33e4:	82 30       	cpi	r24, 0x02	; 2
    33e6:	29 f4       	brne	.+10     	; 0x33f2 <SelfAdjustment+0x2fc>
    33e8:	54 e6       	ldi	r21, 0x64	; 100
    33ea:	55 2e       	mov	r5, r21
        DisplayFlag = TestKey(1000, CHECK_BAT);

        /* short press -> next test / long press -> end selftest */
        if (DisplayFlag > KEY_TIMEOUT)
        {
          Flag = 100;                   /* skip current test anyway */
    33ec:	84 e6       	ldi	r24, 0x64	; 100
    33ee:	89 83       	std	Y+1, r24	; 0x01
    33f0:	02 c0       	rjmp	.+4      	; 0x33f6 <SelfAdjustment+0x300>
    33f2:	94 e6       	ldi	r25, 0x64	; 100
    33f4:	99 83       	std	Y+1, r25	; 0x01
          if (DisplayFlag == KEY_LONG) Step = 100;  /* also skip selftest */
        } 
      }
 
      Flag++;                           /* next run */
    33f6:	29 81       	ldd	r18, Y+1	; 0x01
    33f8:	2f 5f       	subi	r18, 0xFF	; 255
    33fa:	29 83       	std	Y+1, r18	; 0x01
  while (Step <= 6)      /* loop through steps */
  {
    Flag = 1;            /* reset loop counter */

    /* repeat each measurement 5 times */
    while (Flag <= 5)
    33fc:	26 30       	cpi	r18, 0x06	; 6
    33fe:	08 f4       	brcc	.+2      	; 0x3402 <SelfAdjustment+0x30c>
    3400:	9e ce       	rjmp	.-708    	; 0x313e <SelfAdjustment+0x48>
      }
 
      Flag++;                           /* next run */
    }

    Step++;                             /* next step */
    3402:	53 94       	inc	r5
  if (Flag == 0)              /* aborted */
  {
    Step = 10;                /* skip adjustment */
  }

  while (Step <= 6)      /* loop through steps */
    3404:	36 e0       	ldi	r19, 0x06	; 6
    3406:	35 15       	cp	r19, r5
    3408:	08 f0       	brcs	.+2      	; 0x340c <SelfAdjustment+0x316>
    340a:	97 ce       	rjmp	.-722    	; 0x313a <SelfAdjustment+0x44>
   */

  Flag = 0;                   /* reset adjustment counter */

  /* capacitance auto-zero: calculate average value for probe pairs */
  if (CapCounter == 15)
    340c:	8f e0       	ldi	r24, 0x0F	; 15
    340e:	28 12       	cpse	r2, r24
    3410:	0a c0       	rjmp	.+20     	; 0x3426 <SelfAdjustment+0x330>
    NV.CapZero[0] = CapSum1 / 5;        /* probes 1-2 */
    NV.CapZero[1] = CapSum2 / 5;        /* probes 1-3 */
    NV.CapZero[2] = CapSum3 / 5;        /* probes 2-3 */
    #else
    /* for all probe pairs (in pF) */
    NV.CapZero = CapSum / CapCounter;
    3412:	c4 01       	movw	r24, r8
    3414:	6f e0       	ldi	r22, 0x0F	; 15
    3416:	70 e0       	ldi	r23, 0x00	; 0
    3418:	0e 94 87 3e 	call	0x7d0e	; 0x7d0e <__udivmodhi4>
    341c:	60 93 e3 01 	sts	0x01E3, r22	; 0x8001e3 <NV+0x6>
    #endif

    Flag++;                   /* adjustment done */
    3420:	91 e0       	ldi	r25, 0x01	; 1
    3422:	99 83       	std	Y+1, r25	; 0x01
    3424:	01 c0       	rjmp	.+2      	; 0x3428 <SelfAdjustment+0x332>

  /*
   *  calculate values and offsets
   */

  Flag = 0;                   /* reset adjustment counter */
    3426:	19 82       	std	Y+1, r1	; 0x01

    Flag++;                   /* adjustment done */
  }

  /* resistance auto-zero: calculate average value for probe pairs */
  if (RCounter == 15)
    3428:	2f e0       	ldi	r18, 0x0F	; 15
    342a:	42 12       	cpse	r4, r18
    342c:	0c c0       	rjmp	.+24     	; 0x3446 <SelfAdjustment+0x350>
    NV.RZero[0] = RSum1 / 5;            /* probes 1-2 */
    NV.RZero[1] = RSum2 / 5;            /* probes 1-3 */
    NV.RZero[2] = RSum3 / 5;            /* probes 2-3 */
    #else
    /* for all probe pairs (in 0.01 Ohms) */
    NV.RZero = RSum / RCounter;
    342e:	c6 01       	movw	r24, r12
    3430:	6f e0       	ldi	r22, 0x0F	; 15
    3432:	70 e0       	ldi	r23, 0x00	; 0
    3434:	0e 94 87 3e 	call	0x7d0e	; 0x7d0e <__udivmodhi4>
    3438:	70 93 e2 01 	sts	0x01E2, r23	; 0x8001e2 <NV+0x5>
    343c:	60 93 e1 01 	sts	0x01E1, r22	; 0x8001e1 <NV+0x4>
    #endif

    Flag++;                   /* adjustment done */
    3440:	39 81       	ldd	r19, Y+1	; 0x01
    3442:	3f 5f       	subi	r19, 0xFF	; 255
    3444:	39 83       	std	Y+1, r19	; 0x01
  }

  /* RiL & RiH */
  if ((RiL_Counter == 15) && (RiH_Counter == 15))
    3446:	3a 81       	ldd	r19, Y+2	; 0x02
    3448:	3f 30       	cpi	r19, 0x0F	; 15
    344a:	09 f0       	breq	.+2      	; 0x344e <SelfAdjustment+0x358>
    344c:	6d c0       	rjmp	.+218    	; 0x3528 <SelfAdjustment+0x432>
    344e:	8b 81       	ldd	r24, Y+3	; 0x03
    3450:	8f 30       	cpi	r24, 0x0F	; 15
    3452:	09 f0       	breq	.+2      	; 0x3456 <SelfAdjustment+0x360>
    3454:	62 c0       	rjmp	.+196    	; 0x351a <SelfAdjustment+0x424>
     *  Ri = Rl * (U_Ri / U_Rl)
     *  - scale up by 100, round up/down and scale down by 10
     */

    /* use values multiplied by 3 to increase accuracy */    
    U_RiL /= 5;                         /* average sum of 3 U_RiL */
    3456:	e5 e0       	ldi	r30, 0x05	; 5
    3458:	f0 e0       	ldi	r31, 0x00	; 0
    345a:	c5 01       	movw	r24, r10
    345c:	bf 01       	movw	r22, r30
    345e:	0e 94 87 3e 	call	0x7d0e	; 0x7d0e <__udivmodhi4>
    3462:	9b 01       	movw	r18, r22
    U_RiH /= 5;                         /* average sum of 3 U_RiH */
    3464:	c3 01       	movw	r24, r6
    3466:	bf 01       	movw	r22, r30
    3468:	0e 94 87 3e 	call	0x7d0e	; 0x7d0e <__udivmodhi4>
    346c:	8b 01       	movw	r16, r22
    Val1 = (Cfg.Vcc * 3) - U_RiL - U_RiH;    /* U_Rl * 3 */

    /* RiL */
    Val0 = ((uint32_t)R_LOW * 100 * U_RiL) / Val1;     /* Rl * U_Ri / U_Rl in 0.01 Ohm */
    346e:	80 91 a8 01 	lds	r24, 0x01A8	; 0x8001a8 <Cfg+0x8>
    3472:	90 91 a9 01 	lds	r25, 0x01A9	; 0x8001a9 <Cfg+0x9>
    3476:	6c 01       	movw	r12, r24
    3478:	cc 0c       	add	r12, r12
    347a:	dd 1c       	adc	r13, r13
    347c:	c8 0e       	add	r12, r24
    347e:	d9 1e       	adc	r13, r25
    3480:	c2 1a       	sub	r12, r18
    3482:	d3 0a       	sbc	r13, r19
    3484:	c6 1a       	sub	r12, r22
    3486:	d7 0a       	sbc	r13, r23
    3488:	e1 2c       	mov	r14, r1
    348a:	f1 2c       	mov	r15, r1
    348c:	d9 01       	movw	r26, r18
    348e:	20 ea       	ldi	r18, 0xA0	; 160
    3490:	39 e0       	ldi	r19, 0x09	; 9
    3492:	41 e0       	ldi	r20, 0x01	; 1
    3494:	50 e0       	ldi	r21, 0x00	; 0
    3496:	0e 94 0c 3f 	call	0x7e18	; 0x7e18 <__muluhisi3>
    349a:	a7 01       	movw	r20, r14
    349c:	96 01       	movw	r18, r12
    349e:	0e 94 af 3e 	call	0x7d5e	; 0x7d5e <__udivmodsi4>
    Val0 += 5;                                         /* for automagic rounding */
    34a2:	ca 01       	movw	r24, r20
    34a4:	b9 01       	movw	r22, r18
    34a6:	6b 5f       	subi	r22, 0xFB	; 251
    34a8:	7f 4f       	sbci	r23, 0xFF	; 255
    34aa:	8f 4f       	sbci	r24, 0xFF	; 255
    34ac:	9f 4f       	sbci	r25, 0xFF	; 255
    Val0 /= 10;                                        /* scale down to 0.1 Ohm */
    34ae:	2a e0       	ldi	r18, 0x0A	; 10
    34b0:	30 e0       	ldi	r19, 0x00	; 0
    34b2:	40 e0       	ldi	r20, 0x00	; 0
    34b4:	50 e0       	ldi	r21, 0x00	; 0
    34b6:	0e 94 af 3e 	call	0x7d5e	; 0x7d5e <__udivmodsi4>
    if (Val0 < 250UL)         /* < 25 Ohms */
    34ba:	2a 3f       	cpi	r18, 0xFA	; 250
    34bc:	31 05       	cpc	r19, r1
    34be:	41 05       	cpc	r20, r1
    34c0:	51 05       	cpc	r21, r1
    34c2:	38 f4       	brcc	.+14     	; 0x34d2 <SelfAdjustment+0x3dc>
    {
      NV.RiL = (uint16_t)Val0;
    34c4:	30 93 de 01 	sts	0x01DE, r19	; 0x8001de <NV+0x1>
    34c8:	20 93 dd 01 	sts	0x01DD, r18	; 0x8001dd <NV>
      Flag++;                 /* adjustment done */
    34cc:	99 81       	ldd	r25, Y+1	; 0x01
    34ce:	9f 5f       	subi	r25, 0xFF	; 255
    34d0:	99 83       	std	Y+1, r25	; 0x01
    }

    /* RiH */
    Val0 = ((uint32_t)R_LOW * 100 * U_RiH) / Val1;     /* Rl * U_Ri / U_Rl in 0.01 Ohm */
    34d2:	d8 01       	movw	r26, r16
    34d4:	20 ea       	ldi	r18, 0xA0	; 160
    34d6:	39 e0       	ldi	r19, 0x09	; 9
    34d8:	41 e0       	ldi	r20, 0x01	; 1
    34da:	50 e0       	ldi	r21, 0x00	; 0
    34dc:	0e 94 0c 3f 	call	0x7e18	; 0x7e18 <__muluhisi3>
    34e0:	a7 01       	movw	r20, r14
    34e2:	96 01       	movw	r18, r12
    34e4:	0e 94 af 3e 	call	0x7d5e	; 0x7d5e <__udivmodsi4>
    Val0 += 5;                                         /* for automagic rounding */
    34e8:	ca 01       	movw	r24, r20
    34ea:	b9 01       	movw	r22, r18
    34ec:	6b 5f       	subi	r22, 0xFB	; 251
    34ee:	7f 4f       	sbci	r23, 0xFF	; 255
    34f0:	8f 4f       	sbci	r24, 0xFF	; 255
    34f2:	9f 4f       	sbci	r25, 0xFF	; 255
    Val0 /= 10;                                        /* scale down to 0.1 Ohm */
    34f4:	2a e0       	ldi	r18, 0x0A	; 10
    34f6:	30 e0       	ldi	r19, 0x00	; 0
    34f8:	40 e0       	ldi	r20, 0x00	; 0
    34fa:	50 e0       	ldi	r21, 0x00	; 0
    34fc:	0e 94 af 3e 	call	0x7d5e	; 0x7d5e <__udivmodsi4>
    if (Val0 < 280UL)         /* < 29 Ohms */
    3500:	28 31       	cpi	r18, 0x18	; 24
    3502:	81 e0       	ldi	r24, 0x01	; 1
    3504:	38 07       	cpc	r19, r24
    3506:	41 05       	cpc	r20, r1
    3508:	51 05       	cpc	r21, r1
    350a:	38 f4       	brcc	.+14     	; 0x351a <SelfAdjustment+0x424>
    {
      NV.RiH = (uint16_t)Val0;
    350c:	30 93 e0 01 	sts	0x01E0, r19	; 0x8001e0 <NV+0x3>
    3510:	20 93 df 01 	sts	0x01DF, r18	; 0x8001df <NV+0x2>
      Flag++;                 /* adjustment done */
    3514:	99 81       	ldd	r25, Y+1	; 0x01
    3516:	9f 5f       	subi	r25, 0xFF	; 255
    3518:	99 83       	std	Y+1, r25	; 0x01
    Flag = 0;                 /* signal error */
  }
  #endif

  /* show basic values and offsets */
  ShowAdjustmentValues();
    351a:	0e 94 08 18 	call	0x3010	; 0x3010 <ShowAdjustmentValues>

  if (Flag == 4)         /* all adjustments done */
    351e:	81 e0       	ldi	r24, 0x01	; 1
    3520:	29 81       	ldd	r18, Y+1	; 0x01
    3522:	24 30       	cpi	r18, 0x04	; 4
    3524:	19 f4       	brne	.+6      	; 0x352c <SelfAdjustment+0x436>
    3526:	03 c0       	rjmp	.+6      	; 0x352e <SelfAdjustment+0x438>
    Flag = 0;                 /* signal error */
  }
  #endif

  /* show basic values and offsets */
  ShowAdjustmentValues();
    3528:	0e 94 08 18 	call	0x3010	; 0x3010 <ShowAdjustmentValues>
  {
    Flag = 1;            /* signal success */
  }
  else                   /* missing adjustments */
  {
    Flag = 0;            /* signal error */
    352c:	80 e0       	ldi	r24, 0x00	; 0
  }

  return Flag;
}
    352e:	25 96       	adiw	r28, 0x05	; 5
    3530:	e2 e1       	ldi	r30, 0x12	; 18
    3532:	0c 94 33 3f 	jmp	0x7e66	; 0x7e66 <__epilogue_restores__>

00003536 <SelfTest>:
 *  - 0 on error
 *  - 1 on success
 */

uint8_t SelfTest(void)
{
    3536:	a0 e0       	ldi	r26, 0x00	; 0
    3538:	b0 e0       	ldi	r27, 0x00	; 0
    353a:	e1 ea       	ldi	r30, 0xA1	; 161
    353c:	fa e1       	ldi	r31, 0x1A	; 26
    353e:	0c 94 17 3f 	jmp	0x7e2e	; 0x7e2e <__prologue_saves__>
  uint16_t          Val0;               /* voltage/value */
  int16_t           Val1 = 0, Val2 = 0, Val3 = 0;   /* voltages/values */
  int16_t           Temp;               /* value */

  /* make sure all probes are shorted */
  Flag = ShortCircuit(1);
    3542:	81 e0       	ldi	r24, 0x01	; 1
    3544:	0e 94 4d 15 	call	0x2a9a	; 0x2a9a <ShortCircuit>
  if (Flag == 0)              /* aborted */
    3548:	88 23       	and	r24, r24
    354a:	09 f4       	brne	.+2      	; 0x354e <SelfTest+0x18>
    354c:	0a c1       	rjmp	.+532    	; 0x3762 <SelfTest+0x22c>
    354e:	c1 2c       	mov	r12, r1
    3550:	d1 2c       	mov	r13, r1
    3552:	e1 2c       	mov	r14, r1
    3554:	f1 2c       	mov	r15, r1
    3556:	00 e0       	ldi	r16, 0x00	; 0
    3558:	10 e0       	ldi	r17, 0x00	; 0
    355a:	c1 e0       	ldi	r28, 0x01	; 1

          /* voltage of voltage divider (ignore RiL and RiH) */
          Temp = Cfg.Vcc / 2;

          /* TP3: Gnd -- Rh -- probe-2 -- probe-1 -- Rh -- Vcc */
          R_PORT = (1 << R_RH_1);
    355c:	92 e0       	ldi	r25, 0x02	; 2
    355e:	29 2e       	mov	r2, r25
          R_DDR = (1 << R_RH_1) | (1 << R_RH_3);
          Val2 = ReadU_20ms(TP2);
          Val2 -= Temp;

          /* TP1: Gnd -- Rh -- probe-3 -- probe-2 -- Rh -- Vcc */
          R_PORT = (1 << R_RH_2);
    3560:	28 e0       	ldi	r18, 0x08	; 8
    3562:	32 2e       	mov	r3, r18

          /* set up a voltage divider using two Rl */
          /* get offset by substracting theoretical voltage of voltage divider */

          /* voltage of voltage divider */
          Temp = ((int32_t)Cfg.Vcc * (R_MCU_LOW + R_LOW)) / (R_MCU_LOW + R_LOW + R_LOW + R_MCU_HIGH);
    3564:	34 ef       	ldi	r19, 0xF4	; 244
    3566:	43 2e       	mov	r4, r19
    3568:	36 e0       	ldi	r19, 0x06	; 6
    356a:	53 2e       	mov	r5, r19
    356c:	61 2c       	mov	r6, r1
    356e:	71 2c       	mov	r7, r1
    3570:	d1 e0       	ldi	r29, 0x01	; 1

    /* repeat each test 5 times */
    while (Flag <= 5)
    {
      /* display test number */
      LCD_Clear();
    3572:	0e 94 31 3b 	call	0x7662	; 0x7662 <LCD_Clear>
      Display_Char('T');                /* display: T */
    3576:	84 e5       	ldi	r24, 0x54	; 84
    3578:	0e 94 8a 3b 	call	0x7714	; 0x7714 <LCD_Char>
      Display_Char('0' + Test);         /* display test number */
    357c:	80 e3       	ldi	r24, 0x30	; 48
    357e:	8c 0f       	add	r24, r28
    3580:	0e 94 8a 3b 	call	0x7714	; 0x7714 <LCD_Char>
      Display_Space();
    3584:	0e 94 6e 20 	call	0x40dc	; 0x40dc <Display_Space>

      /*
       *  tests
       */

      switch (Test)
    3588:	c3 30       	cpi	r28, 0x03	; 3
    358a:	09 f4       	brne	.+2      	; 0x358e <SelfTest+0x58>
    358c:	6b c0       	rjmp	.+214    	; 0x3664 <SelfTest+0x12e>
    358e:	c8 f5       	brcc	.+114    	; 0x3602 <SelfTest+0xcc>
    3590:	c1 30       	cpi	r28, 0x01	; 1
    3592:	09 f4       	brne	.+2      	; 0x3596 <SelfTest+0x60>
    3594:	51 c0       	rjmp	.+162    	; 0x3638 <SelfTest+0x102>
    3596:	c2 30       	cpi	r28, 0x02	; 2
    3598:	09 f0       	breq	.+2      	; 0x359c <SelfTest+0x66>
    359a:	a8 c0       	rjmp	.+336    	; 0x36ec <SelfTest+0x1b6>

          DisplayFlag = 0;                   /* reset flag */
          break;

        case 2:     /* compare Rl resistors (probes still shorted) */
          Display_EEString_Space(Rl_str);    /* display: +Rl- */
    359c:	82 e5       	ldi	r24, 0x52	; 82
    359e:	91 e0       	ldi	r25, 0x01	; 1
    35a0:	0e 94 72 20 	call	0x40e4	; 0x40e4 <Display_EEString_Space>
          Display_EEString(ProbeComb_str);   /* display: 12 13 23 */
    35a4:	84 e4       	ldi	r24, 0x44	; 68
    35a6:	91 e0       	ldi	r25, 0x01	; 1
    35a8:	0e 94 43 20 	call	0x4086	; 0x4086 <Display_EEString>

          /* set up a voltage divider using two Rl */
          /* get offset by substracting theoretical voltage of voltage divider */

          /* voltage of voltage divider */
          Temp = ((int32_t)Cfg.Vcc * (R_MCU_LOW + R_LOW)) / (R_MCU_LOW + R_LOW + R_LOW + R_MCU_HIGH);
    35ac:	20 91 a8 01 	lds	r18, 0x01A8	; 0x8001a8 <Cfg+0x8>
    35b0:	30 91 a9 01 	lds	r19, 0x01A9	; 0x8001a9 <Cfg+0x9>
    35b4:	a0 e7       	ldi	r26, 0x70	; 112
    35b6:	b3 e0       	ldi	r27, 0x03	; 3
    35b8:	0e 94 f6 3e 	call	0x7dec	; 0x7dec <__umulhisi3>
    35bc:	a3 01       	movw	r20, r6
    35be:	92 01       	movw	r18, r4
    35c0:	0e 94 d1 3e 	call	0x7da2	; 0x7da2 <__divmodsi4>
    35c4:	49 01       	movw	r8, r18
    35c6:	5a 01       	movw	r10, r20

          /* TP3: Gnd -- Rl -- probe-2 -- probe-1 -- Rl -- Vcc */
          R_PORT = (1 << R_RL_1);
    35c8:	81 e0       	ldi	r24, 0x01	; 1
    35ca:	85 b9       	out	0x05, r24	; 5
          R_DDR = (1 << R_RL_1) | (1 << R_RL_2);
    35cc:	85 e0       	ldi	r24, 0x05	; 5
    35ce:	84 b9       	out	0x04, r24	; 4
          Val3 = ReadU_20ms(TP3);
    35d0:	82 e0       	ldi	r24, 0x02	; 2
    35d2:	0e 94 21 1c 	call	0x3842	; 0x3842 <ReadU_20ms>
          Val3 -= Temp;
    35d6:	6c 01       	movw	r12, r24
    35d8:	c8 18       	sub	r12, r8
    35da:	d9 08       	sbc	r13, r9

          /* TP2: Gnd -- Rl -- probe-3 -- probe-1 -- Rl -- Vcc */
          R_DDR = (1 << R_RL_1) | (1 << R_RL_3);
    35dc:	81 e1       	ldi	r24, 0x11	; 17
    35de:	84 b9       	out	0x04, r24	; 4
          Val2 = ReadU_20ms(TP2);
    35e0:	81 e0       	ldi	r24, 0x01	; 1
    35e2:	0e 94 21 1c 	call	0x3842	; 0x3842 <ReadU_20ms>
          Val2 -= Temp;
    35e6:	7c 01       	movw	r14, r24
    35e8:	e8 18       	sub	r14, r8
    35ea:	f9 08       	sbc	r15, r9

          /* TP1: Gnd -- Rl -- probe-3 -- probe-2 -- Rl -- Vcc */
          R_PORT = (1 << R_RL_2);
    35ec:	84 e0       	ldi	r24, 0x04	; 4
    35ee:	85 b9       	out	0x05, r24	; 5
          R_DDR = (1 << R_RL_2) | (1 << R_RL_3);
    35f0:	84 e1       	ldi	r24, 0x14	; 20
    35f2:	84 b9       	out	0x04, r24	; 4
          Val1 = ReadU_20ms(TP1);
    35f4:	80 e0       	ldi	r24, 0x00	; 0
    35f6:	0e 94 21 1c 	call	0x3842	; 0x3842 <ReadU_20ms>
          Val1 -= Temp;
    35fa:	8c 01       	movw	r16, r24
    35fc:	08 19       	sub	r16, r8
    35fe:	19 09       	sbc	r17, r9
    3600:	75 c0       	rjmp	.+234    	; 0x36ec <SelfTest+0x1b6>

      /*
       *  tests
       */

      switch (Test)
    3602:	c5 30       	cpi	r28, 0x05	; 5
    3604:	09 f4       	brne	.+2      	; 0x3608 <SelfTest+0xd2>
    3606:	5d c0       	rjmp	.+186    	; 0x36c2 <SelfTest+0x18c>
    3608:	08 f4       	brcc	.+2      	; 0x360c <SelfTest+0xd6>
    360a:	55 c0       	rjmp	.+170    	; 0x36b6 <SelfTest+0x180>
    360c:	c6 30       	cpi	r28, 0x06	; 6
    360e:	09 f0       	breq	.+2      	; 0x3612 <SelfTest+0xdc>
    3610:	6d c0       	rjmp	.+218    	; 0x36ec <SelfTest+0x1b6>
          Val3 = ReadU_20ms(TP3);

          break;

        case 6:     /* leakage check: probes pulled up */
          Display_EEString(RhHigh_str);      /* display: Rh+ */
    3612:	8f e5       	ldi	r24, 0x5F	; 95
    3614:	91 e0       	ldi	r25, 0x01	; 1
    3616:	0e 94 43 20 	call	0x4086	; 0x4086 <Display_EEString>

          /* pull up probe via Rh and get voltage */
          /* voltage expected to be near Vcc */

          /* TP1: probe-1 -- Rh -- Vcc */
          R_PORT = (1 << R_RH_1);
    361a:	25 b8       	out	0x05, r2	; 5
          R_DDR = (1 << R_RH_1);
    361c:	24 b8       	out	0x04, r2	; 4
          Val1 = ReadU_20ms(TP1);
    361e:	80 e0       	ldi	r24, 0x00	; 0
    3620:	0e 94 21 1c 	call	0x3842	; 0x3842 <ReadU_20ms>
    3624:	8c 01       	movw	r16, r24

          /* TP2: probe-2 -- Rh -- Vcc */
          R_PORT = (1 << R_RH_2);
    3626:	35 b8       	out	0x05, r3	; 5
          R_DDR = (1 << R_RH_2);
    3628:	34 b8       	out	0x04, r3	; 4
          Val2 = ReadU_20ms(TP2);
    362a:	81 e0       	ldi	r24, 0x01	; 1
    362c:	0e 94 21 1c 	call	0x3842	; 0x3842 <ReadU_20ms>
    3630:	7c 01       	movw	r14, r24

          /* TP3: probe-3 -- Rh -- Vcc */
          R_PORT = (1 << R_RH_3);
    3632:	80 e2       	ldi	r24, 0x20	; 32
    3634:	85 b9       	out	0x05, r24	; 5
    3636:	55 c0       	rjmp	.+170    	; 0x36e2 <SelfTest+0x1ac>
       */

      switch (Test)
      {
        case 1:     /* reference voltage */
          Val0 = ReadU(ADC_CHAN_BANDGAP);    /* dummy read for bandgap stabilization */
    3638:	8e e0       	ldi	r24, 0x0E	; 14
    363a:	0e 94 b7 1b 	call	0x376e	; 0x376e <ReadU>
          Val0 = ReadU(ADC_CHAN_BANDGAP);    /* read bandgap reference voltage */ 
    363e:	8e e0       	ldi	r24, 0x0E	; 14
    3640:	0e 94 b7 1b 	call	0x376e	; 0x376e <ReadU>
    3644:	5c 01       	movw	r10, r24
          Display_EEString(URef_str);        /* display: Vref */
    3646:	87 e6       	ldi	r24, 0x67	; 103
    3648:	91 e0       	ldi	r25, 0x01	; 1
    364a:	0e 94 43 20 	call	0x4086	; 0x4086 <Display_EEString>

          Display_NextLine();
    364e:	0e 94 0b 20 	call	0x4016	; 0x4016 <Display_NextLine>
          Display_Value(Val0, -3, 'V');      /* display voltage in mV */
    3652:	b5 01       	movw	r22, r10
    3654:	80 e0       	ldi	r24, 0x00	; 0
    3656:	90 e0       	ldi	r25, 0x00	; 0
    3658:	26 e5       	ldi	r18, 0x56	; 86
    365a:	4d ef       	ldi	r20, 0xFD	; 253
    365c:	0e 94 fa 20 	call	0x41f4	; 0x41f4 <Display_Value>

          DisplayFlag = 0;                   /* reset flag */
    3660:	80 e0       	ldi	r24, 0x00	; 0
          break;
    3662:	45 c0       	rjmp	.+138    	; 0x36ee <SelfTest+0x1b8>
          Val1 -= Temp;

          break;

        case 3:     /* compare Rh resistors (probes still shorted) */
          Display_EEString_Space(Rh_str);    /* display: +Rh- */
    3664:	8d e4       	ldi	r24, 0x4D	; 77
    3666:	91 e0       	ldi	r25, 0x01	; 1
    3668:	0e 94 72 20 	call	0x40e4	; 0x40e4 <Display_EEString_Space>
          Display_EEString(ProbeComb_str);   /* display: 12 13 23 */
    366c:	84 e4       	ldi	r24, 0x44	; 68
    366e:	91 e0       	ldi	r25, 0x01	; 1
    3670:	0e 94 43 20 	call	0x4086	; 0x4086 <Display_EEString>

          /* set up a voltage divider using two Rh */
          /* get offset by substracting theoretical voltage of voltage divider */

          /* voltage of voltage divider (ignore RiL and RiH) */
          Temp = Cfg.Vcc / 2;
    3674:	00 91 a8 01 	lds	r16, 0x01A8	; 0x8001a8 <Cfg+0x8>
    3678:	10 91 a9 01 	lds	r17, 0x01A9	; 0x8001a9 <Cfg+0x9>
    367c:	16 95       	lsr	r17
    367e:	07 95       	ror	r16

          /* TP3: Gnd -- Rh -- probe-2 -- probe-1 -- Rh -- Vcc */
          R_PORT = (1 << R_RH_1);
    3680:	25 b8       	out	0x05, r2	; 5
          R_DDR = (1 << R_RH_1) | (1 << R_RH_2);
    3682:	8a e0       	ldi	r24, 0x0A	; 10
    3684:	84 b9       	out	0x04, r24	; 4
          Val3 = ReadU_20ms(TP3);
    3686:	82 e0       	ldi	r24, 0x02	; 2
    3688:	0e 94 21 1c 	call	0x3842	; 0x3842 <ReadU_20ms>
          Val3 -= Temp;
    368c:	6c 01       	movw	r12, r24
    368e:	c0 1a       	sub	r12, r16
    3690:	d1 0a       	sbc	r13, r17

          /* TP2: Gnd -- Rh -- probe-3 -- probe-1 -- Rh -- Vcc */
          R_DDR = (1 << R_RH_1) | (1 << R_RH_3);
    3692:	82 e2       	ldi	r24, 0x22	; 34
    3694:	84 b9       	out	0x04, r24	; 4
          Val2 = ReadU_20ms(TP2);
    3696:	81 e0       	ldi	r24, 0x01	; 1
    3698:	0e 94 21 1c 	call	0x3842	; 0x3842 <ReadU_20ms>
          Val2 -= Temp;
    369c:	7c 01       	movw	r14, r24
    369e:	e0 1a       	sub	r14, r16
    36a0:	f1 0a       	sbc	r15, r17

          /* TP1: Gnd -- Rh -- probe-3 -- probe-2 -- Rh -- Vcc */
          R_PORT = (1 << R_RH_2);
    36a2:	35 b8       	out	0x05, r3	; 5
          R_DDR = (1 << R_RH_2) | (1 << R_RH_3);
    36a4:	88 e2       	ldi	r24, 0x28	; 40
    36a6:	84 b9       	out	0x04, r24	; 4
          Val1 = ReadU_20ms(TP1);
    36a8:	80 e0       	ldi	r24, 0x00	; 0
    36aa:	0e 94 21 1c 	call	0x3842	; 0x3842 <ReadU_20ms>
          Val1 -= Temp;
    36ae:	80 1b       	sub	r24, r16
    36b0:	91 0b       	sbc	r25, r17
    36b2:	8c 01       	movw	r16, r24
    36b4:	1b c0       	rjmp	.+54     	; 0x36ec <SelfTest+0x1b6>

          break;

        case 4:     /* un-short probes */
          ShortCircuit(0);         /* make sure probes are not shorted */
    36b6:	80 e0       	ldi	r24, 0x00	; 0
    36b8:	0e 94 4d 15 	call	0x2a9a	; 0x2a9a <ShortCircuit>
          Flag = 100;              /* skip test */
          DisplayFlag = 0;         /* don't display any result */
    36bc:	80 e0       	ldi	r24, 0x00	; 0

          break;

        case 4:     /* un-short probes */
          ShortCircuit(0);         /* make sure probes are not shorted */
          Flag = 100;              /* skip test */
    36be:	d4 e6       	ldi	r29, 0x64	; 100
          DisplayFlag = 0;         /* don't display any result */
          break;
    36c0:	16 c0       	rjmp	.+44     	; 0x36ee <SelfTest+0x1b8>

        case 5:     /* leakage check: probes pulled down */
          Display_EEString(RhLow_str);       /* display: Rh- */
    36c2:	83 e6       	ldi	r24, 0x63	; 99
    36c4:	91 e0       	ldi	r25, 0x01	; 1
    36c6:	0e 94 43 20 	call	0x4086	; 0x4086 <Display_EEString>

          /* pull down probe via Rh and get voltage */
          /* voltage expected to be near zero */

          /* TP1: Gnd -- Rh -- probe-1 */
          R_PORT = 0;
    36ca:	15 b8       	out	0x05, r1	; 5
          R_DDR = (1 << R_RH_1);
    36cc:	24 b8       	out	0x04, r2	; 4
          Val1 = ReadU_20ms(TP1);
    36ce:	80 e0       	ldi	r24, 0x00	; 0
    36d0:	0e 94 21 1c 	call	0x3842	; 0x3842 <ReadU_20ms>
    36d4:	8c 01       	movw	r16, r24

          /* TP2: Gnd -- Rh -- probe-2 */
          R_DDR = (1 << R_RH_2);
    36d6:	34 b8       	out	0x04, r3	; 4
          Val2 = ReadU_20ms(TP2);
    36d8:	81 e0       	ldi	r24, 0x01	; 1
    36da:	0e 94 21 1c 	call	0x3842	; 0x3842 <ReadU_20ms>
    36de:	7c 01       	movw	r14, r24

          /* TP3: Gnd -- Rh -- probe-3 */
          R_DDR = (1 << R_RH_3);
    36e0:	80 e2       	ldi	r24, 0x20	; 32
          R_DDR = (1 << R_RH_2);
          Val2 = ReadU_20ms(TP2);

          /* TP3: probe-3 -- Rh -- Vcc */
          R_PORT = (1 << R_RH_3);
          R_DDR = (1 << R_RH_3);
    36e2:	84 b9       	out	0x04, r24	; 4
          Val3 = ReadU_20ms(TP3);
    36e4:	82 e0       	ldi	r24, 0x02	; 2
    36e6:	0e 94 21 1c 	call	0x3842	; 0x3842 <ReadU_20ms>
    36ea:	6c 01       	movw	r12, r24
      LCD_Clear();
      Display_Char('T');                /* display: T */
      Display_Char('0' + Test);         /* display test number */
      Display_Space();

      DisplayFlag = 1;                  /* display values by default */
    36ec:	81 e0       	ldi	r24, 0x01	; 1

          break;
      }

      /* reset ports to defaults */
      R_DDR = 0;                             /* input mode */
    36ee:	14 b8       	out	0x04, r1	; 4
      R_PORT = 0;                            /* all pins low */
    36f0:	15 b8       	out	0x05, r1	; 5

      /* display voltages/values of all probes */
      if (DisplayFlag)
    36f2:	88 23       	and	r24, r24
    36f4:	09 f1       	breq	.+66     	; 0x3738 <SelfTest+0x202>
      {
        Display_NextLine();                  /* move to line #2 */
    36f6:	0e 94 0b 20 	call	0x4016	; 0x4016 <Display_NextLine>
        Display_SignedValue(Val1, 0 , 0);    /* display value probe-1 */
    36fa:	20 e0       	ldi	r18, 0x00	; 0
    36fc:	40 e0       	ldi	r20, 0x00	; 0
    36fe:	b8 01       	movw	r22, r16
    3700:	01 2e       	mov	r0, r17
    3702:	00 0c       	add	r0, r0
    3704:	88 0b       	sbc	r24, r24
    3706:	99 0b       	sbc	r25, r25
    3708:	0e 94 82 21 	call	0x4304	; 0x4304 <Display_SignedValue>
        Display_Space();
    370c:	0e 94 6e 20 	call	0x40dc	; 0x40dc <Display_Space>
        Display_SignedValue(Val2, 0 , 0);    /* display value probe-2 */
    3710:	20 e0       	ldi	r18, 0x00	; 0
    3712:	40 e0       	ldi	r20, 0x00	; 0
    3714:	b7 01       	movw	r22, r14
    3716:	0f 2c       	mov	r0, r15
    3718:	00 0c       	add	r0, r0
    371a:	88 0b       	sbc	r24, r24
    371c:	99 0b       	sbc	r25, r25
    371e:	0e 94 82 21 	call	0x4304	; 0x4304 <Display_SignedValue>
        Display_Space();
    3722:	0e 94 6e 20 	call	0x40dc	; 0x40dc <Display_Space>
        Display_SignedValue(Val3, 0 , 0);    /* display value probe-3 */
    3726:	20 e0       	ldi	r18, 0x00	; 0
    3728:	40 e0       	ldi	r20, 0x00	; 0
    372a:	b6 01       	movw	r22, r12
    372c:	0d 2c       	mov	r0, r13
    372e:	00 0c       	add	r0, r0
    3730:	88 0b       	sbc	r24, r24
    3732:	99 0b       	sbc	r25, r25
    3734:	0e 94 82 21 	call	0x4304	; 0x4304 <Display_SignedValue>
      }

      /* wait and check test push button */
      if (Flag < 100)                   /* when we don't skip this test */
    3738:	d4 36       	cpi	r29, 0x64	; 100
    373a:	59 f0       	breq	.+22     	; 0x3752 <SelfTest+0x21c>
      {
        /* catch key press or timeout */
        DisplayFlag = TestKey(1000, CHECK_BAT);
    373c:	60 e1       	ldi	r22, 0x10	; 16
    373e:	88 ee       	ldi	r24, 0xE8	; 232
    3740:	93 e0       	ldi	r25, 0x03	; 3
    3742:	0e 94 0b 14 	call	0x2816	; 0x2816 <TestKey>

        /* short press -> next test / long press -> end selftest */
        if (DisplayFlag > KEY_TIMEOUT)
    3746:	88 23       	and	r24, r24
    3748:	21 f0       	breq	.+8      	; 0x3752 <SelfTest+0x21c>
        {
          Flag = 100;                   /* skip current test anyway */
          if (DisplayFlag == KEY_LONG) Test = 100;  /* also skip selftest */
    374a:	82 30       	cpi	r24, 0x02	; 2
    374c:	09 f4       	brne	.+2      	; 0x3750 <SelfTest+0x21a>
    374e:	c4 e6       	ldi	r28, 0x64	; 100
        DisplayFlag = TestKey(1000, CHECK_BAT);

        /* short press -> next test / long press -> end selftest */
        if (DisplayFlag > KEY_TIMEOUT)
        {
          Flag = 100;                   /* skip current test anyway */
    3750:	d4 e6       	ldi	r29, 0x64	; 100
          if (DisplayFlag == KEY_LONG) Test = 100;  /* also skip selftest */
        } 
      }
 
      Flag++;                      /* next run */
    3752:	df 5f       	subi	r29, 0xFF	; 255
  while (Test <= 6)
  {
    Flag = 1;                 /* reset loop counter */

    /* repeat each test 5 times */
    while (Flag <= 5)
    3754:	d6 30       	cpi	r29, 0x06	; 6
    3756:	08 f4       	brcc	.+2      	; 0x375a <SelfTest+0x224>
    3758:	0c cf       	rjmp	.-488    	; 0x3572 <SelfTest+0x3c>
      }
 
      Flag++;                      /* next run */
    }

    Test++;                             /* next one */
    375a:	cf 5f       	subi	r28, 0xFF	; 255
  {
    Test = 10;                /* skip selftest */
  }

  /* loop through all tests */
  while (Test <= 6)
    375c:	c7 30       	cpi	r28, 0x07	; 7
    375e:	08 f4       	brcc	.+2      	; 0x3762 <SelfTest+0x22c>
    3760:	07 cf       	rjmp	.-498    	; 0x3570 <SelfTest+0x3a>
    Test++;                             /* next one */
  }

  Flag = 1;         /* signal success */
  return Flag;
} 
    3762:	81 e0       	ldi	r24, 0x01	; 1
    3764:	cd b7       	in	r28, 0x3d	; 61
    3766:	de b7       	in	r29, 0x3e	; 62
    3768:	e2 e1       	ldi	r30, 0x12	; 18
    376a:	0c 94 33 3f 	jmp	0x7e66	; 0x7e66 <__epilogue_restores__>

0000376e <ReadU>:
 *    - ATmega640/1280/2560: register bits corresponding with MUX0-4
 *      (todo: add MUX5 to support also ADC8-15)
 */

uint16_t ReadU(uint8_t Channel)
{
    376e:	cf 93       	push	r28
    3770:	df 93       	push	r29
    ADCSRB &= ~(1 << MUX5);        /* clear MUX5 */
  }
  #endif

  /* prepare bitfield for register: start with AVcc as voltage reference */
  Channel &= ADC_CHAN_MASK;        /* filter reg bits for MUX channel */
    3772:	8f 70       	andi	r24, 0x0F	; 15
  Channel |= ADC_REF_VCC;          /* add bits for voltage reference: AVcc */
    3774:	c8 2f       	mov	r28, r24
    3776:	c0 64       	ori	r28, 0x40	; 64

sample:

  ADMUX = Channel;                 /* set input channel and U reference */
    3778:	c0 93 7c 00 	sts	0x007C, r28	; 0x80007c <__DATA_REGION_ORIGIN__+0x1c>
   *  - run a dummy conversion after change (recommended by datasheet)
   *  - It seems that we have to run a dummy conversion also after the
   *    ADC hasn't run for a while. So let's do one anyway.
   */

  Ref = Channel & ADC_REF_MASK;    /* get register bits for voltage reference */
    377c:	dc 2f       	mov	r29, r28
    377e:	d0 7c       	andi	r29, 0xC0	; 192
  if (Ref != Cfg.Ref)              /* reference source has changed */
    3780:	80 91 a5 01 	lds	r24, 0x01A5	; 0x8001a5 <Cfg+0x5>
    3784:	d8 17       	cp	r29, r24
    3786:	21 f0       	breq	.+8      	; 0x3790 <ReadU+0x22>
  {
    /* wait some time for voltage stabilization */
    #ifndef ADC_LARGE_BUFFER_CAP
      /* buffer cap: 1nF or none at all */
      wait100us();                   /* 100s */
    3788:	0e 94 83 3c 	call	0x7906	; 0x7906 <wait100us>
    /* dummy conversion */
    ADCSRA |= (1 << ADSC);         /* start conversion */
    while (ADCSRA & (1 << ADSC));  /* wait until conversion is done */
    #endif

    Cfg.Ref = Ref;                 /* update reference source */
    378c:	d0 93 a5 01 	sts	0x01A5, r29	; 0x8001a5 <Cfg+0x5>
  }

  /* perform dummy conversion anyway */
  ADCSRA |= (1 << ADSC);         /* start conversion */
    3790:	80 91 7a 00 	lds	r24, 0x007A	; 0x80007a <__DATA_REGION_ORIGIN__+0x1a>
    3794:	80 64       	ori	r24, 0x40	; 64
    3796:	80 93 7a 00 	sts	0x007A, r24	; 0x80007a <__DATA_REGION_ORIGIN__+0x1a>
  while (ADCSRA & (1 << ADSC));  /* wait until conversion is done */
    379a:	80 91 7a 00 	lds	r24, 0x007A	; 0x80007a <__DATA_REGION_ORIGIN__+0x1a>
    379e:	86 fd       	sbrc	r24, 6
    37a0:	fc cf       	rjmp	.-8      	; 0x379a <ReadU+0x2c>
    37a2:	20 e0       	ldi	r18, 0x00	; 0
    37a4:	30 e0       	ldi	r19, 0x00	; 0
    37a6:	a9 01       	movw	r20, r18
    37a8:	80 e0       	ldi	r24, 0x00	; 0
   */

  Value = 0UL;                     /* reset sampling variable */
  Counter = 0;                     /* reset counter */

  while (Counter < Cfg.Samples)    /* take samples */
    37aa:	e0 91 a3 01 	lds	r30, 0x01A3	; 0x8001a3 <Cfg+0x3>
    37ae:	8e 17       	cp	r24, r30
    37b0:	08 f5       	brcc	.+66     	; 0x37f4 <ReadU+0x86>
  {
    ADCSRA |= (1 << ADSC);         /* start conversion */
    37b2:	90 91 7a 00 	lds	r25, 0x007A	; 0x80007a <__DATA_REGION_ORIGIN__+0x1a>
    37b6:	90 64       	ori	r25, 0x40	; 64
    37b8:	90 93 7a 00 	sts	0x007A, r25	; 0x80007a <__DATA_REGION_ORIGIN__+0x1a>
    while (ADCSRA & (1 << ADSC));  /* wait until conversion is done */
    37bc:	90 91 7a 00 	lds	r25, 0x007A	; 0x80007a <__DATA_REGION_ORIGIN__+0x1a>
    37c0:	96 fd       	sbrc	r25, 6
    37c2:	fc cf       	rjmp	.-8      	; 0x37bc <ReadU+0x4e>

    Value += ADCW;                 /* add ADC reading */
    37c4:	60 91 78 00 	lds	r22, 0x0078	; 0x800078 <__DATA_REGION_ORIGIN__+0x18>
    37c8:	70 91 79 00 	lds	r23, 0x0079	; 0x800079 <__DATA_REGION_ORIGIN__+0x19>
    37cc:	26 0f       	add	r18, r22
    37ce:	37 1f       	adc	r19, r23
    37d0:	41 1d       	adc	r20, r1
    37d2:	51 1d       	adc	r21, r1

    /* auto-switch voltage reference for low readings */
    if (Counter == 4)                   /* 5 samples */
    37d4:	84 30       	cpi	r24, 0x04	; 4
    37d6:	61 f4       	brne	.+24     	; 0x37f0 <ReadU+0x82>
    {
      if ((uint16_t)Value < 1024)       /* < 1V (5V / 5 samples) */
    37d8:	21 15       	cp	r18, r1
    37da:	94 e0       	ldi	r25, 0x04	; 4
    37dc:	39 07       	cpc	r19, r25
    37de:	40 f4       	brcc	.+16     	; 0x37f0 <ReadU+0x82>
      {
        if (Ref != ADC_REF_BANDGAP)     /* bandgap ref not selected */
    37e0:	d0 3c       	cpi	r29, 0xC0	; 192
    37e2:	31 f0       	breq	.+12     	; 0x37f0 <ReadU+0x82>
        {
          if (Cfg.AutoScale == 1)       /* autoscaling enabled */
    37e4:	90 91 a4 01 	lds	r25, 0x01A4	; 0x8001a4 <Cfg+0x4>
    37e8:	91 30       	cpi	r25, 0x01	; 1
    37ea:	11 f4       	brne	.+4      	; 0x37f0 <ReadU+0x82>
          {
            Channel &= ~ADC_REF_MASK;     /* clear reference bits */
            Channel |= ADC_REF_BANDGAP;   /* select bandgap reference */
    37ec:	c0 6c       	ori	r28, 0xC0	; 192

            goto sample;                /* re-run sampling */
    37ee:	c4 cf       	rjmp	.-120    	; 0x3778 <ReadU+0xa>
          }
        }
      }
    }

    Counter++;                     /* another sample done */
    37f0:	8f 5f       	subi	r24, 0xFF	; 255
    37f2:	db cf       	rjmp	.-74     	; 0x37aa <ReadU+0x3c>
   *  convert ADC reading to voltage
   *  - single sample: U = ADC reading * U_ref / 1024
   */

  /* get voltage of reference used */
  if (Ref == ADC_REF_BANDGAP)      /* bandgap reference */
    37f4:	d0 3c       	cpi	r29, 0xC0	; 192
    37f6:	29 f4       	brne	.+10     	; 0x3802 <ReadU+0x94>
  {
    U = Cfg.Bandgap;                 /* voltage of bandgap reference */
    37f8:	a0 91 a6 01 	lds	r26, 0x01A6	; 0x8001a6 <Cfg+0x6>
    37fc:	b0 91 a7 01 	lds	r27, 0x01A7	; 0x8001a7 <Cfg+0x7>
    3800:	04 c0       	rjmp	.+8      	; 0x380a <ReadU+0x9c>
  }
  else                             /* Vcc as reference */
  {
    U = Cfg.Vcc;                     /* voltage of Vcc */   
    3802:	a0 91 a8 01 	lds	r26, 0x01A8	; 0x8001a8 <Cfg+0x8>
    3806:	b0 91 a9 01 	lds	r27, 0x01A9	; 0x8001a9 <Cfg+0x9>
  }

  /* convert to voltage; */
  Value *= U;                      /* ADC readings * U_ref */
    380a:	0e 94 0c 3f 	call	0x7e18	; 0x7e18 <__muluhisi3>
//  Value += 511 * Cfg.Samples;      /* automagic rounding */
  Value /= 1024;                   /* / 1024 for 10bit ADC */
    380e:	2a e0       	ldi	r18, 0x0A	; 10
    3810:	96 95       	lsr	r25
    3812:	87 95       	ror	r24
    3814:	77 95       	ror	r23
    3816:	67 95       	ror	r22
    3818:	2a 95       	dec	r18
    381a:	d1 f7       	brne	.-12     	; 0x3810 <ReadU+0xa2>

  /* de-sample to get average voltage */
  Value /= Cfg.Samples;
  U = (uint16_t)Value;

  return U; 
    381c:	2e 2f       	mov	r18, r30
    381e:	30 e0       	ldi	r19, 0x00	; 0
    3820:	40 e0       	ldi	r20, 0x00	; 0
    3822:	50 e0       	ldi	r21, 0x00	; 0
    3824:	0e 94 af 3e 	call	0x7d5e	; 0x7d5e <__udivmodsi4>
}
    3828:	c9 01       	movw	r24, r18
    382a:	df 91       	pop	r29
    382c:	cf 91       	pop	r28
    382e:	08 95       	ret

00003830 <ReadU_5ms>:
 *  wait 5ms and then read ADC
 *  - same as ReadU()
 */

uint16_t ReadU_5ms(uint8_t Channel)
{
    3830:	cf 93       	push	r28
    3832:	c8 2f       	mov	r28, r24
   wait5ms();       /* wait 5ms */
    3834:	0e 94 7a 3c 	call	0x78f4	; 0x78f4 <wait5ms>

   return (ReadU(Channel));
    3838:	8c 2f       	mov	r24, r28
    383a:	0e 94 b7 1b 	call	0x376e	; 0x376e <ReadU>
}
    383e:	cf 91       	pop	r28
    3840:	08 95       	ret

00003842 <ReadU_20ms>:
 *  wait 20ms and then read ADC
 *  - same as ReadU()
 */

uint16_t ReadU_20ms(uint8_t Channel)
{
    3842:	cf 93       	push	r28
    3844:	c8 2f       	mov	r28, r24
  wait20ms();       /* wait 20ms */
    3846:	0e 94 78 3c 	call	0x78f0	; 0x78f0 <wait20ms>

  return (ReadU(Channel));
    384a:	8c 2f       	mov	r24, r28
    384c:	0e 94 b7 1b 	call	0x376e	; 0x376e <ReadU>
}
    3850:	cf 91       	pop	r28
    3852:	08 95       	ret

00003854 <UpdateProbes>:
 *  - Probe2: pin ID [0-2], mostly low level pin
 *  - Probe3: pin ID [0-2], mostly switch/gate pin
 */

void UpdateProbes(uint8_t Probe1, uint8_t Probe2, uint8_t Probe3)
{
    3854:	a0 e0       	ldi	r26, 0x00	; 0
    3856:	b0 e0       	ldi	r27, 0x00	; 0
    3858:	e0 e3       	ldi	r30, 0x30	; 48
    385a:	fc e1       	ldi	r31, 0x1C	; 28
    385c:	0c 94 21 3f 	jmp	0x7e42	; 0x7e42 <__prologue_saves__+0x14>
    3860:	e6 2e       	mov	r14, r22
    3862:	04 2f       	mov	r16, r20
  /* set probe IDs */
  Probes.ID_1 = Probe1;
    3864:	cb ec       	ldi	r28, 0xCB	; 203
    3866:	d1 e0       	ldi	r29, 0x01	; 1
    3868:	88 83       	st	Y, r24
  Probes.ID_2 = Probe2;
    386a:	69 83       	std	Y+1, r22	; 0x01
  Probes.ID_3 = Probe3;
    386c:	4a 83       	std	Y+2, r20	; 0x02

  /* set register bits for probe resistors based on ID */
  Probes.Rl_1 = DATA_read_byte(&Rl_table[Probe1]);
    386e:	c8 2e       	mov	r12, r24
    3870:	d1 2c       	mov	r13, r1
    3872:	c6 01       	movw	r24, r12
    3874:	87 5f       	subi	r24, 0xF7	; 247
    3876:	9f 4f       	sbci	r25, 0xFF	; 255
    3878:	0e 94 9a 3f 	call	0x7f34	; 0x7f34 <eeprom_read_byte>
    387c:	8e 83       	std	Y+6, r24	; 0x06
  Probes.Rl_2 = DATA_read_byte(&Rl_table[Probe2]);
    387e:	f1 2c       	mov	r15, r1
    3880:	c7 01       	movw	r24, r14
    3882:	87 5f       	subi	r24, 0xF7	; 247
    3884:	9f 4f       	sbci	r25, 0xFF	; 255
    3886:	0e 94 9a 3f 	call	0x7f34	; 0x7f34 <eeprom_read_byte>
    388a:	8f 83       	std	Y+7, r24	; 0x07
  Probes.Rl_3 = DATA_read_byte(&Rl_table[Probe3]);
    388c:	10 e0       	ldi	r17, 0x00	; 0
    388e:	c8 01       	movw	r24, r16
    3890:	87 5f       	subi	r24, 0xF7	; 247
    3892:	9f 4f       	sbci	r25, 0xFF	; 255
    3894:	0e 94 9a 3f 	call	0x7f34	; 0x7f34 <eeprom_read_byte>
    3898:	88 87       	std	Y+8, r24	; 0x08
  Probes.Rh_1 = DATA_read_byte(&Rh_table[Probe1]);
    389a:	c6 01       	movw	r24, r12
    389c:	8a 5f       	subi	r24, 0xFA	; 250
    389e:	9f 4f       	sbci	r25, 0xFF	; 255
    38a0:	0e 94 9a 3f 	call	0x7f34	; 0x7f34 <eeprom_read_byte>
    38a4:	89 87       	std	Y+9, r24	; 0x09
  Probes.Rh_2 = DATA_read_byte(&Rh_table[Probe2]);
    38a6:	c7 01       	movw	r24, r14
    38a8:	8a 5f       	subi	r24, 0xFA	; 250
    38aa:	9f 4f       	sbci	r25, 0xFF	; 255
    38ac:	0e 94 9a 3f 	call	0x7f34	; 0x7f34 <eeprom_read_byte>
    38b0:	8a 87       	std	Y+10, r24	; 0x0a
  Probes.Rh_3 = DATA_read_byte(&Rh_table[Probe3]);
    38b2:	c8 01       	movw	r24, r16
    38b4:	8a 5f       	subi	r24, 0xFA	; 250
    38b6:	9f 4f       	sbci	r25, 0xFF	; 255
    38b8:	0e 94 9a 3f 	call	0x7f34	; 0x7f34 <eeprom_read_byte>
    38bc:	8b 87       	std	Y+11, r24	; 0x0b

  /* set register bits for ADC port pins based on ID */ 
  Probes.Pin_1 = DATA_read_byte(&Pin_table[Probe1]);
    38be:	c6 01       	movw	r24, r12
    38c0:	8d 5f       	subi	r24, 0xFD	; 253
    38c2:	9f 4f       	sbci	r25, 0xFF	; 255
    38c4:	0e 94 9a 3f 	call	0x7f34	; 0x7f34 <eeprom_read_byte>
    38c8:	8c 87       	std	Y+12, r24	; 0x0c
  Probes.Pin_2 = DATA_read_byte(&Pin_table[Probe2]);
    38ca:	c7 01       	movw	r24, r14
    38cc:	8d 5f       	subi	r24, 0xFD	; 253
    38ce:	9f 4f       	sbci	r25, 0xFF	; 255
    38d0:	0e 94 9a 3f 	call	0x7f34	; 0x7f34 <eeprom_read_byte>
    38d4:	8d 87       	std	Y+13, r24	; 0x0d
  Probes.Pin_3 = DATA_read_byte(&Pin_table[Probe3]);
    38d6:	c8 01       	movw	r24, r16
    38d8:	8d 5f       	subi	r24, 0xFD	; 253
    38da:	9f 4f       	sbci	r25, 0xFF	; 255
    38dc:	0e 94 9a 3f 	call	0x7f34	; 0x7f34 <eeprom_read_byte>
    38e0:	8e 87       	std	Y+14, r24	; 0x0e

  /* set register bits for ADC MUX input channels based on ID */
  Probes.Ch_1 = DATA_read_byte(&Channel_table[Probe1]);
    38e2:	c6 01       	movw	r24, r12
    38e4:	80 50       	subi	r24, 0x00	; 0
    38e6:	90 40       	sbci	r25, 0x00	; 0
    38e8:	0e 94 9a 3f 	call	0x7f34	; 0x7f34 <eeprom_read_byte>
    38ec:	8f 87       	std	Y+15, r24	; 0x0f
  Probes.Ch_2 = DATA_read_byte(&Channel_table[Probe2]);
    38ee:	c7 01       	movw	r24, r14
    38f0:	80 50       	subi	r24, 0x00	; 0
    38f2:	90 40       	sbci	r25, 0x00	; 0
    38f4:	0e 94 9a 3f 	call	0x7f34	; 0x7f34 <eeprom_read_byte>
    38f8:	88 8b       	std	Y+16, r24	; 0x10
  Probes.Ch_3 = DATA_read_byte(&Channel_table[Probe3]);
    38fa:	c8 01       	movw	r24, r16
    38fc:	80 50       	subi	r24, 0x00	; 0
    38fe:	90 40       	sbci	r25, 0x00	; 0
    3900:	0e 94 9a 3f 	call	0x7f34	; 0x7f34 <eeprom_read_byte>
    3904:	89 8b       	std	Y+17, r24	; 0x11
}
    3906:	cd b7       	in	r28, 0x3d	; 61
    3908:	de b7       	in	r29, 0x3e	; 62
    390a:	e8 e0       	ldi	r30, 0x08	; 8
    390c:	0c 94 3d 3f 	jmp	0x7e7a	; 0x7e7a <__epilogue_restores__+0x14>

00003910 <RestoreProbes>:
 */

void RestoreProbes(void)
{
  /* call probe update for saved IDs */
  UpdateProbes(Probes.ID2_1, Probes.ID2_2, Probes.ID2_3);
    3910:	eb ec       	ldi	r30, 0xCB	; 203
    3912:	f1 e0       	ldi	r31, 0x01	; 1
    3914:	45 81       	ldd	r20, Z+5	; 0x05
    3916:	64 81       	ldd	r22, Z+4	; 0x04
    3918:	83 81       	ldd	r24, Z+3	; 0x03
    391a:	0e 94 2a 1c 	call	0x3854	; 0x3854 <UpdateProbes>
    391e:	08 95       	ret

00003920 <BackupProbes>:
 */

void BackupProbes(void)
{
  /* copy probe IDs */
  Probes.ID2_1 = Probes.ID_1;
    3920:	eb ec       	ldi	r30, 0xCB	; 203
    3922:	f1 e0       	ldi	r31, 0x01	; 1
    3924:	80 81       	ld	r24, Z
    3926:	83 83       	std	Z+3, r24	; 0x03
  Probes.ID2_2 = Probes.ID_2;
    3928:	81 81       	ldd	r24, Z+1	; 0x01
    392a:	84 83       	std	Z+4, r24	; 0x04
  Probes.ID2_3 = Probes.ID_3;
    392c:	82 81       	ldd	r24, Z+2	; 0x02
    392e:	85 83       	std	Z+5, r24	; 0x05
    3930:	08 95       	ret

00003932 <GetThirdProbe>:
   *    probes #2 & #3: 1 + 2 = 3  -> probe #1: 0
   *  - third probe = 3 - (probe ID #1 + probe ID #2)
   */

  Probe3 = 3;
  Probe3 -= Probe1;
    3932:	93 e0       	ldi	r25, 0x03	; 3
    3934:	98 1b       	sub	r25, r24
    3936:	89 2f       	mov	r24, r25
  Probe3 -= Probe2;

  return Probe3;
}
    3938:	86 1b       	sub	r24, r22
    393a:	08 95       	ret

0000393c <ShortedPair>:
 *  - 0 if not shorted
 *  - 1 if shorted
 */

uint8_t ShortedPair(uint8_t Probe1, uint8_t Probe2)
{
    393c:	cf 93       	push	r28
    393e:	df 93       	push	r29
  uint16_t          U1;            /* voltage at probe #1 in mV */
  uint16_t          U2;            /* voltage at probe #2 in mV */
  uint16_t          Min;           /* lower threshold */
  uint16_t          Max;           /* upper threshold */

  UpdateProbes(Probe1, Probe2, 0);      /* update probes */
    3940:	40 e0       	ldi	r20, 0x00	; 0
    3942:	0e 94 2a 1c 	call	0x3854	; 0x3854 <UpdateProbes>
   *  Set up a voltage divider between the two probes:
   *  - Gnd -- Rl -- probe-2 / probe-1 -- Rl -- Vcc
   *  - third probe: HiZ
   */

  ADC_DDR = 0;                          /* set ADC port to HiZ */
    3946:	17 b8       	out	0x07, r1	; 7
  R_PORT = Probes.Rl_1;                 /* pull up probe-1 via Rl */
    3948:	90 91 d1 01 	lds	r25, 0x01D1	; 0x8001d1 <Probes+0x6>
    394c:	95 b9       	out	0x05, r25	; 5
  R_DDR = Probes.Rl_1 | Probes.Rl_2;    /* and pull down probe-2 via Rl */
    394e:	80 91 d2 01 	lds	r24, 0x01D2	; 0x8001d2 <Probes+0x7>
    3952:	89 2b       	or	r24, r25
    3954:	84 b9       	out	0x04, r24	; 4

  /* read voltages */
  U1 = ReadU_5ms(Probes.Ch_1);
    3956:	80 91 da 01 	lds	r24, 0x01DA	; 0x8001da <Probes+0xf>
    395a:	0e 94 18 1c 	call	0x3830	; 0x3830 <ReadU_5ms>
    395e:	ec 01       	movw	r28, r24
  U2 = ReadU(Probes.Ch_2);
    3960:	80 91 db 01 	lds	r24, 0x01DB	; 0x8001db <Probes+0x10>
    3964:	0e 94 b7 1b 	call	0x376e	; 0x376e <ReadU>
    3968:	ac 01       	movw	r20, r24
  /*
   *  We expect both probe voltages to be about the same and
   *  to be half of Vcc (allowed difference +/- 30mV).
   */

  Min = (Cfg.Vcc / 2) - 30;        /* lower voltage */
    396a:	20 91 a8 01 	lds	r18, 0x01A8	; 0x8001a8 <Cfg+0x8>
    396e:	30 91 a9 01 	lds	r19, 0x01A9	; 0x8001a9 <Cfg+0x9>
    3972:	36 95       	lsr	r19
    3974:	27 95       	ror	r18
    3976:	c9 01       	movw	r24, r18
    3978:	4e 97       	sbiw	r24, 0x1e	; 30
  Max = (Cfg.Vcc / 2) + 30;        /* upper voltage */

  if ((U1 > Min) && (U1 < Max))    /* U1 within window */
    397a:	8c 17       	cp	r24, r28
    397c:	9d 07       	cpc	r25, r29
    397e:	60 f4       	brcc	.+24     	; 0x3998 <ShortedPair+0x5c>
   *  We expect both probe voltages to be about the same and
   *  to be half of Vcc (allowed difference +/- 30mV).
   */

  Min = (Cfg.Vcc / 2) - 30;        /* lower voltage */
  Max = (Cfg.Vcc / 2) + 30;        /* upper voltage */
    3980:	22 5e       	subi	r18, 0xE2	; 226
    3982:	3f 4f       	sbci	r19, 0xFF	; 255

  if ((U1 > Min) && (U1 < Max))    /* U1 within window */
    3984:	c2 17       	cp	r28, r18
    3986:	d3 07       	cpc	r29, r19
    3988:	38 f4       	brcc	.+14     	; 0x3998 <ShortedPair+0x5c>
  { 
    if ((U2 > Min) && (U2 < Max))  /* U2 within window */
    398a:	84 17       	cp	r24, r20
    398c:	95 07       	cpc	r25, r21
    398e:	20 f4       	brcc	.+8      	; 0x3998 <ShortedPair+0x5c>
 *  - 1 if shorted
 */

uint8_t ShortedPair(uint8_t Probe1, uint8_t Probe2)
{
  uint8_t           Flag = 0;      /* return value */
    3990:	81 e0       	ldi	r24, 0x01	; 1
    3992:	42 17       	cp	r20, r18
    3994:	53 07       	cpc	r21, r19
    3996:	08 f0       	brcs	.+2      	; 0x399a <ShortedPair+0x5e>
    3998:	80 e0       	ldi	r24, 0x00	; 0
    {
      Flag = 1;                    /* about the same */
    }    
  }

  R_DDR = 0;             /* reset port */
    399a:	14 b8       	out	0x04, r1	; 4

  return Flag;
}
    399c:	df 91       	pop	r29
    399e:	cf 91       	pop	r28
    39a0:	08 95       	ret

000039a2 <ShortedProbes>:
 *  - number of short-circuited probe pairs
 *    (0 = none, 3 = all)
 */

uint8_t ShortedProbes(void)
{
    39a2:	cf 93       	push	r28
  uint8_t           Flag = 0;      /* return value */

  /* check all possible combinations */
  Flag = ShortedPair(PROBE_1, PROBE_2);
    39a4:	61 e0       	ldi	r22, 0x01	; 1
    39a6:	80 e0       	ldi	r24, 0x00	; 0
    39a8:	0e 94 9e 1c 	call	0x393c	; 0x393c <ShortedPair>
    39ac:	c8 2f       	mov	r28, r24
  Flag += ShortedPair(PROBE_1, PROBE_3);
    39ae:	62 e0       	ldi	r22, 0x02	; 2
    39b0:	80 e0       	ldi	r24, 0x00	; 0
    39b2:	0e 94 9e 1c 	call	0x393c	; 0x393c <ShortedPair>
    39b6:	c8 0f       	add	r28, r24
  Flag += ShortedPair(PROBE_2, PROBE_3);
    39b8:	62 e0       	ldi	r22, 0x02	; 2
    39ba:	81 e0       	ldi	r24, 0x01	; 1
    39bc:	0e 94 9e 1c 	call	0x393c	; 0x393c <ShortedPair>

  return Flag;  
}
    39c0:	8c 0f       	add	r24, r28
    39c2:	cf 91       	pop	r28
    39c4:	08 95       	ret

000039c6 <DischargeCap>:
 *  - Probe1: ID of probe-1
 *  - Probe2: ID of probe-2
 */

void DischargeCap(uint8_t Probe1, uint8_t Probe2)
{
    39c6:	0f 93       	push	r16
    39c8:	1f 93       	push	r17
    39ca:	cf 93       	push	r28
    39cc:	df 93       	push	r29
    39ce:	d8 2f       	mov	r29, r24
    39d0:	c6 2f       	mov	r28, r22
  uint8_t           n;             /* counter */
  uint16_t          U_1;           /* voltage #1 */
  uint16_t          U_2;           /* voltage #2 */

  /* probes: set to safe mode */
  ADC_DDR = 0;
    39d2:	17 b8       	out	0x07, r1	; 7
  ADC_PORT = 0;
    39d4:	18 b8       	out	0x08, r1	; 8
  R_DDR = 0;
    39d6:	14 b8       	out	0x04, r1	; 4
  R_PORT = 0;
    39d8:	15 b8       	out	0x05, r1	; 5

  /*
   *  figure out the positive charged pin
   */

  UpdateProbes(Probe1, Probe2, 0);      /* update probes */
    39da:	40 e0       	ldi	r20, 0x00	; 0
    39dc:	0e 94 2a 1c 	call	0x3854	; 0x3854 <UpdateProbes>

  /* try probe-1 */ 
  ADC_DDR = Probes.Pin_1;          /* pull down probe-1 directly */
    39e0:	80 91 d7 01 	lds	r24, 0x01D7	; 0x8001d7 <Probes+0xc>
    39e4:	87 b9       	out	0x07, r24	; 7
  U_1 = ReadU(Probes.Ch_2);        /* get voltage at probe-2 */
    39e6:	80 91 db 01 	lds	r24, 0x01DB	; 0x8001db <Probes+0x10>
    39ea:	0e 94 b7 1b 	call	0x376e	; 0x376e <ReadU>
    39ee:	8c 01       	movw	r16, r24

  /* try probe-2 */
  ADC_DDR = Probes.Pin_2;          /* pull down probe-2 directly */
    39f0:	80 91 d8 01 	lds	r24, 0x01D8	; 0x8001d8 <Probes+0xd>
    39f4:	87 b9       	out	0x07, r24	; 7
  U_2 = ReadU(Probes.Ch_1);        /* get voltage at probe-1 */
    39f6:	80 91 da 01 	lds	r24, 0x01DA	; 0x8001da <Probes+0xf>
    39fa:	0e 94 b7 1b 	call	0x376e	; 0x376e <ReadU>

  if (U_2 > U_1)                   /* probe-1 is positive */
    39fe:	08 17       	cp	r16, r24
    3a00:	19 07       	cpc	r17, r25
    3a02:	28 f4       	brcc	.+10     	; 0x3a0e <DischargeCap+0x48>
  {
    /* reverse probes */
    UpdateProbes(Probe2, Probe1, 0);    /* update probes */
    3a04:	40 e0       	ldi	r20, 0x00	; 0
    3a06:	6d 2f       	mov	r22, r29
    3a08:	8c 2f       	mov	r24, r28
    3a0a:	0e 94 2a 1c 	call	0x3854	; 0x3854 <UpdateProbes>
  /*
   *  discharge cap to voltage below 40mV
   */

  /* discharge positive side via Rl */
  ADC_DDR = Probes.Pin_1;          /* pull down probe-1 directly */
    3a0e:	80 91 d7 01 	lds	r24, 0x01D7	; 0x8001d7 <Probes+0xc>
    3a12:	87 b9       	out	0x07, r24	; 7
  R_DDR = Probes.Rl_2;             /* pull down probe-2 via Rl */
    3a14:	80 91 d2 01 	lds	r24, 0x01D2	; 0x8001d2 <Probes+0x7>
    3a18:	84 b9       	out	0x04, r24	; 4
    3a1a:	c2 e3       	ldi	r28, 0x32	; 50

  n = 1;

  while (n)                        /* processing loop */
  {
    U_1 = ReadU(Probes.Ch_2);      /* get voltage at probe-2 */
    3a1c:	80 91 db 01 	lds	r24, 0x01DB	; 0x8001db <Probes+0x10>
    3a20:	0e 94 b7 1b 	call	0x376e	; 0x376e <ReadU>
    3a24:	9c 01       	movw	r18, r24

    if (U_1 < 400)                 /* below 400mV */
    3a26:	20 39       	cpi	r18, 0x90	; 144
    3a28:	81 e0       	ldi	r24, 0x01	; 1
    3a2a:	38 07       	cpc	r19, r24
    3a2c:	38 f0       	brcs	.+14     	; 0x3a3c <DischargeCap+0x76>
    3a2e:	c1 50       	subi	r28, 0x01	; 1
    }
    else                           /* not discharged yet */
    {
      n++;                         /* another cycle */

      if (n > 50)                  /* timeout (5s) */
    3a30:	69 f0       	breq	.+26     	; 0x3a4c <DischargeCap+0x86>
      {
        n = 0;                     /* end loop */
      }
      else                         /* keep discharging */
      {
        MilliSleep(100);           /* wait */
    3a32:	84 e6       	ldi	r24, 0x64	; 100
    3a34:	90 e0       	ldi	r25, 0x00	; 0
    3a36:	0e 94 2e 17 	call	0x2e5c	; 0x2e5c <MilliSleep>
    3a3a:	f0 cf       	rjmp	.-32     	; 0x3a1c <DischargeCap+0x56>
  {
    U_1 = ReadU(Probes.Ch_2);      /* get voltage at probe-2 */

    if (U_1 < 400)                 /* below 400mV */
    {
      ADC_DDR |= Probes.Pin_2;     /* also pull down probe-2 directly */
    3a3c:	87 b1       	in	r24, 0x07	; 7
    3a3e:	90 91 d8 01 	lds	r25, 0x01D8	; 0x8001d8 <Probes+0xd>
    3a42:	98 2b       	or	r25, r24
    3a44:	97 b9       	out	0x07, r25	; 7
    }

    if (U_1 < 40)                  /* discharged < 40mV */
    3a46:	28 32       	cpi	r18, 0x28	; 40
    3a48:	31 05       	cpc	r19, r1
    3a4a:	88 f7       	brcc	.-30     	; 0x3a2e <DischargeCap+0x68>
      }
    }
  }

  /* probes: reset to safe mode */
  ADC_DDR = 0;
    3a4c:	17 b8       	out	0x07, r1	; 7
  R_DDR = 0;
    3a4e:	14 b8       	out	0x04, r1	; 4
}
    3a50:	df 91       	pop	r29
    3a52:	cf 91       	pop	r28
    3a54:	1f 91       	pop	r17
    3a56:	0f 91       	pop	r16
    3a58:	08 95       	ret

00003a5a <DischargeProbes>:
 *  - detect batteries
 *  - sometimes large caps are detected as a battery
 */

void DischargeProbes(void)
{
    3a5a:	a6 e0       	ldi	r26, 0x06	; 6
    3a5c:	b0 e0       	ldi	r27, 0x00	; 0
    3a5e:	e3 e3       	ldi	r30, 0x33	; 51
    3a60:	fd e1       	ldi	r31, 0x1D	; 29
    3a62:	0c 94 1c 3f 	jmp	0x7e38	; 0x7e38 <__prologue_saves__+0xa>
  /*
   *  set probes to a safe discharge mode (pull-down via Rh) 
   */

  /* set ADC port to HiZ input */
  ADC_DDR = 0;
    3a66:	17 b8       	out	0x07, r1	; 7
  ADC_PORT = 0;
    3a68:	18 b8       	out	0x08, r1	; 8

  /* all probe pins: Rh and Rl pull-down */
  R_PORT = 0;
    3a6a:	15 b8       	out	0x05, r1	; 5
  R_DDR = (1 << R_RH_1) | (1 << R_RH_2) | (1 << R_RH_3) |
    3a6c:	8f e3       	ldi	r24, 0x3F	; 63
    3a6e:	84 b9       	out	0x04, r24	; 4
          (1 << R_RL_1) | (1 << R_RL_2) | (1 << R_RL_3);

  /* get current voltages */
  U_old[0] = ReadU(TP1);
    3a70:	80 e0       	ldi	r24, 0x00	; 0
    3a72:	0e 94 b7 1b 	call	0x376e	; 0x376e <ReadU>
    3a76:	9a 83       	std	Y+2, r25	; 0x02
    3a78:	89 83       	std	Y+1, r24	; 0x01
  U_old[1] = ReadU(TP2);
    3a7a:	81 e0       	ldi	r24, 0x01	; 1
    3a7c:	0e 94 b7 1b 	call	0x376e	; 0x376e <ReadU>
    3a80:	9c 83       	std	Y+4, r25	; 0x04
    3a82:	8b 83       	std	Y+3, r24	; 0x03
  U_old[2] = ReadU(TP3);
    3a84:	82 e0       	ldi	r24, 0x02	; 2
    3a86:	0e 94 b7 1b 	call	0x376e	; 0x376e <ReadU>
    3a8a:	9e 83       	std	Y+6, r25	; 0x06
    3a8c:	8d 83       	std	Y+5, r24	; 0x05
   *    voltage.
   */

  Counter = 1;                          /* reset variables */
  ID = 2;
  Flags = 0;
    3a8e:	e1 2c       	mov	r14, r1
   *    the probe resistors. In case of a battery it's not the battery's
   *    voltage.
   */

  Counter = 1;                          /* reset variables */
  ID = 2;
    3a90:	12 e0       	ldi	r17, 0x02	; 2
 */

void DischargeProbes(void)
{
  uint8_t           Counter;            /* loop control */
  uint8_t           Limit = 40;         /* sliding timeout (2s) */
    3a92:	08 e2       	ldi	r16, 0x28	; 40
   *  - The voltage measured is the voltage across the divider formed by
   *    the probe resistors. In case of a battery it's not the battery's
   *    voltage.
   */

  Counter = 1;                          /* reset variables */
    3a94:	ff 24       	eor	r15, r15
    3a96:	f3 94       	inc	r15
      Counter++;                        /* increase no-changes counter */
    }

    if (U_c <= CAP_DISCHARGED)          /* seems to be discharged */
    {
      Flags |= (1 << ID);               /* set flag for probe */
    3a98:	aa 24       	eor	r10, r10
    3a9a:	a3 94       	inc	r10
    3a9c:	b1 2c       	mov	r11, r1
  ID = 2;
  Flags = 0;

  while (Counter > 0)
  {
    ID++;                               /* next probe */
    3a9e:	1f 5f       	subi	r17, 0xFF	; 255
    if (ID > 2) ID = 0;                 /* start with probe #1 again */
    3aa0:	13 30       	cpi	r17, 0x03	; 3
    3aa2:	09 f4       	brne	.+2      	; 0x3aa6 <DischargeProbes+0x4c>
    3aa4:	10 e0       	ldi	r17, 0x00	; 0

    if (Flags & (1 << ID))              /* skip discharged probe */
    3aa6:	81 2e       	mov	r8, r17
    3aa8:	91 2c       	mov	r9, r1
    3aaa:	8e 2d       	mov	r24, r14
    3aac:	90 e0       	ldi	r25, 0x00	; 0
    3aae:	01 2e       	mov	r0, r17
    3ab0:	02 c0       	rjmp	.+4      	; 0x3ab6 <DischargeProbes+0x5c>
    3ab2:	95 95       	asr	r25
    3ab4:	87 95       	ror	r24
    3ab6:	0a 94       	dec	r0
    3ab8:	e2 f7       	brpl	.-8      	; 0x3ab2 <DischargeProbes+0x58>
    3aba:	80 fd       	sbrc	r24, 0
    3abc:	f0 cf       	rjmp	.-32     	; 0x3a9e <DischargeProbes+0x44>
      continue;

    U_c = ReadU(ID);                    /* get voltage of probe */
    3abe:	81 2f       	mov	r24, r17
    3ac0:	0e 94 b7 1b 	call	0x376e	; 0x376e <ReadU>
    3ac4:	6c 01       	movw	r12, r24

    if (U_c < U_old[ID])                /* voltage decreased */
    3ac6:	f4 01       	movw	r30, r8
    3ac8:	ee 0f       	add	r30, r30
    3aca:	ff 1f       	adc	r31, r31
    3acc:	81 e0       	ldi	r24, 0x01	; 1
    3ace:	90 e0       	ldi	r25, 0x00	; 0
    3ad0:	8c 0f       	add	r24, r28
    3ad2:	9d 1f       	adc	r25, r29
    3ad4:	e8 0f       	add	r30, r24
    3ad6:	f9 1f       	adc	r31, r25
    3ad8:	80 81       	ld	r24, Z
    3ada:	91 81       	ldd	r25, Z+1	; 0x01
    3adc:	c8 16       	cp	r12, r24
    3ade:	d9 06       	cpc	r13, r25
    3ae0:	60 f4       	brcc	.+24     	; 0x3afa <DischargeProbes+0xa0>
    {
      U_old[ID] = U_c;                  /* update old value */
    3ae2:	d1 82       	std	Z+1, r13	; 0x01
    3ae4:	c0 82       	st	Z, r12

      /* adapt timeout based on discharge rate */
      if ((Limit - Counter) < 20)
    3ae6:	80 2f       	mov	r24, r16
    3ae8:	90 e0       	ldi	r25, 0x00	; 0
    3aea:	8f 19       	sub	r24, r15
    3aec:	91 09       	sbc	r25, r1
    3aee:	44 97       	sbiw	r24, 0x14	; 20
    3af0:	6c f4       	brge	.+26     	; 0x3b0c <DischargeProbes+0xb2>
      {
        /* increase timeout while preventing overflow */
        if (Limit < (255 - 20)) Limit += 20;
    3af2:	0b 3e       	cpi	r16, 0xEB	; 235
    3af4:	58 f4       	brcc	.+22     	; 0x3b0c <DischargeProbes+0xb2>
    3af6:	0c 5e       	subi	r16, 0xEC	; 236
    3af8:	09 c0       	rjmp	.+18     	; 0x3b0c <DischargeProbes+0xb2>
      Counter = 1;                      /* reset no-changes counter */
    }
    else                                /* voltage not decreased */
    {
      /* increase limit if we start at a low voltage */
      if ((U_c < 10) && (Limit <= 40)) Limit = 80;
    3afa:	9a e0       	ldi	r25, 0x0A	; 10
    3afc:	c9 16       	cp	r12, r25
    3afe:	d1 04       	cpc	r13, r1
    3b00:	18 f4       	brcc	.+6      	; 0x3b08 <DischargeProbes+0xae>
    3b02:	08 32       	cpi	r16, 0x28	; 40
    3b04:	09 f4       	brne	.+2      	; 0x3b08 <DischargeProbes+0xae>
    3b06:	00 e5       	ldi	r16, 0x50	; 80

      Counter++;                        /* increase no-changes counter */
    3b08:	f3 94       	inc	r15
    3b0a:	02 c0       	rjmp	.+4      	; 0x3b10 <DischargeProbes+0xb6>
      {
        /* increase timeout while preventing overflow */
        if (Limit < (255 - 20)) Limit += 20;
      }

      Counter = 1;                      /* reset no-changes counter */
    3b0c:	ff 24       	eor	r15, r15
    3b0e:	f3 94       	inc	r15
      if ((U_c < 10) && (Limit <= 40)) Limit = 80;

      Counter++;                        /* increase no-changes counter */
    }

    if (U_c <= CAP_DISCHARGED)          /* seems to be discharged */
    3b10:	83 e0       	ldi	r24, 0x03	; 3
    3b12:	c8 16       	cp	r12, r24
    3b14:	d1 04       	cpc	r13, r1
    3b16:	40 f4       	brcc	.+16     	; 0x3b28 <DischargeProbes+0xce>
    {
      Flags |= (1 << ID);               /* set flag for probe */
    3b18:	c5 01       	movw	r24, r10
    3b1a:	08 2c       	mov	r0, r8
    3b1c:	01 c0       	rjmp	.+2      	; 0x3b20 <DischargeProbes+0xc6>
    3b1e:	88 0f       	add	r24, r24
    3b20:	0a 94       	dec	r0
    3b22:	ea f7       	brpl	.-6      	; 0x3b1e <DischargeProbes+0xc4>
    3b24:	e8 2a       	or	r14, r24
    3b26:	0d c0       	rjmp	.+26     	; 0x3b42 <DischargeProbes+0xe8>
    }
    else if (U_c < 800)                 /* extra pull-down */
    3b28:	90 e2       	ldi	r25, 0x20	; 32
    3b2a:	c9 16       	cp	r12, r25
    3b2c:	93 e0       	ldi	r25, 0x03	; 3
    3b2e:	d9 06       	cpc	r13, r25
    3b30:	40 f4       	brcc	.+16     	; 0x3b42 <DischargeProbes+0xe8>
    {
      /* it's save now to pull down probe pin directly */
      ADC_DDR |= DATA_read_byte(&Pin_table[ID]);
    3b32:	77 b0       	in	r7, 0x07	; 7
    3b34:	c4 01       	movw	r24, r8
    3b36:	8d 5f       	subi	r24, 0xFD	; 253
    3b38:	9f 4f       	sbci	r25, 0xFF	; 255
    3b3a:	0e 94 9a 3f 	call	0x7f34	; 0x7f34 <eeprom_read_byte>
    3b3e:	87 29       	or	r24, r7
    3b40:	87 b9       	out	0x07, r24	; 7
    }

    if (Flags == 0b00000111)            /* all probes discharged */
    3b42:	87 e0       	ldi	r24, 0x07	; 7
    3b44:	e8 16       	cp	r14, r24
    3b46:	a1 f0       	breq	.+40     	; 0x3b70 <DischargeProbes+0x116>
    {
      Counter = 0;                      /* end loop */
    }
    else if (Counter > Limit)           /* no decrease for some time */
    3b48:	0f 15       	cp	r16, r15
    3b4a:	60 f4       	brcc	.+24     	; 0x3b64 <DischargeProbes+0x10a>
    {
      /* might be a battery or a super cap */
      Check.Found = COMP_ERROR;         /* report error */
    3b4c:	81 e0       	ldi	r24, 0x01	; 1
    3b4e:	80 93 06 01 	sts	0x0106, r24	; 0x800106 <__data_end>
      Check.Type = TYPE_DISCHARGE;      /* discharge problem */
    3b52:	80 93 07 01 	sts	0x0107, r24	; 0x800107 <__data_end+0x1>
      Check.Probe = ID;                 /* save probe */
    3b56:	10 93 0c 01 	sts	0x010C, r17	; 0x80010c <__data_end+0x6>
      Check.U = U_c;                    /* save voltage */
    3b5a:	d0 92 0e 01 	sts	0x010E, r13	; 0x80010e <__data_end+0x8>
    3b5e:	c0 92 0d 01 	sts	0x010D, r12	; 0x80010d <__data_end+0x7>
    3b62:	06 c0       	rjmp	.+12     	; 0x3b70 <DischargeProbes+0x116>
      Counter = 0;                      /* end loop */
    }
    else                                /* go for another round */
    {
      wdt_reset();                      /* reset watchdog */
    3b64:	a8 95       	wdr
      MilliSleep(50);                   /* wait for 50ms */
    3b66:	82 e3       	ldi	r24, 0x32	; 50
    3b68:	90 e0       	ldi	r25, 0x00	; 0
    3b6a:	0e 94 2e 17 	call	0x2e5c	; 0x2e5c <MilliSleep>
    3b6e:	97 cf       	rjmp	.-210    	; 0x3a9e <DischargeProbes+0x44>
    }
  }

  /* reset probes */
  R_DDR = 0;                  /* set resistor port to input mode */
    3b70:	14 b8       	out	0x04, r1	; 4
  ADC_DDR = 0;                /* set ADC port to input mode */
    3b72:	17 b8       	out	0x07, r1	; 7
}
    3b74:	26 96       	adiw	r28, 0x06	; 6
    3b76:	ed e0       	ldi	r30, 0x0D	; 13
    3b78:	0c 94 38 3f 	jmp	0x7e70	; 0x7e70 <__epilogue_restores__+0xa>

00003b7c <PullProbe>:
 *    PULL_1MS   for 1ms
 *    PULL_10MS  for 10ms
 */

void PullProbe(uint8_t Mask, uint8_t Mode)
{
    3b7c:	cf 93       	push	r28
    3b7e:	c8 2f       	mov	r28, r24
    3b80:	c0 95       	com	r28
  /* set pull mode */
  if (Mode & PULL_UP)         /* pull-up */
  {
    R_PORT |= Mask;                /* set bit */
    3b82:	95 b1       	in	r25, 0x05	; 5
 */

void PullProbe(uint8_t Mask, uint8_t Mode)
{
  /* set pull mode */
  if (Mode & PULL_UP)         /* pull-up */
    3b84:	60 ff       	sbrs	r22, 0
    3b86:	02 c0       	rjmp	.+4      	; 0x3b8c <PullProbe+0x10>
  {
    R_PORT |= Mask;                /* set bit */
    3b88:	98 2b       	or	r25, r24
    3b8a:	01 c0       	rjmp	.+2      	; 0x3b8e <PullProbe+0x12>
  }
  else                        /* pull-down */
  {
    R_PORT &= ~Mask;               /* clear bit */
    3b8c:	9c 23       	and	r25, r28
    3b8e:	95 b9       	out	0x05, r25	; 5
  }
  R_DDR |= Mask;              /* enable pulling */
    3b90:	94 b1       	in	r25, 0x04	; 4
    3b92:	89 2b       	or	r24, r25
    3b94:	84 b9       	out	0x04, r24	; 4

  if (Mode & PULL_1MS)        /* wait 1ms */
    3b96:	63 ff       	sbrs	r22, 3
    3b98:	03 c0       	rjmp	.+6      	; 0x3ba0 <PullProbe+0x24>
  {
    wait1ms();
    3b9a:	0e 94 7e 3c 	call	0x78fc	; 0x78fc <wait1ms>
    3b9e:	02 c0       	rjmp	.+4      	; 0x3ba4 <PullProbe+0x28>
  }
  else                        /* wait 10ms */
  {
    wait10ms();
    3ba0:	0e 94 79 3c 	call	0x78f2	; 0x78f2 <wait10ms>
  }

  /* reset pulling */
  R_DDR &= ~Mask;             /* set to HiZ mode */
    3ba4:	84 b1       	in	r24, 0x04	; 4
    3ba6:	8c 23       	and	r24, r28
    3ba8:	84 b9       	out	0x04, r24	; 4
  R_PORT &= ~Mask;            /* set 0 */
    3baa:	85 b1       	in	r24, 0x05	; 5
    3bac:	c8 23       	and	r28, r24
    3bae:	c5 b9       	out	0x05, r28	; 5
}
    3bb0:	cf 91       	pop	r28
    3bb2:	08 95       	ret

00003bb4 <GetFactor>:
 *  returns:
 *  - multiplicator/factor
 */

uint16_t GetFactor(uint16_t U_in, uint8_t ID)
{
    3bb4:	a0 e0       	ldi	r26, 0x00	; 0
    3bb6:	b0 e0       	ldi	r27, 0x00	; 0
    3bb8:	e0 ee       	ldi	r30, 0xE0	; 224
    3bba:	fd e1       	ldi	r31, 0x1D	; 29
    3bbc:	0c 94 22 3f 	jmp	0x7e44	; 0x7e44 <__prologue_saves__+0x16>

  /*
   *  set up table specific stuff
   */

  if (ID == TABLE_SMALL_CAP)
    3bc0:	61 30       	cpi	r22, 0x01	; 1
    3bc2:	39 f0       	breq	.+14     	; 0x3bd2 <GetFactor+0x1e>
    TabStart = 1000;                         /* table starts at 1000mV */
    TabStep = 50;                            /* 50mV steps between entries */
    TabIndex = (NUM_SMALL_CAP - 2);          /* entries in table - 2 */
    Table = (uint16_t *)&SmallCap_table[0];  /* pointer to table */
  }
  else if (ID == TABLE_LARGE_CAP)
    3bc4:	62 30       	cpi	r22, 0x02	; 2
    3bc6:	71 f0       	breq	.+28     	; 0x3be4 <GetFactor+0x30>
    TabStep = 25;                            /* 25mV steps between entries */
    TabIndex = (NUM_LARGE_CAP - 2);          /* entries in table - 2 */
    Table = (uint16_t *)&LargeCap_table[0];  /* pointer to table */
  }
  #ifdef SW_INDUCTOR
  else if (ID == TABLE_INDUCTOR)
    3bc8:	63 30       	cpi	r22, 0x03	; 3
    3bca:	a9 f0       	breq	.+42     	; 0x3bf6 <GetFactor+0x42>
    Table = (uint16_t *)&Inductor_table[0];  /* pointer to table */
  }
  #endif
  else
  {
    return 0;                 /* signal error */
    3bcc:	80 e0       	ldi	r24, 0x00	; 0
    3bce:	90 e0       	ldi	r25, 0x00	; 0
    3bd0:	4d c0       	rjmp	.+154    	; 0x3c6c <GetFactor+0xb8>
  if (ID == TABLE_SMALL_CAP)
  {
    TabStart = 1000;                         /* table starts at 1000mV */
    TabStep = 50;                            /* 50mV steps between entries */
    TabIndex = (NUM_SMALL_CAP - 2);          /* entries in table - 2 */
    Table = (uint16_t *)&SmallCap_table[0];  /* pointer to table */
    3bd2:	cf e7       	ldi	r28, 0x7F	; 127
    3bd4:	d0 e0       	ldi	r29, 0x00	; 0

  if (ID == TABLE_SMALL_CAP)
  {
    TabStart = 1000;                         /* table starts at 1000mV */
    TabStep = 50;                            /* 50mV steps between entries */
    TabIndex = (NUM_SMALL_CAP - 2);          /* entries in table - 2 */
    3bd6:	e7 e0       	ldi	r30, 0x07	; 7
    3bd8:	f0 e0       	ldi	r31, 0x00	; 0
   */

  if (ID == TABLE_SMALL_CAP)
  {
    TabStart = 1000;                         /* table starts at 1000mV */
    TabStep = 50;                            /* 50mV steps between entries */
    3bda:	02 e3       	ldi	r16, 0x32	; 50
    3bdc:	10 e0       	ldi	r17, 0x00	; 0
   *  set up table specific stuff
   */

  if (ID == TABLE_SMALL_CAP)
  {
    TabStart = 1000;                         /* table starts at 1000mV */
    3bde:	28 ee       	ldi	r18, 0xE8	; 232
    3be0:	33 e0       	ldi	r19, 0x03	; 3
    3be2:	11 c0       	rjmp	.+34     	; 0x3c06 <GetFactor+0x52>
  else if (ID == TABLE_LARGE_CAP)
  {
    TabStart = 300;                          /* table starts at 1000mV */
    TabStep = 25;                            /* 25mV steps between entries */
    TabIndex = (NUM_LARGE_CAP - 2);          /* entries in table - 2 */
    Table = (uint16_t *)&LargeCap_table[0];  /* pointer to table */
    3be4:	c1 e9       	ldi	r28, 0x91	; 145
    3be6:	d0 e0       	ldi	r29, 0x00	; 0
  }
  else if (ID == TABLE_LARGE_CAP)
  {
    TabStart = 300;                          /* table starts at 1000mV */
    TabStep = 25;                            /* 25mV steps between entries */
    TabIndex = (NUM_LARGE_CAP - 2);          /* entries in table - 2 */
    3be8:	ec e2       	ldi	r30, 0x2C	; 44
    3bea:	f0 e0       	ldi	r31, 0x00	; 0
    Table = (uint16_t *)&SmallCap_table[0];  /* pointer to table */
  }
  else if (ID == TABLE_LARGE_CAP)
  {
    TabStart = 300;                          /* table starts at 1000mV */
    TabStep = 25;                            /* 25mV steps between entries */
    3bec:	09 e1       	ldi	r16, 0x19	; 25
    3bee:	10 e0       	ldi	r17, 0x00	; 0
    TabIndex = (NUM_SMALL_CAP - 2);          /* entries in table - 2 */
    Table = (uint16_t *)&SmallCap_table[0];  /* pointer to table */
  }
  else if (ID == TABLE_LARGE_CAP)
  {
    TabStart = 300;                          /* table starts at 1000mV */
    3bf0:	2c e2       	ldi	r18, 0x2C	; 44
    3bf2:	31 e0       	ldi	r19, 0x01	; 1
    3bf4:	08 c0       	rjmp	.+16     	; 0x3c06 <GetFactor+0x52>
  else if (ID == TABLE_INDUCTOR)
  {
    TabStart = 200;                          /* table starts at 200 */
    TabStep = 25;                            /* steps between entries */
    TabIndex = (NUM_INDUCTOR - 2);           /* entries in table - 2 */
    Table = (uint16_t *)&Inductor_table[0];  /* pointer to table */
    3bf6:	cf e3       	ldi	r28, 0x3F	; 63
    3bf8:	d0 e0       	ldi	r29, 0x00	; 0
  #ifdef SW_INDUCTOR
  else if (ID == TABLE_INDUCTOR)
  {
    TabStart = 200;                          /* table starts at 200 */
    TabStep = 25;                            /* steps between entries */
    TabIndex = (NUM_INDUCTOR - 2);           /* entries in table - 2 */
    3bfa:	ee e1       	ldi	r30, 0x1E	; 30
    3bfc:	f0 e0       	ldi	r31, 0x00	; 0
  }
  #ifdef SW_INDUCTOR
  else if (ID == TABLE_INDUCTOR)
  {
    TabStart = 200;                          /* table starts at 200 */
    TabStep = 25;                            /* steps between entries */
    3bfe:	09 e1       	ldi	r16, 0x19	; 25
    3c00:	10 e0       	ldi	r17, 0x00	; 0
    Table = (uint16_t *)&LargeCap_table[0];  /* pointer to table */
  }
  #ifdef SW_INDUCTOR
  else if (ID == TABLE_INDUCTOR)
  {
    TabStart = 200;                          /* table starts at 200 */
    3c02:	28 ec       	ldi	r18, 0xC8	; 200
    3c04:	30 e0       	ldi	r19, 0x00	; 0
  /*
   *  We interpolate the table values corresponding to the given voltage/ratio.
   */

  /* difference to start of table */
  if (U_in >= TabStart) U_Diff = U_in - TabStart;  
    3c06:	82 17       	cp	r24, r18
    3c08:	93 07       	cpc	r25, r19
    3c0a:	68 f1       	brcs	.+90     	; 0x3c66 <GetFactor+0xb2>
    3c0c:	82 1b       	sub	r24, r18
    3c0e:	93 0b       	sbc	r25, r19
  else U_Diff = 0;

  /* calculate table index */
  Index = U_Diff / TabStep;             /* index (position in table) */
    3c10:	b8 01       	movw	r22, r16
    3c12:	0e 94 87 3e 	call	0x7d0e	; 0x7d0e <__udivmodhi4>
  Diff = U_Diff % TabStep;              /* difference to index */
  Diff = TabStep - Diff;                /* difference to next entry */
    3c16:	d0 2e       	mov	r13, r16
    3c18:	d8 1a       	sub	r13, r24

  /* prevent index overflow */
  if (Index > TabIndex) Index = TabIndex;
    3c1a:	cb 01       	movw	r24, r22
    3c1c:	99 27       	eor	r25, r25
    3c1e:	e8 17       	cp	r30, r24
    3c20:	f9 07       	cpc	r31, r25
    3c22:	08 f4       	brcc	.+2      	; 0x3c26 <GetFactor+0x72>
    3c24:	6e 2f       	mov	r22, r30

  /* get values for index and next entry */
  Table += Index;                       /* advance to index */
    3c26:	c6 0f       	add	r28, r22
    3c28:	d1 1d       	adc	r29, r1
    3c2a:	c6 0f       	add	r28, r22
    3c2c:	d1 1d       	adc	r29, r1
  Fact1 = DATA_read_word(Table);
    3c2e:	ce 01       	movw	r24, r28
    3c30:	0e 94 a2 3f 	call	0x7f44	; 0x7f44 <eeprom_read_word>
    3c34:	7c 01       	movw	r14, r24
  Table++;                              /* next entry */
  Fact2 = DATA_read_word(Table);
    3c36:	ce 01       	movw	r24, r28
    3c38:	02 96       	adiw	r24, 0x02	; 2
    3c3a:	0e 94 a2 3f 	call	0x7f44	; 0x7f44 <eeprom_read_word>
    3c3e:	fc 01       	movw	r30, r24

  /* interpolate values based on the difference */
  Factor = Fact1 - Fact2;
    3c40:	e8 1a       	sub	r14, r24
    3c42:	f9 0a       	sbc	r15, r25
  Factor *= Diff;
    3c44:	de 9c       	mul	r13, r14
    3c46:	90 01       	movw	r18, r0
    3c48:	df 9c       	mul	r13, r15
    3c4a:	30 0d       	add	r19, r0
    3c4c:	11 24       	eor	r1, r1
  Factor += TabStep / 2;
    3c4e:	c8 01       	movw	r24, r16
    3c50:	96 95       	lsr	r25
    3c52:	87 95       	ror	r24
    3c54:	82 0f       	add	r24, r18
    3c56:	93 1f       	adc	r25, r19
  Factor /= TabStep;
    3c58:	b8 01       	movw	r22, r16
    3c5a:	0e 94 87 3e 	call	0x7d0e	; 0x7d0e <__udivmodhi4>
  Factor += Fact2;
    3c5e:	cf 01       	movw	r24, r30
    3c60:	86 0f       	add	r24, r22
    3c62:	97 1f       	adc	r25, r23

  return Factor;
    3c64:	03 c0       	rjmp	.+6      	; 0x3c6c <GetFactor+0xb8>
  else U_Diff = 0;

  /* calculate table index */
  Index = U_Diff / TabStep;             /* index (position in table) */
  Diff = U_Diff % TabStep;              /* difference to index */
  Diff = TabStep - Diff;                /* difference to next entry */
    3c66:	d0 2e       	mov	r13, r16
  /* difference to start of table */
  if (U_in >= TabStart) U_Diff = U_in - TabStart;  
  else U_Diff = 0;

  /* calculate table index */
  Index = U_Diff / TabStep;             /* index (position in table) */
    3c68:	60 e0       	ldi	r22, 0x00	; 0
    3c6a:	dd cf       	rjmp	.-70     	; 0x3c26 <GetFactor+0x72>
  Factor += TabStep / 2;
  Factor /= TabStep;
  Factor += Fact2;

  return Factor;
}
    3c6c:	cd b7       	in	r28, 0x3d	; 61
    3c6e:	de b7       	in	r29, 0x3e	; 62
    3c70:	e7 e0       	ldi	r30, 0x07	; 7
    3c72:	0c 94 3e 3f 	jmp	0x7e7c	; 0x7e7c <__epilogue_restores__+0x16>

00003c76 <GetENormValue>:
 *  - 1 for one matching norm value
 *  - 2 for two matching norm values
 */

uint8_t GetENormValue(uint32_t Value, int8_t Scale, uint8_t E_Series, uint8_t Tolerance)
{
    3c76:	a4 e0       	ldi	r26, 0x04	; 4
    3c78:	b0 e0       	ldi	r27, 0x00	; 0
    3c7a:	e1 e4       	ldi	r30, 0x41	; 65
    3c7c:	fe e1       	ldi	r31, 0x1E	; 30
    3c7e:	0c 94 17 3f 	jmp	0x7e2e	; 0x7e2e <__prologue_saves__>
    3c82:	6b 01       	movw	r12, r22
    3c84:	7c 01       	movw	r14, r24
    3c86:	4b 83       	std	Y+3, r20	; 0x03
    3c88:	09 83       	std	Y+1, r16	; 0x01
  /*
   *  set up table specific stuff
   *  - the norm values stored in the tables are scaled to 0.01
   */

  switch (E_Series)
    3c8a:	26 30       	cpi	r18, 0x06	; 6
    3c8c:	49 f0       	breq	.+18     	; 0x3ca0 <GetENormValue+0x2a>
    3c8e:	2c 30       	cpi	r18, 0x0C	; 12
    3c90:	09 f0       	breq	.+2      	; 0x3c94 <GetENormValue+0x1e>
    3c92:	f5 c0       	rjmp	.+490    	; 0x3e7e <GetENormValue+0x208>
    #endif

    #ifdef SW_E12
    case E12:                                /* E12 */
      Table = (uint16_t *)&E12_table[0];     /* pointer to table */
      Index = NUM_E12;                       /* 12 values */
    3c94:	2c 83       	std	Y+4, r18	; 0x04
      break;
    #endif

    #ifdef SW_E12
    case E12:                                /* E12 */
      Table = (uint16_t *)&E12_table[0];     /* pointer to table */
    3c96:	2c e0       	ldi	r18, 0x0C	; 12
    3c98:	a2 2e       	mov	r10, r18
    3c9a:	20 e0       	ldi	r18, 0x00	; 0
    3c9c:	b2 2e       	mov	r11, r18
    3c9e:	06 c0       	rjmp	.+12     	; 0x3cac <GetENormValue+0x36>
  switch (E_Series)
  {
    #ifdef SW_E6
    case E6:                                /* E6 */
      Table = (uint16_t *)&E6_table[0];     /* pointer to table */
      Index = NUM_E6;                       /* 6 values */
    3ca0:	86 e0       	ldi	r24, 0x06	; 6
    3ca2:	8c 83       	std	Y+4, r24	; 0x04

  switch (E_Series)
  {
    #ifdef SW_E6
    case E6:                                /* E6 */
      Table = (uint16_t *)&E6_table[0];     /* pointer to table */
    3ca4:	94 e2       	ldi	r25, 0x24	; 36
    3ca6:	a9 2e       	mov	r10, r25
    3ca8:	90 e0       	ldi	r25, 0x00	; 0
    3caa:	b9 2e       	mov	r11, r25
   */

  while (Value >= 100000)     /* upper limit */
  {
    /* todo: round? */
    Value /= 10;              /* /10 */
    3cac:	8a e0       	ldi	r24, 0x0A	; 10
    3cae:	48 2e       	mov	r4, r24
    3cb0:	51 2c       	mov	r5, r1
    3cb2:	61 2c       	mov	r6, r1
    3cb4:	71 2c       	mov	r7, r1
  /*
   *  normalize component value: 10000 - 99999
   *  - for checking tolerance (2 decimal places)
   */

  while (Value >= 100000)     /* upper limit */
    3cb6:	80 ea       	ldi	r24, 0xA0	; 160
    3cb8:	c8 16       	cp	r12, r24
    3cba:	86 e8       	ldi	r24, 0x86	; 134
    3cbc:	d8 06       	cpc	r13, r24
    3cbe:	81 e0       	ldi	r24, 0x01	; 1
    3cc0:	e8 06       	cpc	r14, r24
    3cc2:	f1 04       	cpc	r15, r1
    3cc4:	60 f0       	brcs	.+24     	; 0x3cde <GetENormValue+0x68>
  {
    /* todo: round? */
    Value /= 10;              /* /10 */
    3cc6:	c7 01       	movw	r24, r14
    3cc8:	b6 01       	movw	r22, r12
    3cca:	a3 01       	movw	r20, r6
    3ccc:	92 01       	movw	r18, r4
    3cce:	0e 94 af 3e 	call	0x7d5e	; 0x7d5e <__udivmodsi4>
    3cd2:	69 01       	movw	r12, r18
    3cd4:	7a 01       	movw	r14, r20
    3cd6:	2b 81       	ldd	r18, Y+3	; 0x03
    3cd8:	2f 5f       	subi	r18, 0xFF	; 255
    3cda:	2b 83       	std	Y+3, r18	; 0x03
    3cdc:	ec cf       	rjmp	.-40     	; 0x3cb6 <GetENormValue+0x40>
    Scale++;                  /* +1 */
  }

  while (Value < 10000)       /* lower limit */
    3cde:	80 e1       	ldi	r24, 0x10	; 16
    3ce0:	c8 16       	cp	r12, r24
    3ce2:	87 e2       	ldi	r24, 0x27	; 39
    3ce4:	d8 06       	cpc	r13, r24
    3ce6:	e1 04       	cpc	r14, r1
    3ce8:	f1 04       	cpc	r15, r1
    3cea:	60 f4       	brcc	.+24     	; 0x3d04 <GetENormValue+0x8e>
  {
    Value *= 10;              /* *10 */
    3cec:	aa e0       	ldi	r26, 0x0A	; 10
    3cee:	b0 e0       	ldi	r27, 0x00	; 0
    3cf0:	a7 01       	movw	r20, r14
    3cf2:	96 01       	movw	r18, r12
    3cf4:	0e 94 0c 3f 	call	0x7e18	; 0x7e18 <__muluhisi3>
    3cf8:	6b 01       	movw	r12, r22
    3cfa:	7c 01       	movw	r14, r24
    3cfc:	2b 81       	ldd	r18, Y+3	; 0x03
    3cfe:	21 50       	subi	r18, 0x01	; 1
    3d00:	2b 83       	std	Y+3, r18	; 0x03
    3d02:	ed cf       	rjmp	.-38     	; 0x3cde <GetENormValue+0x68>
    3d04:	c7 01       	movw	r24, r14
    3d06:	b6 01       	movw	r22, r12
   */

  while (Value >= 1000)       /* upper limit */
  {
    /* todo: round? */
    Value /= 10;              /* /10 */
    3d08:	2a e0       	ldi	r18, 0x0A	; 10
    3d0a:	30 e0       	ldi	r19, 0x00	; 0
    3d0c:	40 e0       	ldi	r20, 0x00	; 0
    3d0e:	50 e0       	ldi	r21, 0x00	; 0
    3d10:	0e 94 af 3e 	call	0x7d5e	; 0x7d5e <__udivmodsi4>
    3d14:	29 01       	movw	r4, r18
    3d16:	3a 01       	movw	r6, r20
    3d18:	ca 01       	movw	r24, r20
    3d1a:	b9 01       	movw	r22, r18
    Scale++;                  /* increase multiplier */
    3d1c:	2b 81       	ldd	r18, Y+3	; 0x03
    3d1e:	2a 83       	std	Y+2, r18	; 0x02
    3d20:	2f 5f       	subi	r18, 0xFF	; 255
    3d22:	2b 83       	std	Y+3, r18	; 0x03
  /*
   *  normalize component value: 100 - 999
   *  - for finding norm values
   */

  while (Value >= 1000)       /* upper limit */
    3d24:	28 ee       	ldi	r18, 0xE8	; 232
    3d26:	42 16       	cp	r4, r18
    3d28:	23 e0       	ldi	r18, 0x03	; 3
    3d2a:	52 06       	cpc	r5, r18
    3d2c:	61 04       	cpc	r6, r1
    3d2e:	71 04       	cpc	r7, r1
    3d30:	58 f7       	brcc	.-42     	; 0x3d08 <GetENormValue+0x92>
    3d32:	21 2c       	mov	r2, r1
    3d34:	31 2c       	mov	r3, r1
    3d36:	81 2c       	mov	r8, r1

  n = 0;                      /* reset counter */

  while (n < Index)           /* loop through table */
  {
    Norm = DATA_read_word(Table);  /* read norm value */
    3d38:	c5 01       	movw	r24, r10
    3d3a:	0e 94 a2 3f 	call	0x7f44	; 0x7f44 <eeprom_read_word>
    3d3e:	8c 01       	movw	r16, r24

    if (Norm < (uint16_t)Value)    /* norm value lower */
    3d40:	84 15       	cp	r24, r4
    3d42:	95 05       	cpc	r25, r5
    3d44:	20 f0       	brcs	.+8      	; 0x3d4e <GetENormValue+0xd8>
    Table++;                       /* next element */
    n++;                           /* next one */
  }

  /* manage table index overflow */
  if (n == Index)                  /* reached last element */
    3d46:	8c 81       	ldd	r24, Y+4	; 0x04
    3d48:	88 11       	cpse	r24, r8
    3d4a:	0b c0       	rjmp	.+22     	; 0x3d62 <GetENormValue+0xec>
    3d4c:	08 c0       	rjmp	.+16     	; 0x3d5e <GetENormValue+0xe8>
    {
      HighVal = Norm;              /* save higher norm value */
      break;                       /* end loop */
    }

    Table++;                       /* next element */
    3d4e:	22 e0       	ldi	r18, 0x02	; 2
    3d50:	a2 0e       	add	r10, r18
    3d52:	b1 1c       	adc	r11, r1
    n++;                           /* next one */
    3d54:	83 94       	inc	r8
    3d56:	1c 01       	movw	r2, r24
   *  get lower and higher norm value from table
   */

  n = 0;                      /* reset counter */

  while (n < Index)           /* loop through table */
    3d58:	8c 81       	ldd	r24, Y+4	; 0x04
    3d5a:	88 12       	cpse	r8, r24
    3d5c:	ed cf       	rjmp	.-38     	; 0x3d38 <GetENormValue+0xc2>

  /* manage table index overflow */
  if (n == Index)                  /* reached last element */
  {
    /* higher norm value is 1000 (100 and multiplier + 1) */
    HighVal = 1000;
    3d5e:	08 ee       	ldi	r16, 0xE8	; 232
    3d60:	13 e0       	ldi	r17, 0x03	; 3
  /*
   *  check for match with lower norm value
   */

  /* calculate top limit */
  Value = (uint32_t)LowVal * 100;  /* lower norm value plus two digits */
    3d62:	91 01       	movw	r18, r2
    3d64:	a4 e6       	ldi	r26, 0x64	; 100
    3d66:	b0 e0       	ldi	r27, 0x00	; 0
    3d68:	0e 94 f6 3e 	call	0x7dec	; 0x7dec <__umulhisi3>
    3d6c:	2b 01       	movw	r4, r22
    3d6e:	3c 01       	movw	r6, r24
  Offset = Value * Tolerance;      /* * tolerance (in 0.1%) */
    3d70:	29 81       	ldd	r18, Y+1	; 0x01
    3d72:	82 2e       	mov	r8, r18
    3d74:	91 2c       	mov	r9, r1
    3d76:	a1 2c       	mov	r10, r1
    3d78:	b1 2c       	mov	r11, r1
    3d7a:	9b 01       	movw	r18, r22
    3d7c:	ac 01       	movw	r20, r24
    3d7e:	c5 01       	movw	r24, r10
    3d80:	b4 01       	movw	r22, r8
    3d82:	0e 94 5d 3e 	call	0x7cba	; 0x7cba <__mulsi3>
  Offset /= 1000;                  /* / (1000 * 0.1%) */
  Value += Offset;                 /* add tolerance offset */

  if (Value2 <= Value)             /* within tolerance */
    3d86:	28 ee       	ldi	r18, 0xE8	; 232
    3d88:	33 e0       	ldi	r19, 0x03	; 3
    3d8a:	40 e0       	ldi	r20, 0x00	; 0
    3d8c:	50 e0       	ldi	r21, 0x00	; 0
    3d8e:	0e 94 af 3e 	call	0x7d5e	; 0x7d5e <__udivmodsi4>
    3d92:	42 0e       	add	r4, r18
    3d94:	53 1e       	adc	r5, r19
    3d96:	64 1e       	adc	r6, r20
    3d98:	75 1e       	adc	r7, r21
    3d9a:	4c 14       	cp	r4, r12
    3d9c:	5d 04       	cpc	r5, r13
    3d9e:	6e 04       	cpc	r6, r14
    3da0:	7f 04       	cpc	r7, r15
    3da2:	e8 f0       	brcs	.+58     	; 0x3dde <GetENormValue+0x168>
  {
    if (Tolerance >= 50)           /* two digit value (>= 5%) */
    3da4:	89 81       	ldd	r24, Y+1	; 0x01
    3da6:	82 33       	cpi	r24, 0x32	; 50
    3da8:	48 f0       	brcs	.+18     	; 0x3dbc <GetENormValue+0x146>
    {
      LowVal /= 10;                /* scale to two digits */
    3daa:	c1 01       	movw	r24, r2
    3dac:	6a e0       	ldi	r22, 0x0A	; 10
    3dae:	70 e0       	ldi	r23, 0x00	; 0
    3db0:	0e 94 87 3e 	call	0x7d0e	; 0x7d0e <__udivmodhi4>
    3db4:	1b 01       	movw	r2, r22
      Scale++;                     /* increase multiplier */
    3db6:	2a 81       	ldd	r18, Y+2	; 0x02
    3db8:	2e 5f       	subi	r18, 0xFE	; 254
    3dba:	01 c0       	rjmp	.+2      	; 0x3dbe <GetENormValue+0x148>
    3dbc:	2b 81       	ldd	r18, Y+3	; 0x03
    }

    /* save result as first value (misuse Semi) */
    Semi.I_value = LowVal;         /* norm value */
    3dbe:	c1 01       	movw	r24, r2
    3dc0:	a0 e0       	ldi	r26, 0x00	; 0
    3dc2:	b0 e0       	ldi	r27, 0x00	; 0
    3dc4:	80 93 c1 01 	sts	0x01C1, r24	; 0x8001c1 <Semi+0x12>
    3dc8:	90 93 c2 01 	sts	0x01C2, r25	; 0x8001c2 <Semi+0x13>
    3dcc:	a0 93 c3 01 	sts	0x01C3, r26	; 0x8001c3 <Semi+0x14>
    3dd0:	b0 93 c4 01 	sts	0x01C4, r27	; 0x8001c4 <Semi+0x15>
    Semi.I_scale = Scale;          /* multiplier (10^n) */
    3dd4:	20 93 c5 01 	sts	0x01C5, r18	; 0x8001c5 <Semi+0x16>

    Flag++;                        /* got a match */
    3dd8:	21 e0       	ldi	r18, 0x01	; 1
    3dda:	2c 83       	std	Y+4, r18	; 0x04
    3ddc:	01 c0       	rjmp	.+2      	; 0x3de0 <GetENormValue+0x16a>
 *  - 2 for two matching norm values
 */

uint8_t GetENormValue(uint32_t Value, int8_t Scale, uint8_t E_Series, uint8_t Tolerance)
{
  uint8_t           Flag = 0;           /* return values */
    3dde:	1c 82       	std	Y+4, r1	; 0x04
  /*
   *  check for match with higher norm value
   */

  /* calculate bottom limit */
  Value = (uint32_t)HighVal * 100; /* higher norm value plus two digits */
    3de0:	98 01       	movw	r18, r16
    3de2:	a4 e6       	ldi	r26, 0x64	; 100
    3de4:	b0 e0       	ldi	r27, 0x00	; 0
    3de6:	0e 94 f6 3e 	call	0x7dec	; 0x7dec <__umulhisi3>
    3dea:	2b 01       	movw	r4, r22
    3dec:	3c 01       	movw	r6, r24
  Offset = Value * Tolerance;      /* * tolerance (in 0.1%) */
    3dee:	a5 01       	movw	r20, r10
    3df0:	94 01       	movw	r18, r8
    3df2:	0e 94 5d 3e 	call	0x7cba	; 0x7cba <__mulsi3>
  Offset /= 1000;                  /* / (1000 * 0.1%) */
  Value -= Offset;                 /* subtract tolerance offset */

  if (Value2 >= Value)             /* within tolerance */
    3df6:	28 ee       	ldi	r18, 0xE8	; 232
    3df8:	33 e0       	ldi	r19, 0x03	; 3
    3dfa:	40 e0       	ldi	r20, 0x00	; 0
    3dfc:	50 e0       	ldi	r21, 0x00	; 0
    3dfe:	0e 94 af 3e 	call	0x7d5e	; 0x7d5e <__udivmodsi4>
    3e02:	42 1a       	sub	r4, r18
    3e04:	53 0a       	sbc	r5, r19
    3e06:	64 0a       	sbc	r6, r20
    3e08:	75 0a       	sbc	r7, r21
    3e0a:	c4 14       	cp	r12, r4
    3e0c:	d5 04       	cpc	r13, r5
    3e0e:	e6 04       	cpc	r14, r6
    3e10:	f7 04       	cpc	r15, r7
    3e12:	b0 f1       	brcs	.+108    	; 0x3e80 <GetENormValue+0x20a>
  {
    /* rescale special case (norm value 1000) */
    if (HighVal == 1000)
    3e14:	08 3e       	cpi	r16, 0xE8	; 232
    3e16:	83 e0       	ldi	r24, 0x03	; 3
    3e18:	18 07       	cpc	r17, r24
    3e1a:	29 f4       	brne	.+10     	; 0x3e26 <GetENormValue+0x1b0>
    {
      HighVal = 100;               /* /10 */
      HighScale++;                 /* increase multiplier */
    3e1c:	2a 81       	ldd	r18, Y+2	; 0x02
    3e1e:	2e 5f       	subi	r18, 0xFE	; 254
    3e20:	2b 83       	std	Y+3, r18	; 0x03
  if (Value2 >= Value)             /* within tolerance */
  {
    /* rescale special case (norm value 1000) */
    if (HighVal == 1000)
    {
      HighVal = 100;               /* /10 */
    3e22:	04 e6       	ldi	r16, 0x64	; 100
    3e24:	10 e0       	ldi	r17, 0x00	; 0
      HighScale++;                 /* increase multiplier */
    }

    if (Tolerance >= 50)           /* two digit value (>= 5%) */
    3e26:	89 81       	ldd	r24, Y+1	; 0x01
    3e28:	82 33       	cpi	r24, 0x32	; 50
    3e2a:	48 f0       	brcs	.+18     	; 0x3e3e <GetENormValue+0x1c8>
    {
      HighVal /= 10;               /* scale to two digits */
    3e2c:	c8 01       	movw	r24, r16
    3e2e:	6a e0       	ldi	r22, 0x0A	; 10
    3e30:	70 e0       	ldi	r23, 0x00	; 0
    3e32:	0e 94 87 3e 	call	0x7d0e	; 0x7d0e <__udivmodhi4>
    3e36:	8b 01       	movw	r16, r22
      HighScale++;                 /* increase multiplier */
    3e38:	2b 81       	ldd	r18, Y+3	; 0x03
    3e3a:	2f 5f       	subi	r18, 0xFF	; 255
    3e3c:	2b 83       	std	Y+3, r18	; 0x03
    3e3e:	20 e0       	ldi	r18, 0x00	; 0
    3e40:	30 e0       	ldi	r19, 0x00	; 0
    }

    if (Flag == 0)                 /* first match */
    3e42:	8c 81       	ldd	r24, Y+4	; 0x04
    3e44:	81 11       	cpse	r24, r1
    3e46:	0c c0       	rjmp	.+24     	; 0x3e60 <GetENormValue+0x1ea>
    {
      /* save result as first value (misuse Semi) */
      Semi.I_value = HighVal;      /* norm value */
    3e48:	00 93 c1 01 	sts	0x01C1, r16	; 0x8001c1 <Semi+0x12>
    3e4c:	10 93 c2 01 	sts	0x01C2, r17	; 0x8001c2 <Semi+0x13>
    3e50:	20 93 c3 01 	sts	0x01C3, r18	; 0x8001c3 <Semi+0x14>
    3e54:	30 93 c4 01 	sts	0x01C4, r19	; 0x8001c4 <Semi+0x15>
      Semi.I_scale = HighScale;    /* multiplier (10^n) */
    3e58:	2b 81       	ldd	r18, Y+3	; 0x03
    3e5a:	20 93 c5 01 	sts	0x01C5, r18	; 0x8001c5 <Semi+0x16>
    3e5e:	0b c0       	rjmp	.+22     	; 0x3e76 <GetENormValue+0x200>
    }
    else                           /* second match */
    {
      /* save result as second value (misuse Semi) */
      Semi.C_value = HighVal;      /* norm value */
    3e60:	00 93 c6 01 	sts	0x01C6, r16	; 0x8001c6 <Semi+0x17>
    3e64:	10 93 c7 01 	sts	0x01C7, r17	; 0x8001c7 <Semi+0x18>
    3e68:	20 93 c8 01 	sts	0x01C8, r18	; 0x8001c8 <Semi+0x19>
    3e6c:	30 93 c9 01 	sts	0x01C9, r19	; 0x8001c9 <Semi+0x1a>
      Semi.C_scale = HighScale;    /* multiplier (10^n) */
    3e70:	8b 81       	ldd	r24, Y+3	; 0x03
    3e72:	80 93 ca 01 	sts	0x01CA, r24	; 0x8001ca <Semi+0x1b>
    }

    Flag++;                        /* got a match */
    3e76:	2c 81       	ldd	r18, Y+4	; 0x04
    3e78:	2f 5f       	subi	r18, 0xFF	; 255
    3e7a:	2c 83       	std	Y+4, r18	; 0x04
    3e7c:	01 c0       	rjmp	.+2      	; 0x3e80 <GetENormValue+0x20a>
      Index = NUM_E96;                       /* 96 values */
      break;
    #endif

    default:                                 /* no matching E series */
      return Flag;                           /* signal error */
    3e7e:	1c 82       	std	Y+4, r1	; 0x04

    Flag++;                        /* got a match */
  }

  return Flag;
}
    3e80:	8c 81       	ldd	r24, Y+4	; 0x04
    3e82:	24 96       	adiw	r28, 0x04	; 4
    3e84:	e2 e1       	ldi	r30, 0x12	; 18
    3e86:	0c 94 33 3f 	jmp	0x7e66	; 0x7e66 <__epilogue_restores__>

00003e8a <CheckProbes>:
 *  - Probe2: ID of probe to be pulled down [0-2]
 *  - Probe3: ID of probe to be in HiZ mode [0-2]
 */

void CheckProbes(uint8_t Probe1, uint8_t Probe2, uint8_t Probe3)
{
    3e8a:	0f 93       	push	r16
    3e8c:	1f 93       	push	r17
    3e8e:	cf 93       	push	r28
    3e90:	df 93       	push	r29
  uint8_t           Flag;          /* temporary value */
  uint16_t          U_Rl;          /* voltage across Rl (load) */
  uint16_t          U_1;           /* voltage #1 */

  /* init */
  if (Check.Found == COMP_ERROR) return;   /* skip check on any error */
    3e92:	90 91 06 01 	lds	r25, 0x0106	; 0x800106 <__data_end>
    3e96:	91 30       	cpi	r25, 0x01	; 1
    3e98:	09 f4       	brne	.+2      	; 0x3e9c <CheckProbes+0x12>
    3e9a:	97 c0       	rjmp	.+302    	; 0x3fca <CheckProbes+0x140>
    3e9c:	06 2f       	mov	r16, r22
    3e9e:	18 2f       	mov	r17, r24
  wdt_reset();                             /* reset watchdog */
    3ea0:	a8 95       	wdr
  UpdateProbes(Probe1, Probe2, Probe3);    /* update register bits */
    3ea2:	0e 94 2a 1c 	call	0x3854	; 0x3854 <UpdateProbes>
   *  In case of a FET we have to take care about the gate charge based on
   *  the channel type.
   */

  /* set probes: Gnd -- Rl -- probe-2 / probe-1 -- Vcc */
  R_PORT = 0;                      /* set resistor port to Gnd */
    3ea6:	15 b8       	out	0x05, r1	; 5
  R_DDR = Probes.Rl_2;             /* pull down probe-2 via Rl */
    3ea8:	80 91 d2 01 	lds	r24, 0x01D2	; 0x8001d2 <Probes+0x7>
    3eac:	84 b9       	out	0x04, r24	; 4
  ADC_DDR = Probes.Pin_1;          /* set probe-1 to output */
    3eae:	80 91 d7 01 	lds	r24, 0x01D7	; 0x8001d7 <Probes+0xc>
    3eb2:	87 b9       	out	0x07, r24	; 7
  ADC_PORT = Probes.Pin_1;         /* pull-up probe-1 directly */
    3eb4:	88 b9       	out	0x08, r24	; 8
   *  assuming: probe-1 = D / probe-2 = S / probe-3 = G
   *
   *  Hint: The pull-down of the gate will trigger a possible PUT.
   */

  PullProbe(Probes.Rl_3, PULL_10MS | PULL_DOWN);  /* discharge gate via Rl */
    3eb6:	60 e1       	ldi	r22, 0x10	; 16
    3eb8:	80 91 d3 01 	lds	r24, 0x01D3	; 0x8001d3 <Probes+0x8>
    3ebc:	0e 94 be 1d 	call	0x3b7c	; 0x3b7c <PullProbe>
  U_Rl = ReadU_5ms(Probes.Ch_2);                  /* get voltage at Rl */
    3ec0:	80 91 db 01 	lds	r24, 0x01DB	; 0x8001db <Probes+0x10>
    3ec4:	0e 94 18 1c 	call	0x3830	; 0x3830 <ReadU_5ms>
    3ec8:	ec 01       	movw	r28, r24
  /*
   *  If we got conduction we could have a p-channel FET. For any
   *  other part U_Rl will stay the same.
   */
 
  if (U_Rl >= 977)            /* > 1.4mA */
    3eca:	81 3d       	cpi	r24, 0xD1	; 209
    3ecc:	93 40       	sbci	r25, 0x03	; 3
    3ece:	50 f0       	brcs	.+20     	; 0x3ee4 <CheckProbes+0x5a>
    /*
     *  For a possible p-channel FET we pull up the gate for a few ms,
     *  assuming: probe-1 = S / probe-2 = D / probe-3 = G
     */

    PullProbe(Probes.Rl_3, PULL_10MS | PULL_UP);  /* discharge gate via Rl */
    3ed0:	61 e1       	ldi	r22, 0x11	; 17
    3ed2:	80 91 d3 01 	lds	r24, 0x01D3	; 0x8001d3 <Probes+0x8>
    3ed6:	0e 94 be 1d 	call	0x3b7c	; 0x3b7c <PullProbe>
    U_Rl = ReadU_5ms(Probes.Ch_2);                /* get voltage at Rl */
    3eda:	80 91 db 01 	lds	r24, 0x01DB	; 0x8001db <Probes+0x10>
    3ede:	0e 94 18 1c 	call	0x3830	; 0x3830 <ReadU_5ms>
    3ee2:	ec 01       	movw	r28, r24
   *
   *  Other possibilities:
   *  - diode or resistor
   */

  if (U_Rl > 15)         /* > 21A */
    3ee4:	c0 31       	cpi	r28, 0x10	; 16
    3ee6:	d1 05       	cpc	r29, r1
    3ee8:	28 f4       	brcc	.+10     	; 0x3ef4 <CheckProbes+0x6a>
     *  check for:
     *  - PNP BJT (common emitter circuit)
     *  - p-channel MOSFET (low side switching circuit) or IGBT
     */

    if (Check.Done == DONE_NONE)        /* not sure yet */
    3eea:	80 91 08 01 	lds	r24, 0x0108	; 0x800108 <__data_end+0x2>
    3eee:	81 11       	cpse	r24, r1
    3ef0:	28 c0       	rjmp	.+80     	; 0x3f42 <CheckProbes+0xb8>
    3ef2:	0d c0       	rjmp	.+26     	; 0x3f0e <CheckProbes+0x84>
   *  - diode or resistor
   */

  if (U_Rl > 15)         /* > 21A */
  {
    if (Check.Done == DONE_NONE)        /* not sure yet */
    3ef4:	80 91 08 01 	lds	r24, 0x0108	; 0x800108 <__data_end+0x2>
    3ef8:	81 11       	cpse	r24, r1
    3efa:	03 c0       	rjmp	.+6      	; 0x3f02 <CheckProbes+0x78>
    {
      CheckDepletionModeFET(U_Rl);
    3efc:	ce 01       	movw	r24, r28
    3efe:	0e 94 32 2f 	call	0x5e64	; 0x5e64 <CheckDepletionModeFET>
   *  - enhancement mode FET or IGBT
   *  - Thyristor or Triac
   *  - or a large resistor
   */

  if (U_Rl < 977)         /* load current < 1.4mA (resistance > 3k) */
    3f02:	c1 3d       	cpi	r28, 0xD1	; 209
    3f04:	83 e0       	ldi	r24, 0x03	; 3
    3f06:	d8 07       	cpc	r29, r24
    3f08:	08 f0       	brcs	.+2      	; 0x3f0c <CheckProbes+0x82>
    3f0a:	43 c0       	rjmp	.+134    	; 0x3f92 <CheckProbes+0x108>
    3f0c:	ee cf       	rjmp	.-36     	; 0x3eea <CheckProbes+0x60>
       *  - BJT: probe-1 = E / probe-2 = C / probe-3 = B
       *  - FET: probe-1 = S / probe-2 = D / probe-3 = G
       */

      /* set probes: Gnd -- Rl - probe-2 / probe-1 -- Vcc / probe-3 -- Rl -- Gnd */
      R_DDR = Probes.Rl_2;                /* enable Rl for probe-2 */
    3f0e:	80 91 d2 01 	lds	r24, 0x01D2	; 0x8001d2 <Probes+0x7>
    3f12:	84 b9       	out	0x04, r24	; 4
      R_PORT = 0;                         /* pull down collector via Rl */
    3f14:	15 b8       	out	0x05, r1	; 5
      ADC_DDR = Probes.Pin_1;             /* set probe-1 to output */
    3f16:	80 91 d7 01 	lds	r24, 0x01D7	; 0x8001d7 <Probes+0xc>
    3f1a:	87 b9       	out	0x07, r24	; 7
      ADC_PORT = Probes.Pin_1;            /* pull up emitter directly */
    3f1c:	88 b9       	out	0x08, r24	; 8
      wait5ms();
    3f1e:	0e 94 7a 3c 	call	0x78f4	; 0x78f4 <wait5ms>
      R_DDR = Probes.Rl_2 | Probes.Rl_3;  /* pull down base via Rl */
    3f22:	90 91 d2 01 	lds	r25, 0x01D2	; 0x8001d2 <Probes+0x7>
    3f26:	80 91 d3 01 	lds	r24, 0x01D3	; 0x8001d3 <Probes+0x8>
    3f2a:	89 2b       	or	r24, r25
    3f2c:	84 b9       	out	0x04, r24	; 4
      U_1 = ReadU_5ms(Probe2);            /* get voltage at collector */ 
    3f2e:	80 2f       	mov	r24, r16
    3f30:	0e 94 18 1c 	call	0x3830	; 0x3830 <ReadU_5ms>
 
      /*
       *  If DUT is conducting we might have a PNP BJT or p-channel FET.
       */

      if (U_1 > 3422)                   /* detected current > 4.8mA */
    3f34:	8f 35       	cpi	r24, 0x5F	; 95
    3f36:	9d 40       	sbci	r25, 0x0D	; 13
    3f38:	20 f0       	brcs	.+8      	; 0x3f42 <CheckProbes+0xb8>
      {
        /* distinguish PNP BJT from p-channel MOSFET or IGBT */
        CheckTransistor(TYPE_PNP, U_Rl);
    3f3a:	be 01       	movw	r22, r28
    3f3c:	82 e0       	ldi	r24, 0x02	; 2
    3f3e:	0e 94 40 2d 	call	0x5a80	; 0x5a80 <CheckTransistor>
     *  - NPN BJT (common emitter circuit)
     *  - Thyristor and TRIAC
     *  - n-channel MOSFET (high side switching circuit) or IGBT
     */

    if (Check.Done == DONE_NONE)        /* not sure yet */
    3f42:	80 91 08 01 	lds	r24, 0x0108	; 0x800108 <__data_end+0x2>
    3f46:	81 11       	cpse	r24, r1
    3f48:	2c c0       	rjmp	.+88     	; 0x3fa2 <CheckProbes+0x118>
       *  - SCR: probe-1 = A / probe-2 = C / probe-3 = G
       *  - TRIAC: probe-1 = MT2 / probe-2 = MT1 / probe-3 = G
       */

      /* set probes: Gnd -- probe-2 / probe-1 -- Rl -- Vcc / probe-3 -- Rl -- Vcc */
      ADC_DDR = Probes.Pin_2;                /* set probe-2 to output mode */
    3f4a:	80 91 d8 01 	lds	r24, 0x01D8	; 0x8001d8 <Probes+0xd>
    3f4e:	87 b9       	out	0x07, r24	; 7
      ADC_PORT = 0;                          /* pull down probe-2 directly */
    3f50:	18 b8       	out	0x08, r1	; 8
      R_DDR = Probes.Rl_1 | Probes.Rl_3;     /* select Rl for probe-1 & Rl for probe-3 */
    3f52:	90 91 d1 01 	lds	r25, 0x01D1	; 0x8001d1 <Probes+0x6>
    3f56:	80 91 d3 01 	lds	r24, 0x01D3	; 0x8001d3 <Probes+0x8>
    3f5a:	89 2b       	or	r24, r25
    3f5c:	84 b9       	out	0x04, r24	; 4
      R_PORT = Probes.Rl_1 | Probes.Rl_3;    /* pull up collector & base via Rl */
    3f5e:	85 b9       	out	0x05, r24	; 5
      U_1 = ReadU_5ms(Probe1);               /* get voltage at collector */
    3f60:	81 2f       	mov	r24, r17
    3f62:	0e 94 18 1c 	call	0x3830	; 0x3830 <ReadU_5ms>
      /*
       *  If DUT is conducting we might have an NPN BJT, something similar or
       *  an n-channel MOSFET.
       */

      if (U_1 < 1600)                   /* detected current > 4.8mA */
    3f66:	80 34       	cpi	r24, 0x40	; 64
    3f68:	96 40       	sbci	r25, 0x06	; 6
    3f6a:	60 f4       	brcc	.+24     	; 0x3f84 <CheckProbes+0xfa>
      {
        /* first check for Thyristor and TRIAC */
        Flag = CheckThyristorTriac();
    3f6c:	0e 94 d7 30 	call	0x61ae	; 0x61ae <CheckThyristorTriac>

        if (Flag == 0)                 /* no Thyristor or TRIAC */
    3f70:	81 11       	cpse	r24, r1
    3f72:	08 c0       	rjmp	.+16     	; 0x3f84 <CheckProbes+0xfa>
        {
          /* If we've detected a TRIAC in a former run don't check for BJT. */
          if (Check.Found != COMP_TRIAC)
    3f74:	80 91 06 01 	lds	r24, 0x0106	; 0x800106 <__data_end>
    3f78:	81 32       	cpi	r24, 0x21	; 33
    3f7a:	21 f0       	breq	.+8      	; 0x3f84 <CheckProbes+0xfa>
          {
            /* We might have an NPN BJT, an n-channel MOSFET or IGBT. */
            CheckTransistor(TYPE_NPN, U_Rl);
    3f7c:	be 01       	movw	r22, r28
    3f7e:	81 e0       	ldi	r24, 0x01	; 1
    3f80:	0e 94 40 2d 	call	0x5a80	; 0x5a80 <CheckTransistor>

    /*
     *  check for UJT
     */

    if (Check.Done == DONE_NONE)        /* not sure yet */
    3f84:	80 91 08 01 	lds	r24, 0x0108	; 0x800108 <__data_end+0x2>
    3f88:	81 11       	cpse	r24, r1
    3f8a:	0b c0       	rjmp	.+22     	; 0x3fa2 <CheckProbes+0x118>
    {
      CheckUJT();
    3f8c:	0e 94 c9 31 	call	0x6392	; 0x6392 <CheckUJT>
    3f90:	08 c0       	rjmp	.+16     	; 0x3fa2 <CheckProbes+0x118>
  {
    /*
     *  check for a PUT
     */

    if (Check.Done == DONE_NONE)        /* not sure yet */
    3f92:	80 91 08 01 	lds	r24, 0x0108	; 0x800108 <__data_end+0x2>
    3f96:	81 11       	cpse	r24, r1
    3f98:	02 c0       	rjmp	.+4      	; 0x3f9e <CheckProbes+0x114>
    {
      CheckPUT();
    3f9a:	0e 94 78 31 	call	0x62f0	; 0x62f0 <CheckPUT>
    /*
     *  We check for a diode even if we already found a component to get Vf, 
     *  since there could be a body/protection diode of a transistor.
     */

    CheckDiode();
    3f9e:	0e 94 9d 2a 	call	0x553a	; 0x553a <CheckDiode>
   *  Check for a resistor (or another one)
   *  - if no other component is found yet
   *  - if we've got a resistor already 
   */

  if ((Check.Found == COMP_NONE) ||
    3fa2:	80 91 06 01 	lds	r24, 0x0106	; 0x800106 <__data_end>
    3fa6:	88 23       	and	r24, r24
    3fa8:	11 f0       	breq	.+4      	; 0x3fae <CheckProbes+0x124>
    3faa:	8a 30       	cpi	r24, 0x0A	; 10
    3fac:	19 f4       	brne	.+6      	; 0x3fb4 <CheckProbes+0x12a>
      (Check.Found == COMP_RESISTOR))
  {
    CheckResistor();
    3fae:	0e 94 fe 22 	call	0x45fc	; 0x45fc <CheckResistor>
    3fb2:	07 c0       	rjmp	.+14     	; 0x3fc2 <CheckProbes+0x138>
   */

  else
  {
    /* verify a MOSFET */
    if ((Check.Found == COMP_FET) && (Check.Type & TYPE_MOSFET))
    3fb4:	8f 31       	cpi	r24, 0x1F	; 31
    3fb6:	29 f4       	brne	.+10     	; 0x3fc2 <CheckProbes+0x138>
    3fb8:	80 91 07 01 	lds	r24, 0x0107	; 0x800107 <__data_end+0x1>
    3fbc:	84 fd       	sbrc	r24, 4
    {
      VerifyMOSFET();
    3fbe:	0e 94 9c 2b 	call	0x5738	; 0x5738 <VerifyMOSFET>

  /*
   *  clean up
   */

  ADC_DDR = 0;           /* set ADC port to HiZ mode */
    3fc2:	17 b8       	out	0x07, r1	; 7
  ADC_PORT = 0;          /* set ADC port low */
    3fc4:	18 b8       	out	0x08, r1	; 8
  R_DDR = 0;             /* set resistor port to HiZ mode */
    3fc6:	14 b8       	out	0x04, r1	; 4
  R_PORT = 0;            /* set resistor port low */
    3fc8:	15 b8       	out	0x05, r1	; 5
}
    3fca:	df 91       	pop	r29
    3fcc:	cf 91       	pop	r28
    3fce:	1f 91       	pop	r17
    3fd0:	0f 91       	pop	r16
    3fd2:	08 95       	ret

00003fd4 <CheckAlternatives>:
   *  - PNP with B-E resistor and flyback diode passes UJT test once
   *  - UJT might pass NPN test once
   *  - TRIAC passes PUT test twice, but PUT only once
   */

  if (Check.AltFound != COMP_NONE)           /* alternative found */
    3fd4:	80 91 09 01 	lds	r24, 0x0109	; 0x800109 <__data_end+0x3>
    3fd8:	88 23       	and	r24, r24
    3fda:	e1 f0       	breq	.+56     	; 0x4014 <CheckAlternatives+0x40>
  {
    if (! (Check.Done & DONE_SEMI))          /* not sure about common transistor */
    3fdc:	90 91 08 01 	lds	r25, 0x0108	; 0x800108 <__data_end+0x2>
    3fe0:	90 fd       	sbrc	r25, 0
    3fe2:	18 c0       	rjmp	.+48     	; 0x4014 <CheckAlternatives+0x40>
    {
      /* but sure about alternative or no common transistor found */
      if ((Check.Done & DONE_ALTSEMI) || (Check.Found < COMP_BJT))
    3fe4:	91 fd       	sbrc	r25, 1
    3fe6:	04 c0       	rjmp	.+8      	; 0x3ff0 <CheckAlternatives+0x1c>
    3fe8:	90 91 06 01 	lds	r25, 0x0106	; 0x800106 <__data_end>
    3fec:	9e 31       	cpi	r25, 0x1E	; 30
    3fee:	90 f4       	brcc	.+36     	; 0x4014 <CheckAlternatives+0x40>
  }

  if (Flag)         /* take alternative component */
  {
    /* copy some data */
    Check.Found = Check.AltFound;
    3ff0:	80 93 06 01 	sts	0x0106, r24	; 0x800106 <__data_end>

    Semi.A = AltSemi.A;
    3ff4:	80 91 3c 01 	lds	r24, 0x013C	; 0x80013c <AltSemi>
    3ff8:	80 93 af 01 	sts	0x01AF, r24	; 0x8001af <Semi>
    Semi.B = AltSemi.B;
    3ffc:	80 91 3d 01 	lds	r24, 0x013D	; 0x80013d <AltSemi+0x1>
    4000:	80 93 b0 01 	sts	0x01B0, r24	; 0x8001b0 <Semi+0x1>
    Semi.C = AltSemi.C;
    4004:	80 91 3e 01 	lds	r24, 0x013E	; 0x80013e <AltSemi+0x2>
    4008:	80 93 b1 01 	sts	0x01B1, r24	; 0x8001b1 <Semi+0x2>

    #ifdef SW_SYMBOLS
    Check.Symbol = Check.AltSymbol;
    400c:	80 91 10 01 	lds	r24, 0x0110	; 0x800110 <__data_end+0xa>
    4010:	80 93 0f 01 	sts	0x010F, r24	; 0x80010f <__data_end+0x9>
    4014:	08 95       	ret

00004016 <Display_NextLine>:
 *               but also wait for test key/timeout
 *  - LINE_KEEP  keep first line when clearing the display
 */

void Display_NextLine(void)
{
    4016:	cf 93       	push	r28
  if (Cfg.OP_Control & OP_OUT_LCD)      /* copy to LCD enabled */
  {
  #endif

  Mode = UI.LineMode;              /* get current mode */
  Line = UI.CharPos_Y;             /* get current line number */
    4018:	60 91 28 01 	lds	r22, 0x0128	; 0x800128 <UI+0x2>

  /* check if we reached the last line */
  if (Line == UI.CharMax_Y)
    401c:	80 91 2a 01 	lds	r24, 0x012A	; 0x80012a <UI+0x4>
    4020:	68 13       	cpse	r22, r24
    4022:	15 c0       	rjmp	.+42     	; 0x404e <Display_NextLine+0x38>
  #if defined (UI_SERIAL_COPY) || defined (UI_SERIAL_COMMANDS)
  if (Cfg.OP_Control & OP_OUT_LCD)      /* copy to LCD enabled */
  {
  #endif

  Mode = UI.LineMode;              /* get current mode */
    4024:	c0 91 26 01 	lds	r28, 0x0126	; 0x800126 <UI>
  Line = UI.CharPos_Y;             /* get current line number */

  /* check if we reached the last line */
  if (Line == UI.CharMax_Y)
  {
    if (Mode & LINE_KEY) WaitKey();     /* wait for key press */
    4028:	c0 fd       	sbrc	r28, 0
    402a:	0e 94 3c 15 	call	0x2a78	; 0x2a78 <WaitKey>

    /* clear screen */
    if (Mode & LINE_KEEP)          /* keep first line */
    402e:	c1 ff       	sbrs	r28, 1
    4030:	0b c0       	rjmp	.+22     	; 0x4048 <Display_NextLine+0x32>
    {
      Line = UI.CharMax_Y;         /* start at the last line */
    4032:	c0 91 2a 01 	lds	r28, 0x012A	; 0x80012a <UI+0x4>
      while (Line > 1)
    4036:	c2 30       	cpi	r28, 0x02	; 2
    4038:	28 f0       	brcs	.+10     	; 0x4044 <Display_NextLine+0x2e>
      {
        LCD_ClearLine(Line);       /* clear line */
    403a:	8c 2f       	mov	r24, r28
    403c:	0e 94 ca 3a 	call	0x7594	; 0x7594 <LCD_ClearLine>
        Line--;                    /* next line */
    4040:	c1 50       	subi	r28, 0x01	; 1
    4042:	f9 cf       	rjmp	.-14     	; 0x4036 <Display_NextLine+0x20>
      }

      LCD_CharPos(1, 2);           /* move to second line */
    4044:	62 e0       	ldi	r22, 0x02	; 2
    4046:	04 c0       	rjmp	.+8      	; 0x4050 <Display_NextLine+0x3a>
    }
    else                           /* clear complete screen */
    {
      LCD_Clear();                 /* clear screen */
    4048:	0e 94 31 3b 	call	0x7662	; 0x7662 <LCD_Clear>
    404c:	04 c0       	rjmp	.+8      	; 0x4056 <Display_NextLine+0x40>
  }
  else
  {
    /* simply move to the next line */
    Line++;                        /* add one line */
    LCD_CharPos(1, Line);          /* move to new line */
    404e:	6f 5f       	subi	r22, 0xFF	; 255
    4050:	81 e0       	ldi	r24, 0x01	; 1
    4052:	0e 94 9f 3a 	call	0x753e	; 0x753e <LCD_CharPos>
  if (Cfg.OP_Control & OP_OUT_SER)      /* copy to serial enabled */
  {
    Serial_NewLine();                   /* serial: new line */
  }
  #endif
}
    4056:	cf 91       	pop	r28
    4058:	08 95       	ret

0000405a <Display_LastLine>:
/*
 *  last line automation for key hint
 */

void Display_LastLine(void)
{
    405a:	cf 93       	push	r28
  #if defined (UI_SERIAL_COPY) || defined (UI_SERIAL_COMMANDS)
  if (Cfg.OP_Control & OP_OUT_LCD)      /* copy to LCD enabled */
  {
  #endif

  Line = UI.CharPos_Y;             /* get current line number */
    405c:	c0 91 28 01 	lds	r28, 0x0128	; 0x800128 <UI+0x2>

  /* check if we reached the last line */
  if (Line == UI.CharMax_Y)         
    4060:	80 91 2a 01 	lds	r24, 0x012A	; 0x80012a <UI+0x4>
    4064:	c8 13       	cpse	r28, r24
    4066:	0d c0       	rjmp	.+26     	; 0x4082 <Display_LastLine+0x28>
  {
    WaitKey();                     /* wait for key press */
    4068:	0e 94 3c 15 	call	0x2a78	; 0x2a78 <WaitKey>
    LCD_ClearLine(Line);           /* clear last line */
    406c:	8c 2f       	mov	r24, r28
    406e:	0e 94 ca 3a 	call	0x7594	; 0x7594 <LCD_ClearLine>
    LCD_CharPos(1, Line);          /* move to start of last line */
    4072:	6c 2f       	mov	r22, r28
    4074:	81 e0       	ldi	r24, 0x01	; 1
    4076:	0e 94 9f 3a 	call	0x753e	; 0x753e <LCD_CharPos>
    MilliSleep(500);               /* smooth UI */
    407a:	84 ef       	ldi	r24, 0xF4	; 244
    407c:	91 e0       	ldi	r25, 0x01	; 1
    407e:	0e 94 2e 17 	call	0x2e5c	; 0x2e5c <MilliSleep>
  }

  #if defined (UI_SERIAL_COPY) || defined (UI_SERIAL_COMMANDS)
  }
  #endif
}
    4082:	cf 91       	pop	r28
    4084:	08 95       	ret

00004086 <Display_EEString>:
 *  requires:
 *  - pointer to fixed string
 */

void Display_EEString(const unsigned char *String)
{
    4086:	cf 93       	push	r28
    4088:	df 93       	push	r29
    408a:	ec 01       	movw	r28, r24
  unsigned char     Char;

  /* read characters until we get the terminating 0 */
  while ((Char = DATA_read_byte(String)))
    408c:	ce 01       	movw	r24, r28
    408e:	0e 94 9a 3f 	call	0x7f34	; 0x7f34 <eeprom_read_byte>
    4092:	88 23       	and	r24, r24
    4094:	21 f0       	breq	.+8      	; 0x409e <Display_EEString+0x18>
  {
    Display_Char(Char);                 /* send character */
    4096:	0e 94 8a 3b 	call	0x7714	; 0x7714 <LCD_Char>
    String++;                           /* next one */
    409a:	21 96       	adiw	r28, 0x01	; 1
    409c:	f7 cf       	rjmp	.-18     	; 0x408c <Display_EEString+0x6>
  }
}
    409e:	df 91       	pop	r29
    40a0:	cf 91       	pop	r28
    40a2:	08 95       	ret

000040a4 <Display_ProbeNumber>:
 *  requires:
 *  - probe/testpin ID (0-2)
 */
 
void Display_ProbeNumber(uint8_t Probe)
{
    40a4:	0f 93       	push	r16
    40a6:	1f 93       	push	r17
    40a8:	cf 93       	push	r28
    40aa:	df 93       	push	r29
  #ifdef SW_PROBE_COLORS
  uint16_t          Color;         /* color value */

  Color = UI.PenColor;               /* save current color */
    40ac:	c6 e2       	ldi	r28, 0x26	; 38
    40ae:	d1 e0       	ldi	r29, 0x01	; 1
    40b0:	0e 81       	ldd	r16, Y+6	; 0x06
    40b2:	1f 81       	ldd	r17, Y+7	; 0x07
  UI.PenColor = ProbeColors[Probe];  /* set probe color */
    40b4:	e8 2f       	mov	r30, r24
    40b6:	f0 e0       	ldi	r31, 0x00	; 0
    40b8:	ee 0f       	add	r30, r30
    40ba:	ff 1f       	adc	r31, r31
    40bc:	e0 50       	subi	r30, 0x00	; 0
    40be:	ff 4f       	sbci	r31, 0xFF	; 255
    40c0:	20 81       	ld	r18, Z
    40c2:	31 81       	ldd	r19, Z+1	; 0x01
    40c4:	3f 83       	std	Y+7, r19	; 0x07
    40c6:	2e 83       	std	Y+6, r18	; 0x06
  #endif

  /* since probe-1 is 0 we simply add the value to ASCII '1' */
  Display_Char('1' + Probe);       /* send char */
    40c8:	8f 5c       	subi	r24, 0xCF	; 207
    40ca:	0e 94 8a 3b 	call	0x7714	; 0x7714 <LCD_Char>

  #ifdef SW_PROBE_COLORS
  UI.PenColor = Color;             /* restore old color */
    40ce:	1f 83       	std	Y+7, r17	; 0x07
    40d0:	0e 83       	std	Y+6, r16	; 0x06
  #endif
}
    40d2:	df 91       	pop	r29
    40d4:	cf 91       	pop	r28
    40d6:	1f 91       	pop	r17
    40d8:	0f 91       	pop	r16
    40da:	08 95       	ret

000040dc <Display_Space>:
 *  display a space
 */

void Display_Space(void)
{
  Display_Char(' ');          /* print a space */
    40dc:	80 e2       	ldi	r24, 0x20	; 32
    40de:	0e 94 8a 3b 	call	0x7714	; 0x7714 <LCD_Char>
    40e2:	08 95       	ret

000040e4 <Display_EEString_Space>:
 *  - pointer to fixed string
 */

void Display_EEString_Space(const unsigned char *String)
{
  Display_EEString(String);   /* display string */
    40e4:	0e 94 43 20 	call	0x4086	; 0x4086 <Display_EEString>
  Display_Space();            /* print space */
    40e8:	0e 94 6e 20 	call	0x40dc	; 0x40dc <Display_Space>
    40ec:	08 95       	ret

000040ee <Display_NL_EEString>:
 *  requires:
 *  - pointer to fixed string
 */

void Display_NL_EEString(const unsigned char *String)
{
    40ee:	cf 93       	push	r28
    40f0:	df 93       	push	r29
    40f2:	ec 01       	movw	r28, r24
  Display_NextLine();
    40f4:	0e 94 0b 20 	call	0x4016	; 0x4016 <Display_NextLine>
  Display_EEString(String);   /* display string */
    40f8:	ce 01       	movw	r24, r28
    40fa:	0e 94 43 20 	call	0x4086	; 0x4086 <Display_EEString>
}
    40fe:	df 91       	pop	r29
    4100:	cf 91       	pop	r28
    4102:	08 95       	ret

00004104 <Display_NL_EEString_Space>:
 *  requires:
 *  - pointer to fixed string
 */

void Display_NL_EEString_Space(const unsigned char *String)
{
    4104:	cf 93       	push	r28
    4106:	df 93       	push	r29
    4108:	ec 01       	movw	r28, r24
  Display_NextLine();
    410a:	0e 94 0b 20 	call	0x4016	; 0x4016 <Display_NextLine>
  Display_EEString(String);   /* display string */
    410e:	ce 01       	movw	r24, r28
    4110:	0e 94 43 20 	call	0x4086	; 0x4086 <Display_EEString>
  Display_Space();            /* print space */
    4114:	0e 94 6e 20 	call	0x40dc	; 0x40dc <Display_Space>
}
    4118:	df 91       	pop	r29
    411a:	cf 91       	pop	r28
    411c:	08 95       	ret

0000411e <LCD_ClearLine2>:
 *  - cursor is set to first char of line
 */

void LCD_ClearLine2(void)
{
  LCD_ClearLine(2);           /* clear line #2 */
    411e:	82 e0       	ldi	r24, 0x02	; 2
    4120:	0e 94 ca 3a 	call	0x7594	; 0x7594 <LCD_ClearLine>
  LCD_CharPos(1, 2);          /* move to beginning of line #2 */
    4124:	62 e0       	ldi	r22, 0x02	; 2
    4126:	81 e0       	ldi	r24, 0x01	; 1
    4128:	0e 94 9f 3a 	call	0x753e	; 0x753e <LCD_CharPos>
    412c:	08 95       	ret

0000412e <Display_HexDigit>:
   *  - 0-9: ascii 48-57
   *  - A-F: ascii 65-70
   *    a-f: ascii 97-102
   */

  if (Digit < 10)             /* 0-9 */
    412e:	8a 30       	cpi	r24, 0x0A	; 10
    4130:	10 f4       	brcc	.+4      	; 0x4136 <Display_HexDigit+0x8>
  {
    /* char '0' is ASCII 48 */
    Digit += 48;                   /* char 0-9 */
    4132:	80 5d       	subi	r24, 0xD0	; 208
    4134:	01 c0       	rjmp	.+2      	; 0x4138 <Display_HexDigit+0xa>
    #ifdef UI_HEX_UPPERCASE
      /* char 'A' is ASCII 65 */
      Digit += (65 - 10);          /* char A-F */
    #else
      /* char 'a' is ASCII 97 */
      Digit += (97 - 10);          /* char a-f */
    4136:	89 5a       	subi	r24, 0xA9	; 169
    #endif
  }

  Display_Char(Digit);        /* display digit */
    4138:	0e 94 8a 3b 	call	0x7714	; 0x7714 <LCD_Char>
    413c:	08 95       	ret

0000413e <Display_HexByte>:
 *  requires:
 *  - value to display (0-255)
 */

void Display_HexByte(uint8_t Value)
{
    413e:	cf 93       	push	r28
    4140:	c8 2f       	mov	r28, r24
  uint8_t           Digit;

  /* first digit */
  Digit = Value / 16;
  Display_HexDigit(Digit);
    4142:	82 95       	swap	r24
    4144:	8f 70       	andi	r24, 0x0F	; 15
    4146:	0e 94 97 20 	call	0x412e	; 0x412e <Display_HexDigit>

  /* second digit */
  Digit = Value % 16;
  Display_HexDigit(Digit);
    414a:	8c 2f       	mov	r24, r28
    414c:	8f 70       	andi	r24, 0x0F	; 15
    414e:	0e 94 97 20 	call	0x412e	; 0x412e <Display_HexDigit>
}
    4152:	cf 91       	pop	r28
    4154:	08 95       	ret

00004156 <Display_FullValue>:
 *  - DecPlaces: decimal places (0 = none)
 *  - Unit: character for unit (0 = none)
 */

void Display_FullValue(uint32_t Value, uint8_t DecPlaces, unsigned char Unit)
{
    4156:	cf 92       	push	r12
    4158:	df 92       	push	r13
    415a:	ff 92       	push	r15
    415c:	0f 93       	push	r16
    415e:	1f 93       	push	r17
    4160:	cf 93       	push	r28
    4162:	df 93       	push	r29
    4164:	d4 2f       	mov	r29, r20
    4166:	02 2f       	mov	r16, r18
    } else if (__radix < 2 || __radix > 36) {
	*__s = 0;
	return __s;
    } else {
	extern char *__ultoa_ncheck (unsigned long, char *, unsigned char);
	return __ultoa_ncheck (__val, __s, __radix);
    4168:	2a e0       	ldi	r18, 0x0A	; 10
    416a:	43 e4       	ldi	r20, 0x43	; 67
    416c:	51 e0       	ldi	r21, 0x01	; 1
    416e:	0e 94 4e 3f 	call	0x7e9c	; 0x7e9c <__ultoa_ncheck>
  uint8_t           Length;             /* string length */
  uint8_t           Pos = 0;            /* position of dot */

  /* convert value into string */
  ultoa(Value, OutBuffer, 10);          /* radix 10: max. 10 chars + /0 */
  Length = strlen(OutBuffer);           /* get string length */
    4172:	e3 e4       	ldi	r30, 0x43	; 67
    4174:	f1 e0       	ldi	r31, 0x01	; 1
    4176:	01 90       	ld	r0, Z+
    4178:	00 20       	and	r0, r0
    417a:	e9 f7       	brne	.-6      	; 0x4176 <Display_FullValue+0x20>
    417c:	31 97       	sbiw	r30, 0x01	; 1
    417e:	cf 01       	movw	r24, r30
    4180:	83 54       	subi	r24, 0x43	; 67
    4182:	91 40       	sbci	r25, 0x01	; 1
    4184:	f8 2e       	mov	r15, r24

  /* determine position of dot */
  if (DecPlaces == 0)                   /* no dot requested */
    4186:	dd 23       	and	r29, r29
    4188:	69 f0       	breq	.+26     	; 0x41a4 <Display_FullValue+0x4e>
  {
    Pos = 100;                          /* disable dot */
  }
  else if (Length >= DecPlaces)         /* position within string */
    418a:	8d 17       	cp	r24, r29
    418c:	28 f0       	brcs	.+10     	; 0x4198 <Display_FullValue+0x42>
  {
    Pos = Length - DecPlaces;           /* position of dot */
    418e:	c8 2f       	mov	r28, r24
    4190:	cd 1b       	sub	r28, r29
    DecPlaces = 0;                      /* no additional zeros needed */
    4192:	d0 e0       	ldi	r29, 0x00	; 0
  {
    DecPlaces = DecPlaces - Length;     /* number of zeros after dot */
  }

  /* leading zero (followed by dot) */
  if (Pos == 0) Display_Char('0');      /* display: 0 */
    4194:	41 f4       	brne	.+16     	; 0x41a6 <Display_FullValue+0x50>
    4196:	01 c0       	rjmp	.+2      	; 0x419a <Display_FullValue+0x44>
    Pos = Length - DecPlaces;           /* position of dot */
    DecPlaces = 0;                      /* no additional zeros needed */
  }
  else                                  /* position outside string */
  {
    DecPlaces = DecPlaces - Length;     /* number of zeros after dot */
    4198:	d8 1b       	sub	r29, r24
  }

  /* leading zero (followed by dot) */
  if (Pos == 0) Display_Char('0');      /* display: 0 */
    419a:	80 e3       	ldi	r24, 0x30	; 48
    419c:	0e 94 8a 3b 	call	0x7714	; 0x7714 <LCD_Char>
    41a0:	c0 e0       	ldi	r28, 0x00	; 0
    41a2:	01 c0       	rjmp	.+2      	; 0x41a6 <Display_FullValue+0x50>
  Length = strlen(OutBuffer);           /* get string length */

  /* determine position of dot */
  if (DecPlaces == 0)                   /* no dot requested */
  {
    Pos = 100;                          /* disable dot */
    41a4:	c4 e6       	ldi	r28, 0x64	; 100
    41a6:	83 e4       	ldi	r24, 0x43	; 67
    41a8:	c8 2e       	mov	r12, r24
    41aa:	81 e0       	ldi	r24, 0x01	; 1
    41ac:	d8 2e       	mov	r13, r24
  }
  else if (Length >= DecPlaces)         /* position within string */
  {
    Pos = Length - DecPlaces;           /* position of dot */
    DecPlaces = 0;                      /* no additional zeros needed */
    41ae:	10 e0       	ldi	r17, 0x00	; 0
  /* leading zero (followed by dot) */
  if (Pos == 0) Display_Char('0');      /* display: 0 */

  /* display digits */
  n = 0;
  while (n < Length)                    /* process string */
    41b0:	1f 15       	cp	r17, r15
    41b2:	98 f4       	brcc	.+38     	; 0x41da <Display_FullValue+0x84>
  {
    if (n == Pos)                       /* at position of dot */
    41b4:	1c 13       	cpse	r17, r28
    41b6:	0a c0       	rjmp	.+20     	; 0x41cc <Display_FullValue+0x76>
    {
      #ifdef UI_COMMA
      Display_Char(',');                /* display: , */
      #else
      Display_Char('.');                /* display: . */
    41b8:	8e e2       	ldi	r24, 0x2E	; 46
    41ba:	0e 94 8a 3b 	call	0x7714	; 0x7714 <LCD_Char>
      #endif

      while (DecPlaces > 0)             /* fill in more zeros if needed */
    41be:	dd 23       	and	r29, r29
    41c0:	29 f0       	breq	.+10     	; 0x41cc <Display_FullValue+0x76>
      {
        Display_Char('0');              /* display: 0 */
    41c2:	80 e3       	ldi	r24, 0x30	; 48
    41c4:	0e 94 8a 3b 	call	0x7714	; 0x7714 <LCD_Char>
        DecPlaces--;
    41c8:	d1 50       	subi	r29, 0x01	; 1
    41ca:	f9 cf       	rjmp	.-14     	; 0x41be <Display_FullValue+0x68>
      }
    }

    Display_Char(OutBuffer[n]);         /* display digit */
    41cc:	f6 01       	movw	r30, r12
    41ce:	81 91       	ld	r24, Z+
    41d0:	6f 01       	movw	r12, r30
    41d2:	0e 94 8a 3b 	call	0x7714	; 0x7714 <LCD_Char>
    n++;                                /* next digit */
    41d6:	1f 5f       	subi	r17, 0xFF	; 255
    41d8:	eb cf       	rjmp	.-42     	; 0x41b0 <Display_FullValue+0x5a>
  }

  /* display unit */
  if (Unit) Display_Char(Unit);
    41da:	00 23       	and	r16, r16
    41dc:	19 f0       	breq	.+6      	; 0x41e4 <Display_FullValue+0x8e>
    41de:	80 2f       	mov	r24, r16
    41e0:	0e 94 8a 3b 	call	0x7714	; 0x7714 <LCD_Char>
}
    41e4:	df 91       	pop	r29
    41e6:	cf 91       	pop	r28
    41e8:	1f 91       	pop	r17
    41ea:	0f 91       	pop	r16
    41ec:	ff 90       	pop	r15
    41ee:	df 90       	pop	r13
    41f0:	cf 90       	pop	r12
    41f2:	08 95       	ret

000041f4 <Display_Value>:
 *    e.g: p = 10^-12 -> -12
 *  - unit character (0 = none)
 */

void Display_Value(uint32_t Value, int8_t Exponent, unsigned char Unit)
{
    41f4:	a0 e0       	ldi	r26, 0x00	; 0
    41f6:	b0 e0       	ldi	r27, 0x00	; 0
    41f8:	e0 e0       	ldi	r30, 0x00	; 0
    41fa:	f1 e2       	ldi	r31, 0x21	; 33
    41fc:	0c 94 1d 3f 	jmp	0x7e3a	; 0x7e3a <__prologue_saves__+0xc>
    4200:	6b 01       	movw	r12, r22
    4202:	7c 01       	movw	r14, r24
    4204:	c4 2f       	mov	r28, r20
    4206:	12 2f       	mov	r17, r18

  /* scale value down to 4 digits */
  while (Value >= 10000)
  {
    Value += 5;                       /* for automagic rounding */
    Value = Value / 10;               /* scale down by 10^1 */
    4208:	9a e0       	ldi	r25, 0x0A	; 10
    420a:	89 2e       	mov	r8, r25
    420c:	91 2c       	mov	r9, r1
    420e:	a1 2c       	mov	r10, r1
    4210:	b1 2c       	mov	r11, r1
  uint8_t           Offset = 0;         /* exponent offset to lower 10^3 step */
  uint8_t           Index;              /* index ID */
  uint8_t           Length;             /* string length */

  /* scale value down to 4 digits */
  while (Value >= 10000)
    4212:	80 e1       	ldi	r24, 0x10	; 16
    4214:	c8 16       	cp	r12, r24
    4216:	87 e2       	ldi	r24, 0x27	; 39
    4218:	d8 06       	cpc	r13, r24
    421a:	e1 04       	cpc	r14, r1
    421c:	f1 04       	cpc	r15, r1
    421e:	70 f0       	brcs	.+28     	; 0x423c <Display_Value+0x48>
  {
    Value += 5;                       /* for automagic rounding */
    4220:	c7 01       	movw	r24, r14
    4222:	b6 01       	movw	r22, r12
    4224:	6b 5f       	subi	r22, 0xFB	; 251
    4226:	7f 4f       	sbci	r23, 0xFF	; 255
    4228:	8f 4f       	sbci	r24, 0xFF	; 255
    422a:	9f 4f       	sbci	r25, 0xFF	; 255
    Value = Value / 10;               /* scale down by 10^1 */
    422c:	a5 01       	movw	r20, r10
    422e:	94 01       	movw	r18, r8
    4230:	0e 94 af 3e 	call	0x7d5e	; 0x7d5e <__udivmodsi4>
    4234:	69 01       	movw	r12, r18
    4236:	7a 01       	movw	r14, r20
    4238:	cf 5f       	subi	r28, 0xFF	; 255
    423a:	eb cf       	rjmp	.-42     	; 0x4212 <Display_Value+0x1e>

  /*
   *  determine prefix and offset (= number of digits right of dot)
   */

  if (Exponent >= -15)                  /* prevent index underflow */
    423c:	c1 3f       	cpi	r28, 0xF1	; 241
    423e:	ac f0       	brlt	.+42     	; 0x426a <Display_Value+0x76>
  {
    Exponent += 15;                     /* shift exponent to be >= 0 */
    4240:	8f e0       	ldi	r24, 0x0F	; 15
    4242:	8c 0f       	add	r24, r28
    Index = Exponent / 3;               /* number of 10^3 steps */
    4244:	23 e0       	ldi	r18, 0x03	; 3
    Offset = Exponent % 3;              /* offset to lower 10^3 step */
    4246:	62 2f       	mov	r22, r18
    4248:	0e 94 79 3e 	call	0x7cf2	; 0x7cf2 <__divmodqi4>
    424c:	d9 2f       	mov	r29, r25

    if (Offset > 0)                     /* dot required */
    424e:	99 23       	and	r25, r25
    4250:	19 f0       	breq	.+6      	; 0x4258 <Display_Value+0x64>
    {
      Index++;                          /* upscale prefix */ 
    4252:	8f 5f       	subi	r24, 0xFF	; 255
      Offset = 3 - Offset;              /* reverse value (1 or 2) */
    4254:	29 1b       	sub	r18, r25
    4256:	d2 2f       	mov	r29, r18
    }    

    /* look up prefix in table */
    if (Index < NUM_PREFIXES)           /* prevent array overflow */
    4258:	88 30       	cpi	r24, 0x08	; 8
    425a:	40 f4       	brcc	.+16     	; 0x426c <Display_Value+0x78>
    {
      Prefix = DATA_read_byte(&Prefix_table[Index]);
    425c:	90 e0       	ldi	r25, 0x00	; 0
    425e:	83 51       	subi	r24, 0x13	; 19
    4260:	9f 4f       	sbci	r25, 0xFF	; 255
    4262:	0e 94 9a 3f 	call	0x7f34	; 0x7f34 <eeprom_read_byte>
    4266:	08 2f       	mov	r16, r24
    4268:	02 c0       	rjmp	.+4      	; 0x426e <Display_Value+0x7a>
 */

void Display_Value(uint32_t Value, int8_t Exponent, unsigned char Unit)
{
  unsigned char     Prefix = 0;         /* prefix character */
  uint8_t           Offset = 0;         /* exponent offset to lower 10^3 step */
    426a:	d0 e0       	ldi	r29, 0x00	; 0
 *  - unit character (0 = none)
 */

void Display_Value(uint32_t Value, int8_t Exponent, unsigned char Unit)
{
  unsigned char     Prefix = 0;         /* prefix character */
    426c:	00 e0       	ldi	r16, 0x00	; 0
    } else if (__radix < 2 || __radix > 36) {
	*__s = 0;
	return __s;
    } else {
	extern char *__utoa_ncheck (unsigned int, char *, unsigned char);
	return __utoa_ncheck (__val, __s, __radix);
    426e:	4a e0       	ldi	r20, 0x0A	; 10
    4270:	63 e4       	ldi	r22, 0x43	; 67
    4272:	71 e0       	ldi	r23, 0x01	; 1
    4274:	c6 01       	movw	r24, r12
    4276:	0e 94 70 3f 	call	0x7ee0	; 0x7ee0 <__utoa_ncheck>
   *  display value
   */

  /* convert value into string */
  utoa((uint16_t)Value, OutBuffer, 10);   /* radix 10: max. 5 chars + /0 */
  Length = strlen(OutBuffer);             /* get string length */
    427a:	e3 e4       	ldi	r30, 0x43	; 67
    427c:	f1 e0       	ldi	r31, 0x01	; 1
    427e:	01 90       	ld	r0, Z+
    4280:	00 20       	and	r0, r0
    4282:	e9 f7       	brne	.-6      	; 0x427e <Display_Value+0x8a>
    4284:	31 97       	sbiw	r30, 0x01	; 1
    4286:	e3 54       	subi	r30, 0x43	; 67
    4288:	f1 40       	sbci	r31, 0x01	; 1
    428a:	be 2e       	mov	r11, r30

  /* we misuse Exponent for the dot position */
  Exponent = Length - Offset;           /* calculate position */
    428c:	ce 2f       	mov	r28, r30
    428e:	cd 1b       	sub	r28, r29

  if (Exponent <= 0)                    /* we have to prepend "0." */
    4290:	1c 16       	cp	r1, r28
    4292:	5c f0       	brlt	.+22     	; 0x42aa <Display_Value+0xb6>
  {
    /* 0: factor 10 / -1: factor 100 */
    Display_Char('0');                  /* display: 0 */
    4294:	80 e3       	ldi	r24, 0x30	; 48
    4296:	0e 94 8a 3b 	call	0x7714	; 0x7714 <LCD_Char>
    #ifdef UI_COMMA
    Display_Char(',');                  /* display: , */
    #else
    Display_Char('.');                  /* display: . */
    429a:	8e e2       	ldi	r24, 0x2E	; 46
    429c:	0e 94 8a 3b 	call	0x7714	; 0x7714 <LCD_Char>
    #endif
    if (Exponent < 0)                   /* factor 100 */
    42a0:	cc 23       	and	r28, r28
    42a2:	19 f0       	breq	.+6      	; 0x42aa <Display_Value+0xb6>
    {
      Display_Char('0');                /* additional 0 */
    42a4:	80 e3       	ldi	r24, 0x30	; 48
    42a6:	0e 94 8a 3b 	call	0x7714	; 0x7714 <LCD_Char>
    }
  }

  if (Offset == 0)                 /* no dot needed */
    42aa:	d1 11       	cpse	r29, r1
    42ac:	01 c0       	rjmp	.+2      	; 0x42b0 <Display_Value+0xbc>
  {
    Exponent = -1;                 /* disable dot */
    42ae:	cf ef       	ldi	r28, 0xFF	; 255
  }

  /* adjust position to match array or disable dot if set to 0 */ 
  Exponent--;
    42b0:	c1 50       	subi	r28, 0x01	; 1
    42b2:	83 e4       	ldi	r24, 0x43	; 67
    42b4:	c8 2e       	mov	r12, r24
    42b6:	81 e0       	ldi	r24, 0x01	; 1
    42b8:	d8 2e       	mov	r13, r24

  /* display value and add dot if requested */
  Index = 0;
  while (Index < Length)                /* loop through string */
    42ba:	e1 2c       	mov	r14, r1
    42bc:	f1 2c       	mov	r15, r1
  {
    Display_Char(OutBuffer[Index]);     /* display char/digit */

    if (Index == Exponent)              /* starting point of decimal fraction */
    42be:	0c 2e       	mov	r0, r28
    42c0:	00 0c       	add	r0, r0
    42c2:	dd 0b       	sbc	r29, r29
  /* adjust position to match array or disable dot if set to 0 */ 
  Exponent--;

  /* display value and add dot if requested */
  Index = 0;
  while (Index < Length)                /* loop through string */
    42c4:	eb 14       	cp	r14, r11
    42c6:	78 f4       	brcc	.+30     	; 0x42e6 <Display_Value+0xf2>
  {
    Display_Char(OutBuffer[Index]);     /* display char/digit */
    42c8:	f6 01       	movw	r30, r12
    42ca:	81 91       	ld	r24, Z+
    42cc:	6f 01       	movw	r12, r30
    42ce:	0e 94 8a 3b 	call	0x7714	; 0x7714 <LCD_Char>

    if (Index == Exponent)              /* starting point of decimal fraction */
    42d2:	ce 15       	cp	r28, r14
    42d4:	df 05       	cpc	r29, r15
    42d6:	19 f4       	brne	.+6      	; 0x42de <Display_Value+0xea>
    {
      #ifdef UI_COMMA
      Display_Char(',');                /* display: , */
      #else
      Display_Char('.');                /* display: . */
    42d8:	8e e2       	ldi	r24, 0x2E	; 46
    42da:	0e 94 8a 3b 	call	0x7714	; 0x7714 <LCD_Char>
    42de:	ff ef       	ldi	r31, 0xFF	; 255
    42e0:	ef 1a       	sub	r14, r31
    42e2:	ff 0a       	sbc	r15, r31
    42e4:	ef cf       	rjmp	.-34     	; 0x42c4 <Display_Value+0xd0>

    Index++;                            /* next one */
  }

  /* display prefix and unit */
  if (Prefix) Display_Char(Prefix);
    42e6:	00 23       	and	r16, r16
    42e8:	19 f0       	breq	.+6      	; 0x42f0 <Display_Value+0xfc>
    42ea:	80 2f       	mov	r24, r16
    42ec:	0e 94 8a 3b 	call	0x7714	; 0x7714 <LCD_Char>
  if (Unit) Display_Char(Unit);
    42f0:	11 23       	and	r17, r17
    42f2:	19 f0       	breq	.+6      	; 0x42fa <Display_Value+0x106>
    42f4:	81 2f       	mov	r24, r17
    42f6:	0e 94 8a 3b 	call	0x7714	; 0x7714 <LCD_Char>
}
    42fa:	cd b7       	in	r28, 0x3d	; 61
    42fc:	de b7       	in	r29, 0x3e	; 62
    42fe:	ec e0       	ldi	r30, 0x0C	; 12
    4300:	0c 94 39 3f 	jmp	0x7e72	; 0x7e72 <__epilogue_restores__+0xc>

00004304 <Display_SignedValue>:
 *    e.g: p = 10^-12 -> -12
 *  - unit character (0 = none)
 */

void Display_SignedValue(int32_t Value, int8_t Exponent, unsigned char Unit)
{
    4304:	cf 92       	push	r12
    4306:	df 92       	push	r13
    4308:	ef 92       	push	r14
    430a:	ff 92       	push	r15
    430c:	cf 93       	push	r28
    430e:	df 93       	push	r29
    4310:	6b 01       	movw	r12, r22
    4312:	7c 01       	movw	r14, r24
    4314:	c4 2f       	mov	r28, r20
    4316:	d2 2f       	mov	r29, r18
  /* take care about sign */
  if (Value < 0)              /* negative value */
    4318:	97 ff       	sbrs	r25, 7
    431a:	0b c0       	rjmp	.+22     	; 0x4332 <Display_SignedValue+0x2e>
  {
    Display_Char('-');        /* display: "-" */
    431c:	8d e2       	ldi	r24, 0x2D	; 45
    431e:	0e 94 8a 3b 	call	0x7714	; 0x7714 <LCD_Char>
    Value = -Value;           /* make value positive */
    4322:	f0 94       	com	r15
    4324:	e0 94       	com	r14
    4326:	d0 94       	com	r13
    4328:	c0 94       	com	r12
    432a:	c1 1c       	adc	r12, r1
    432c:	d1 1c       	adc	r13, r1
    432e:	e1 1c       	adc	r14, r1
    4330:	f1 1c       	adc	r15, r1
  }

  /* and display unsigned value */
  Display_Value((uint32_t)Value, Exponent, Unit);
    4332:	2d 2f       	mov	r18, r29
    4334:	4c 2f       	mov	r20, r28
    4336:	c7 01       	movw	r24, r14
    4338:	b6 01       	movw	r22, r12
    433a:	0e 94 fa 20 	call	0x41f4	; 0x41f4 <Display_Value>
}
    433e:	df 91       	pop	r29
    4340:	cf 91       	pop	r28
    4342:	ff 90       	pop	r15
    4344:	ef 90       	pop	r14
    4346:	df 90       	pop	r13
    4348:	cf 90       	pop	r12
    434a:	08 95       	ret

0000434c <Display_EValue>:
 *  - Value: unsigned value (2 or 3 digits)
 *  - Scale: exponent/multiplier (10^n with n >= -12)
 */

void Display_EValue(uint16_t Value, int8_t Scale, unsigned char Unit)
{
    434c:	fc 01       	movw	r30, r24
    434e:	36 2f       	mov	r19, r22
    4350:	24 2f       	mov	r18, r20
   *  Since Display_Value() scales values to the next higher 10^3 step
   *  we have to beautify some special cases to prevent things like
   *  0.15M (150k looks much nicer).
   */

  if ((Offset == 1) && (Value < 100))      /* 0.01u and 0.11u */  
    4352:	8c e0       	ldi	r24, 0x0C	; 12
    4354:	86 0f       	add	r24, r22
    4356:	63 e0       	ldi	r22, 0x03	; 3
    4358:	0e 94 79 3e 	call	0x7cf2	; 0x7cf2 <__divmodqi4>
    435c:	91 30       	cpi	r25, 0x01	; 1
    435e:	59 f4       	brne	.+22     	; 0x4376 <Display_EValue+0x2a>
    4360:	e4 36       	cpi	r30, 0x64	; 100
    4362:	f1 05       	cpc	r31, r1
    4364:	40 f4       	brcc	.+16     	; 0x4376 <Display_EValue+0x2a>
  {
    /* scale value to lower 10^3 step */
    Value *= 10;              /* *10 */
    4366:	8a e0       	ldi	r24, 0x0A	; 10
    4368:	af 01       	movw	r20, r30
    436a:	84 9f       	mul	r24, r20
    436c:	f0 01       	movw	r30, r0
    436e:	85 9f       	mul	r24, r21
    4370:	f0 0d       	add	r31, r0
    4372:	11 24       	eor	r1, r1
    Scale--;                  /* /10 */
    4374:	31 50       	subi	r19, 0x01	; 1
    Value *= 100;             /* *100 */
    Scale -= 2;               /* /100 */
  }
  #endif

  Display_Value(Value, Scale, Unit);       /* display value */
    4376:	bf 01       	movw	r22, r30
    4378:	80 e0       	ldi	r24, 0x00	; 0
    437a:	90 e0       	ldi	r25, 0x00	; 0
    437c:	43 2f       	mov	r20, r19
    437e:	0e 94 fa 20 	call	0x41f4	; 0x41f4 <Display_Value>
    4382:	08 95       	ret

00004384 <LCD_FancyProbeNumber>:
 *  - Probe: probe number
 *  - Index: pin index (0-2)
 */

void LCD_FancyProbeNumber(uint8_t Probe, uint8_t Index)
{
    4384:	cf 93       	push	r28
  Table = (uint8_t *)&PinTable;    /* start address of pin table */
  x = Check.Symbol * 3;            /* offset for symbol's pin details */
  Table += x;                      /* start address of symbol's pin details */
  Table += Index;                  /* address of specific pin's details */

  Data = pgm_read_byte(Table);     /* read pinout details */
    4386:	90 91 0f 01 	lds	r25, 0x010F	; 0x80010f <__data_end+0x9>
    438a:	29 2f       	mov	r18, r25
    438c:	22 0f       	add	r18, r18
    438e:	92 0f       	add	r25, r18
    4390:	e6 2f       	mov	r30, r22
    4392:	f0 e0       	ldi	r31, 0x00	; 0
    4394:	e9 0f       	add	r30, r25
    4396:	f1 1d       	adc	r31, r1
    4398:	e0 56       	subi	r30, 0x60	; 96
    439a:	ff 4f       	sbci	r31, 0xFF	; 255
    439c:	e4 91       	lpm	r30, Z

  if (Data != PIN_NONE)            /* show pin */
    439e:	ee 23       	and	r30, r30
    43a0:	c1 f0       	breq	.+48     	; 0x43d2 <LCD_FancyProbeNumber+0x4e>
  {
    /* determine position based on pinout data */
    /* set default position (top left) */
    x = UI.SymbolPos_X - 1;        /* left of symbol */
    43a2:	90 91 31 01 	lds	r25, 0x0131	; 0x800131 <UI+0xb>
    43a6:	91 50       	subi	r25, 0x01	; 1
    y = UI.SymbolPos_Y;            /* top line of symbol */
    43a8:	60 91 32 01 	lds	r22, 0x0132	; 0x800132 <UI+0xc>
    if (Data & PIN_RIGHT)          /* right */
    43ac:	e1 ff       	sbrs	r30, 1
    43ae:	04 c0       	rjmp	.+8      	; 0x43b8 <LCD_FancyProbeNumber+0x34>
    {
      x += UI.SymbolSize_X + 1;    /* right of symbol */
    43b0:	20 91 2f 01 	lds	r18, 0x012F	; 0x80012f <UI+0x9>
    43b4:	2f 5f       	subi	r18, 0xFF	; 255
    43b6:	92 0f       	add	r25, r18
    }
    if (Data & PIN_BOTTOM)         /* bottom */
    43b8:	e2 ff       	sbrs	r30, 2
    43ba:	04 c0       	rjmp	.+8      	; 0x43c4 <LCD_FancyProbeNumber+0x40>
    {
      y += UI.SymbolSize_Y - 1;    /* bottom line of symbol */
    43bc:	20 91 30 01 	lds	r18, 0x0130	; 0x800130 <UI+0xa>
    43c0:	62 0f       	add	r22, r18
    43c2:	61 50       	subi	r22, 0x01	; 1
    43c4:	c8 2f       	mov	r28, r24
    }

    /* show probe number */
    LCD_CharPos(x, y);           /* set position */
    43c6:	89 2f       	mov	r24, r25
    43c8:	0e 94 9f 3a 	call	0x753e	; 0x753e <LCD_CharPos>
    Display_ProbeNumber(Probe);  /* display probe number */
    43cc:	8c 2f       	mov	r24, r28
    43ce:	0e 94 52 20 	call	0x40a4	; 0x40a4 <Display_ProbeNumber>
  }
}
    43d2:	cf 91       	pop	r28
    43d4:	08 95       	ret

000043d6 <LCD_FancySemiPinout>:
 *  requires:
 *  - Line: starting line of symbol (top, 1-)
 */

void LCD_FancySemiPinout(uint8_t Line)
{
    43d6:	cf 93       	push	r28
    43d8:	df 93       	push	r29
  uint8_t           MaxLine;       /* maximum line number */
  #ifdef LCD_COLOR
  uint16_t          Color;         /* pen color */ 
  #endif

  Pos = UI.SymbolSize_Y;           /* get symbol height */
    43da:	20 91 30 01 	lds	r18, 0x0130	; 0x800130 <UI+0xa>
  MaxLine = UI.CharMax_Y;          /* get screen heigth */
    43de:	30 91 2a 01 	lds	r19, 0x012A	; 0x80012a <UI+0x4>

  /* check for sufficient screen size */
  if (MaxLine > Pos)               /* sanity check for size */
    43e2:	23 17       	cp	r18, r19
    43e4:	e0 f5       	brcc	.+120    	; 0x445e <LCD_FancySemiPinout+0x88>
     */

    Pos += Line;                   /* line below symbol */

    /* check for narrow displays */
    if (UI.CharMax_X < 16)         /* less than 16 chars per line */
    43e6:	90 91 29 01 	lds	r25, 0x0129	; 0x800129 <UI+0x3>
    43ea:	90 31       	cpi	r25, 0x10	; 16
    43ec:	18 f0       	brcs	.+6      	; 0x43f4 <LCD_FancySemiPinout+0x1e>
    {
      Pos = MaxLine;               /* trigger output on new screen */
    }

    if (Pos >= MaxLine)       /* doesn't fit on current screen */
    43ee:	28 0f       	add	r18, r24
    43f0:	23 17       	cp	r18, r19
    43f2:	38 f0       	brcs	.+14     	; 0x4402 <LCD_FancySemiPinout+0x2c>
    {
      /* output on a new screen */
      UI.CharPos_Y = MaxLine;      /* simulate last line */
    43f4:	30 93 28 01 	sts	0x0128, r19	; 0x800128 <UI+0x2>
      Display_NextLine();          /* trigger test key & clear screen */
    43f8:	0e 94 0b 20 	call	0x4016	; 0x4016 <Display_NextLine>
      Line = 2;                    /* simply line #2 */
      Pos = 3;                     /* align to left side with tiny offset */
    43fc:	93 e0       	ldi	r25, 0x03	; 3
    if (Pos >= MaxLine)       /* doesn't fit on current screen */
    {
      /* output on a new screen */
      UI.CharPos_Y = MaxLine;      /* simulate last line */
      Display_NextLine();          /* trigger test key & clear screen */
      Line = 2;                    /* simply line #2 */
    43fe:	82 e0       	ldi	r24, 0x02	; 2
    4400:	03 c0       	rjmp	.+6      	; 0x4408 <LCD_FancySemiPinout+0x32>
      Pos = 3;                     /* align to left side with tiny offset */
    }
    else                      /* fits on current screen */
    {
      /* default x position */
      Pos = UI.CharMax_X - UI.SymbolSize_X;  /* align to right side */
    4402:	20 91 2f 01 	lds	r18, 0x012F	; 0x80012f <UI+0x9>
    4406:	92 1b       	sub	r25, r18
    /*
     *  display symbol with pinout
     */

    /* determine start position (top left of symbol) */
    UI.SymbolPos_X = Pos;               /* x position */
    4408:	90 93 31 01 	sts	0x0131, r25	; 0x800131 <UI+0xb>
    UI.SymbolPos_Y = Line;              /* y position */
    440c:	80 93 32 01 	sts	0x0132, r24	; 0x800132 <UI+0xc>

    /* display probe numbers */
    LCD_FancyProbeNumber(Semi.A, 0);    /* A pin */
    4410:	60 e0       	ldi	r22, 0x00	; 0
    4412:	80 91 af 01 	lds	r24, 0x01AF	; 0x8001af <Semi>
    4416:	0e 94 c2 21 	call	0x4384	; 0x4384 <LCD_FancyProbeNumber>
    LCD_FancyProbeNumber(Semi.B, 1);    /* B pin */
    441a:	61 e0       	ldi	r22, 0x01	; 1
    441c:	80 91 b0 01 	lds	r24, 0x01B0	; 0x8001b0 <Semi+0x1>
    4420:	0e 94 c2 21 	call	0x4384	; 0x4384 <LCD_FancyProbeNumber>
    LCD_FancyProbeNumber(Semi.C, 2);    /* C pin */
    4424:	62 e0       	ldi	r22, 0x02	; 2
    4426:	80 91 b1 01 	lds	r24, 0x01B1	; 0x8001b1 <Semi+0x2>
    442a:	0e 94 c2 21 	call	0x4384	; 0x4384 <LCD_FancyProbeNumber>

    /* display symbol */
    #ifdef LCD_COLOR
      Color = UI.PenColor;              /* save color */
    442e:	c0 91 2c 01 	lds	r28, 0x012C	; 0x80012c <UI+0x6>
    4432:	d0 91 2d 01 	lds	r29, 0x012D	; 0x80012d <UI+0x7>
      UI.PenColor = COLOR_SYMBOL;       /* set pen color */
    4436:	80 ee       	ldi	r24, 0xE0	; 224
    4438:	9f ef       	ldi	r25, 0xFF	; 255
    443a:	90 93 2d 01 	sts	0x012D, r25	; 0x80012d <UI+0x7>
    443e:	80 93 2c 01 	sts	0x012C, r24	; 0x80012c <UI+0x6>
    #endif

    LCD_CharPos(UI.SymbolPos_X, UI.SymbolPos_Y);  /* set position */
    4442:	60 91 32 01 	lds	r22, 0x0132	; 0x800132 <UI+0xc>
    4446:	80 91 31 01 	lds	r24, 0x0131	; 0x800131 <UI+0xb>
    444a:	0e 94 9f 3a 	call	0x753e	; 0x753e <LCD_CharPos>
    LCD_Symbol(Check.Symbol);                     /* display symbol */
    444e:	80 91 0f 01 	lds	r24, 0x010F	; 0x80010f <__data_end+0x9>
    4452:	0e 94 0b 3c 	call	0x7816	; 0x7816 <LCD_Symbol>

    #ifdef LCD_COLOR
      UI.PenColor = Color;              /* restore pen color */
    4456:	d0 93 2d 01 	sts	0x012D, r29	; 0x80012d <UI+0x7>
    445a:	c0 93 2c 01 	sts	0x012C, r28	; 0x80012c <UI+0x6>
    #endif

    /* hint: we don't restore the old char position */
  }
}
    445e:	df 91       	pop	r29
    4460:	cf 91       	pop	r28
    4462:	08 95       	ret

00004464 <SmallResistor>:
 *  returns:
 *  - resistance in 0.01 Ohm
 */

uint16_t SmallResistor(uint8_t ZeroFlag)
{
    4464:	4f 92       	push	r4
    4466:	5f 92       	push	r5
    4468:	6f 92       	push	r6
    446a:	7f 92       	push	r7
    446c:	8f 92       	push	r8
    446e:	9f 92       	push	r9
    4470:	af 92       	push	r10
    4472:	bf 92       	push	r11
    4474:	cf 92       	push	r12
    4476:	df 92       	push	r13
    4478:	ef 92       	push	r14
    447a:	ff 92       	push	r15
    447c:	1f 93       	push	r17
    447e:	cf 93       	push	r28
    4480:	df 93       	push	r29
    4482:	c8 2f       	mov	r28, r24
  uint8_t           Counter;       /* sample counter */
  uint32_t          Value;         /* ADC sample value */
  uint32_t          Value1 = 0;    /* U_Rl temp. value */
  uint32_t          Value2 = 0;    /* U_R_i_L temp. value */

  DischargeProbes();                    /* try to discharge probes */
    4484:	0e 94 2d 1d 	call	0x3a5a	; 0x3a5a <DischargeProbes>
  if (Check.Found == COMP_ERROR) return R;   /* skip on error */
    4488:	80 91 06 01 	lds	r24, 0x0106	; 0x800106 <__data_end>
    448c:	81 30       	cpi	r24, 0x01	; 1
    448e:	09 f4       	brne	.+2      	; 0x4492 <SmallResistor+0x2e>
    4490:	56 c0       	rjmp	.+172    	; 0x453e <SmallResistor+0xda>
   *  - repeat that for the low side of the DUT
   *  - use ADC directly
   */

  /* set probes: GND -- probe 2 / probe 1 -- Rl -- 5V */
  ADC_PORT = 0;                         /* set ADC port to low */
    4492:	18 b8       	out	0x08, r1	; 8
  ADC_DDR = Probes.Pin_2;               /* pull-down probe 2 directly */
    4494:	80 91 d8 01 	lds	r24, 0x01D8	; 0x8001d8 <Probes+0xd>
    4498:	87 b9       	out	0x07, r24	; 7
  R_PORT = Probes.Rl_1;                 /* pull-up probe 1 via Rl */
    449a:	80 91 d1 01 	lds	r24, 0x01D1	; 0x8001d1 <Probes+0x6>
    449e:	85 b9       	out	0x05, r24	; 5
  R_DDR = Probes.Rl_1;                  /* enable Rl for probe 1 */
    44a0:	84 b9       	out	0x04, r24	; 4
  wait10ms();                           /* settle time */
    44a2:	0e 94 79 3c 	call	0x78f2	; 0x78f2 <wait10ms>
  uint16_t          R = 0;         /* return value */
  uint8_t           Probe;         /* probe ID */
  uint8_t           Mode;          /* measurement mode */
  uint8_t           Counter;       /* sample counter */
  uint32_t          Value;         /* ADC sample value */
  uint32_t          Value1 = 0;    /* U_Rl temp. value */
    44a6:	c1 2c       	mov	r12, r1
    44a8:	d1 2c       	mov	r13, r1
    44aa:	76 01       	movw	r14, r12

  /*
   *   measurement loop
   */

  Mode = MODE_HIGH;
    44ac:	81 e0       	ldi	r24, 0x01	; 1

  while (Mode > 0)
  {
    /* set up measurement */
    if (Mode & MODE_HIGH)     /* high side mode */
    44ae:	18 2f       	mov	r17, r24
    44b0:	11 70       	andi	r17, 0x01	; 1
    44b2:	80 ff       	sbrs	r24, 0
    44b4:	03 c0       	rjmp	.+6      	; 0x44bc <SmallResistor+0x58>
    {
      Probe = Probes.Ch_1;    /* measure at probe 1 */
    44b6:	80 91 da 01 	lds	r24, 0x01DA	; 0x8001da <Probes+0xf>
    44ba:	02 c0       	rjmp	.+4      	; 0x44c0 <SmallResistor+0x5c>
    }
    else                      /* low side mode */
    {
      Probe = Probes.Ch_2;    /* measure at probe 2 */
    44bc:	80 91 db 01 	lds	r24, 0x01DB	; 0x8001db <Probes+0x10>
    }

    wdt_reset();              /* reset watchdog */
    44c0:	a8 95       	wdr
    Counter = 0;              /* reset loop counter */
    Value = 0;                /* reset sample value */

    /* set ADC to use bandgap reference and run a dummy conversion */
    Probe |= ADC_REF_BANDGAP;
    44c2:	80 6c       	ori	r24, 0xC0	; 192
    ADMUX = Probe;                   /* set input channel and U reference */
    44c4:	80 93 7c 00 	sts	0x007C, r24	; 0x80007c <__DATA_REGION_ORIGIN__+0x1c>
    #ifndef ADC_LARGE_BUFFER_CAP
      /* buffer cap: 1nF or none at all */
      wait100us();                   /* time for voltage stabilization */
    44c8:	0e 94 83 3c 	call	0x7906	; 0x7906 <wait100us>
    #else
      /* buffer cap: 100nF */
      wait10ms();                    /* time for voltage stabilization */
    #endif
    ADCSRA |= (1 << ADSC);           /* start conversion */
    44cc:	80 91 7a 00 	lds	r24, 0x007A	; 0x80007a <__DATA_REGION_ORIGIN__+0x1a>
    44d0:	80 64       	ori	r24, 0x40	; 64
    44d2:	80 93 7a 00 	sts	0x007A, r24	; 0x80007a <__DATA_REGION_ORIGIN__+0x1a>
    while (ADCSRA & (1 << ADSC));    /* wait until conversion is done */
    44d6:	80 91 7a 00 	lds	r24, 0x007A	; 0x80007a <__DATA_REGION_ORIGIN__+0x1a>
    44da:	86 fd       	sbrc	r24, 6
    44dc:	fc cf       	rjmp	.-8      	; 0x44d6 <SmallResistor+0x72>
    44de:	d4 e6       	ldi	r29, 0x64	; 100
    44e0:	81 2c       	mov	r8, r1
    44e2:	91 2c       	mov	r9, r1
    44e4:	54 01       	movw	r10, r8
     */

    while (Counter < 100)
    {
      /* get ADC reading (about 100s) */
      ADCSRA |= (1 << ADSC);            /* start conversion */
    44e6:	80 91 7a 00 	lds	r24, 0x007A	; 0x80007a <__DATA_REGION_ORIGIN__+0x1a>
    44ea:	80 64       	ori	r24, 0x40	; 64
    44ec:	80 93 7a 00 	sts	0x007A, r24	; 0x80007a <__DATA_REGION_ORIGIN__+0x1a>
      while (ADCSRA & (1 << ADSC));     /* wait until conversion is done */
    44f0:	80 91 7a 00 	lds	r24, 0x007A	; 0x80007a <__DATA_REGION_ORIGIN__+0x1a>
    44f4:	86 fd       	sbrc	r24, 6
    44f6:	fc cf       	rjmp	.-8      	; 0x44f0 <SmallResistor+0x8c>
      Value += ADCW;                    /* add ADC reading */
    44f8:	80 91 78 00 	lds	r24, 0x0078	; 0x800078 <__DATA_REGION_ORIGIN__+0x18>
    44fc:	90 91 79 00 	lds	r25, 0x0079	; 0x800079 <__DATA_REGION_ORIGIN__+0x19>
    4500:	88 0e       	add	r8, r24
    4502:	99 1e       	adc	r9, r25
    4504:	a1 1c       	adc	r10, r1
    4506:	b1 1c       	adc	r11, r1

      wait400us();                      /* wait */
    4508:	0e 94 80 3c 	call	0x7900	; 0x7900 <wait400us>
    450c:	d1 50       	subi	r29, 0x01	; 1

    /*
     *  measurement loop (about 0.5ms per cycle)
     */

    while (Counter < 100)
    450e:	59 f7       	brne	.-42     	; 0x44e6 <SmallResistor+0x82>
      Counter++;                        /* next round */
    }

    /* convert ADC reading into voltage (sum of samples) */
    Value *= Cfg.Bandgap;          /* * U_bandgap */
    Value /= 1024;                 /* / 1024 for 10bit ADC */
    4510:	a0 91 a6 01 	lds	r26, 0x01A6	; 0x8001a6 <Cfg+0x6>
    4514:	b0 91 a7 01 	lds	r27, 0x01A7	; 0x8001a7 <Cfg+0x7>
    4518:	a5 01       	movw	r20, r10
    451a:	94 01       	movw	r18, r8
    451c:	0e 94 0c 3f 	call	0x7e18	; 0x7e18 <__muluhisi3>
    4520:	4b 01       	movw	r8, r22
    4522:	5c 01       	movw	r10, r24
    4524:	8a e0       	ldi	r24, 0x0A	; 10
    4526:	b6 94       	lsr	r11
    4528:	a7 94       	ror	r10
    452a:	97 94       	ror	r9
    452c:	87 94       	ror	r8
    452e:	8a 95       	dec	r24
    4530:	d1 f7       	brne	.-12     	; 0x4526 <SmallResistor+0xc2>

    /* loop control */
    if (Mode & MODE_HIGH)          /* probe #1 / Rl */
    {
      Mode = MODE_LOW;             /* switch to low side */
    4532:	82 e0       	ldi	r24, 0x02	; 2
    /* convert ADC reading into voltage (sum of samples) */
    Value *= Cfg.Bandgap;          /* * U_bandgap */
    Value /= 1024;                 /* / 1024 for 10bit ADC */

    /* loop control */
    if (Mode & MODE_HIGH)          /* probe #1 / Rl */
    4534:	11 23       	and	r17, r17
    4536:	31 f0       	breq	.+12     	; 0x4544 <SmallResistor+0xe0>
      Counter++;                        /* next round */
    }

    /* convert ADC reading into voltage (sum of samples) */
    Value *= Cfg.Bandgap;          /* * U_bandgap */
    Value /= 1024;                 /* / 1024 for 10bit ADC */
    4538:	75 01       	movw	r14, r10
    453a:	64 01       	movw	r12, r8
    453c:	b8 cf       	rjmp	.-144    	; 0x44ae <SmallResistor+0x4a>
  uint32_t          Value;         /* ADC sample value */
  uint32_t          Value1 = 0;    /* U_Rl temp. value */
  uint32_t          Value2 = 0;    /* U_R_i_L temp. value */

  DischargeProbes();                    /* try to discharge probes */
  if (Check.Found == COMP_ERROR) return R;   /* skip on error */
    453e:	80 e0       	ldi	r24, 0x00	; 0
    4540:	90 e0       	ldi	r25, 0x00	; 0
    4542:	4c c0       	rjmp	.+152    	; 0x45dc <SmallResistor+0x178>
      Value2 = Value;              /* save measured value */
    }
  }

  /* stop current */
  R_PORT = 0;
    4544:	15 b8       	out	0x05, r1	; 5
  ADC_DDR = Probes.Pin_2 | Probes.Pin_1;
    4546:	90 91 d8 01 	lds	r25, 0x01D8	; 0x8001d8 <Probes+0xd>
    454a:	80 91 d7 01 	lds	r24, 0x01D7	; 0x8001d7 <Probes+0xc>
    454e:	89 2b       	or	r24, r25
    4550:	87 b9       	out	0x07, r24	; 7

  /*
   *  process measurement
   */

  if (Value1 > Value2)             /* sanity check */
    4552:	8c 14       	cp	r8, r12
    4554:	9d 04       	cpc	r9, r13
    4556:	ae 04       	cpc	r10, r14
    4558:	bf 04       	cpc	r11, r15
    455a:	d8 f5       	brcc	.+118    	; 0x45d2 <SmallResistor+0x16e>
  {
    /* I = U/R = (5V - U_Rl)/(Rl + R_i_H) */
    Value = 100UL * Cfg.Vcc;                 /* Vcc * number of samples */
    455c:	20 91 a8 01 	lds	r18, 0x01A8	; 0x8001a8 <Cfg+0x8>
    4560:	30 91 a9 01 	lds	r19, 0x01A9	; 0x8001a9 <Cfg+0x9>
    4564:	a4 e6       	ldi	r26, 0x64	; 100
    4566:	b0 e0       	ldi	r27, 0x00	; 0
    4568:	0e 94 f6 3e 	call	0x7dec	; 0x7dec <__umulhisi3>
    Value -= Value1;                         /* - sum of U_Rl */
    456c:	9b 01       	movw	r18, r22
    456e:	ac 01       	movw	r20, r24
    4570:	2c 19       	sub	r18, r12
    4572:	3d 09       	sbc	r19, r13
    4574:	4e 09       	sbc	r20, r14
    4576:	5f 09       	sbc	r21, r15
    Value *= 100;                            /* de-sample to 0.1 V */
    4578:	0e 94 0c 3f 	call	0x7e18	; 0x7e18 <__muluhisi3>
    457c:	2b 01       	movw	r4, r22
    457e:	3c 01       	movw	r6, r24
    Value /= ((R_LOW * 10) + NV.RiH);        /* I in A */

    /* U = U_Rl - U_R_i_L = U_Rl - (R_i_L * I) */
    /* U = U_probe1 - U_probe2 */
    Value1 -= Value2;                        /* sums in mV */
    4580:	a7 01       	movw	r20, r14
    4582:	96 01       	movw	r18, r12
    4584:	28 19       	sub	r18, r8
    4586:	39 09       	sbc	r19, r9
    4588:	4a 09       	sbc	r20, r10
    458a:	5b 09       	sbc	r21, r11
    Value1 *= 1000;                          /* de-sample to 0.01 V */  
    458c:	a8 ee       	ldi	r26, 0xE8	; 232
    458e:	b3 e0       	ldi	r27, 0x03	; 3
    4590:	0e 94 0c 3f 	call	0x7e18	; 0x7e18 <__muluhisi3>
    4594:	6b 01       	movw	r12, r22
    4596:	7c 01       	movw	r14, r24

    /* R = U/I (including R of probe leads) */
    Value1 /= Value;                         /* in 0.01 Ohms */
    R = (uint16_t)Value1;                    /* copy result */
    4598:	20 91 df 01 	lds	r18, 0x01DF	; 0x8001df <NV+0x2>
    459c:	30 91 e0 01 	lds	r19, 0x01E0	; 0x8001e0 <NV+0x3>
    45a0:	20 57       	subi	r18, 0x70	; 112
    45a2:	35 4e       	sbci	r19, 0xE5	; 229
    45a4:	40 e0       	ldi	r20, 0x00	; 0
    45a6:	50 e0       	ldi	r21, 0x00	; 0
    45a8:	c3 01       	movw	r24, r6
    45aa:	b2 01       	movw	r22, r4
    45ac:	0e 94 af 3e 	call	0x7d5e	; 0x7d5e <__udivmodsi4>
    45b0:	c7 01       	movw	r24, r14
    45b2:	b6 01       	movw	r22, r12
    45b4:	0e 94 af 3e 	call	0x7d5e	; 0x7d5e <__udivmodsi4>
    45b8:	c9 01       	movw	r24, r18

    if (ZeroFlag == 1)        /* auto-zero */
    45ba:	c1 30       	cpi	r28, 0x01	; 1
    45bc:	61 f4       	brne	.+24     	; 0x45d6 <SmallResistor+0x172>
      #ifdef R_MULTIOFFSET
      /* get index number for probe pair */
      Counter = GetOffsetIndex(Probes.ID_1, Probes.ID_2);
      RZero = NV.RZero[Counter];
      #else
      RZero = NV.RZero;
    45be:	60 91 e1 01 	lds	r22, 0x01E1	; 0x8001e1 <NV+0x4>
    45c2:	70 91 e2 01 	lds	r23, 0x01E2	; 0x8001e2 <NV+0x5>
      #endif

      if (R > RZero)          /* should be larger than offset */
    45c6:	62 17       	cp	r22, r18
    45c8:	73 07       	cpc	r23, r19
    45ca:	18 f4       	brcc	.+6      	; 0x45d2 <SmallResistor+0x16e>
      {
        R -= RZero;           /* subtract offset */
    45cc:	86 1b       	sub	r24, r22
    45ce:	97 0b       	sbc	r25, r23
    45d0:	02 c0       	rjmp	.+4      	; 0x45d6 <SmallResistor+0x172>
      }
      else                    /* can't be less then zero */
      {
        R = 0;                /* set zero */
    45d2:	80 e0       	ldi	r24, 0x00	; 0
    45d4:	90 e0       	ldi	r25, 0x00	; 0

#undef MODE_LOW
#undef MODE_HIGH

  /* update reference source for next ADC run */
  Cfg.Ref = ADC_REF_BANDGAP;       /* we've used the bandgap reference */
    45d6:	20 ec       	ldi	r18, 0xC0	; 192
    45d8:	20 93 a5 01 	sts	0x01A5, r18	; 0x8001a5 <Cfg+0x5>

  return R;
}
    45dc:	df 91       	pop	r29
    45de:	cf 91       	pop	r28
    45e0:	1f 91       	pop	r17
    45e2:	ff 90       	pop	r15
    45e4:	ef 90       	pop	r14
    45e6:	df 90       	pop	r13
    45e8:	cf 90       	pop	r12
    45ea:	bf 90       	pop	r11
    45ec:	af 90       	pop	r10
    45ee:	9f 90       	pop	r9
    45f0:	8f 90       	pop	r8
    45f2:	7f 90       	pop	r7
    45f4:	6f 90       	pop	r6
    45f6:	5f 90       	pop	r5
    45f8:	4f 90       	pop	r4
    45fa:	08 95       	ret

000045fc <CheckResistor>:
/*
 *  check for resistor
 */

void CheckResistor(void)
{
    45fc:	a0 e0       	ldi	r26, 0x00	; 0
    45fe:	b0 e0       	ldi	r27, 0x00	; 0
    4600:	e4 e0       	ldi	r30, 0x04	; 4
    4602:	f3 e2       	ldi	r31, 0x23	; 35
    4604:	0c 94 17 3f 	jmp	0x7e2e	; 0x7e2e <__prologue_saves__>
  uint16_t          U_Ri_H;        /* voltage at Ri oulled up */
  uint16_t          U_Ri_L;        /* voltage at Ri pulled down */
  uint16_t          U_Rh_H;        /* voltage at Rh pulled up */
  uint16_t          U_Rh_L;        /* voltage ar Rh pulled down */

  wdt_reset();                     /* reset watchdog */
    4608:	a8 95       	wdr
  /* 
   *  Charge possible capacitor and get voltages for Rl pulled up.
   */

  /*  set probes: Gnd -- probe-2 / probe-1 -- Rl -- Vcc */
  ADC_PORT = 0;                         /* set ADC port to low */
    460a:	18 b8       	out	0x08, r1	; 8
  ADC_DDR = Probes.Pin_2;               /* pull down probe-2 directly */
    460c:	80 91 d8 01 	lds	r24, 0x01D8	; 0x8001d8 <Probes+0xd>
    4610:	87 b9       	out	0x07, r24	; 7
  R_DDR = Probes.Rl_1;                  /* enable Rl for probe-1 */
    4612:	80 91 d1 01 	lds	r24, 0x01D1	; 0x8001d1 <Probes+0x6>
    4616:	84 b9       	out	0x04, r24	; 4
  R_PORT = Probes.Rl_1;                 /* pull up probe-1 via Rl */
    4618:	85 b9       	out	0x05, r24	; 5
  U_Ri_L = ReadU_5ms(Probes.Ch_2);      /* get voltage at internal R of MCU */
    461a:	80 91 db 01 	lds	r24, 0x01DB	; 0x8001db <Probes+0x10>
    461e:	0e 94 18 1c 	call	0x3830	; 0x3830 <ReadU_5ms>
    4622:	4c 01       	movw	r8, r24
  U_Rl_H = ReadU(Probes.Ch_1);          /* get voltage at Rl pulled up */
    4624:	80 91 da 01 	lds	r24, 0x01DA	; 0x8001da <Probes+0xf>
    4628:	0e 94 b7 1b 	call	0x376e	; 0x376e <ReadU>
    462c:	ec 01       	movw	r28, r24
  /*
   *  discharge possible capacitor
   */

  /* set probes: Gnd -- probe-2 / Gnd -- Rh -- probe-1 */
  R_PORT = 0;                           /* set resistor port low */
    462e:	15 b8       	out	0x05, r1	; 5
  R_DDR = Probes.Rh_1;                  /* pull down probe-1 via Rh */
    4630:	80 91 d4 01 	lds	r24, 0x01D4	; 0x8001d4 <Probes+0x9>
    4634:	84 b9       	out	0x04, r24	; 4
  U_Rh_L = ReadU_5ms(Probes.Ch_1);      /* get voltage at probe-1 */
    4636:	80 91 da 01 	lds	r24, 0x01DA	; 0x8001da <Probes+0xf>
    463a:	0e 94 18 1c 	call	0x3830	; 0x3830 <ReadU_5ms>

  /* we got a resistor if the voltage is near Gnd */
  if (U_Rh_L <= 20)
    463e:	45 97       	sbiw	r24, 0x15	; 21
    4640:	08 f0       	brcs	.+2      	; 0x4644 <CheckResistor+0x48>
    4642:	44 c2       	rjmp	.+1160   	; 0x4acc <CheckResistor+0x4d0>
    /*
     *  get voltage for Rh pulled up
     */

    /* set probes: Gnd -- probe-2 / probe-1 -- Rh -- Vcc */
    R_PORT = Probes.Rh_1;                    /* pull up probe-1 via Rh */
    4644:	80 91 d4 01 	lds	r24, 0x01D4	; 0x8001d4 <Probes+0x9>
    4648:	85 b9       	out	0x05, r24	; 5
    U_Rh_H = ReadU_5ms(Probes.Ch_1);         /* get voltage at Rh pulled up */
    464a:	80 91 da 01 	lds	r24, 0x01DA	; 0x8001da <Probes+0xf>
    464e:	0e 94 18 1c 	call	0x3830	; 0x3830 <ReadU_5ms>
    4652:	6c 01       	movw	r12, r24
    /*
     *  get voltage for Rl pulled down and Rh pulled down
     */

    /* set probes: Gnd -- Rl -- probe-2 / probe-1 -- Vcc */
    ADC_DDR = Probes.Pin_1;                  /* set probe-1 to output */
    4654:	80 91 d7 01 	lds	r24, 0x01D7	; 0x8001d7 <Probes+0xc>
    4658:	87 b9       	out	0x07, r24	; 7
    ADC_PORT = Probes.Pin_1;                 /* pull up probe-1 directly */
    465a:	88 b9       	out	0x08, r24	; 8
    R_PORT = 0;                              /* set resistor port to low */ 
    465c:	15 b8       	out	0x05, r1	; 5
    R_DDR = Probes.Rl_2;                     /* pull down probe-2 via Rl */
    465e:	80 91 d2 01 	lds	r24, 0x01D2	; 0x8001d2 <Probes+0x7>
    4662:	84 b9       	out	0x04, r24	; 4
    U_Ri_H = ReadU_5ms(Probes.Ch_1);         /* get voltage at internal R of MCU */
    4664:	80 91 da 01 	lds	r24, 0x01DA	; 0x8001da <Probes+0xf>
    4668:	0e 94 18 1c 	call	0x3830	; 0x3830 <ReadU_5ms>
    466c:	2c 01       	movw	r4, r24
    U_Rl_L = ReadU(Probes.Ch_2);             /* get voltage at Rl pulled down */
    466e:	80 91 db 01 	lds	r24, 0x01DB	; 0x8001db <Probes+0x10>
    4672:	0e 94 b7 1b 	call	0x376e	; 0x376e <ReadU>
    4676:	3c 01       	movw	r6, r24

    /* set probes: Gnd -- Rh -- probe-2 / probe-1 -- Vcc */
    R_DDR = Probes.Rh_2;                /* pull down probe-2 via Rh */
    4678:	80 91 d5 01 	lds	r24, 0x01D5	; 0x8001d5 <Probes+0xa>
    467c:	84 b9       	out	0x04, r24	; 4
    U_Rh_L = ReadU_5ms(Probes.Ch_2);    /* get voltage at Rh pulled down */
    467e:	80 91 db 01 	lds	r24, 0x01DB	; 0x8001db <Probes+0x10>
    4682:	0e 94 18 1c 	call	0x3830	; 0x3830 <ReadU_5ms>
    4686:	5c 01       	movw	r10, r24

    /* if voltage breakdown is sufficient */
    if ((U_Rl_H >= 4400) || (U_Rh_H <= 97))   /* R >= 5.1k or R < 9.3k */
    4688:	c0 33       	cpi	r28, 0x30	; 48
    468a:	21 e1       	ldi	r18, 0x11	; 17
    468c:	d2 07       	cpc	r29, r18
    468e:	28 f4       	brcc	.+10     	; 0x469a <CheckResistor+0x9e>
    4690:	32 e6       	ldi	r19, 0x62	; 98
    4692:	c3 16       	cp	r12, r19
    4694:	d1 04       	cpc	r13, r1
    4696:	38 f0       	brcs	.+14     	; 0x46a6 <CheckResistor+0xaa>
    4698:	19 c2       	rjmp	.+1074   	; 0x4acc <CheckResistor+0x4d0>
    {
      if (U_Rh_H < 4972)            /* R < 83.4M & prevent division by zero */
    469a:	4c e6       	ldi	r20, 0x6C	; 108
    469c:	c4 16       	cp	r12, r20
    469e:	43 e1       	ldi	r20, 0x13	; 19
    46a0:	d4 06       	cpc	r13, r20
    46a2:	08 f0       	brcs	.+2      	; 0x46a6 <CheckResistor+0xaa>
    46a4:	13 c2       	rjmp	.+1062   	; 0x4acc <CheckResistor+0x4d0>
        /* voltage breaks down with low test current and it is not nearly 
           shorted => resistor */

        Value = 0;                      /* reset value of resistor */

        if (U_Rl_L < 169)               /* R > 19.5k */
    46a6:	59 ea       	ldi	r21, 0xA9	; 169
    46a8:	65 16       	cp	r6, r21
    46aa:	71 04       	cpc	r7, r1
    46ac:	08 f0       	brcs	.+2      	; 0x46b0 <CheckResistor+0xb4>
    46ae:	70 c0       	rjmp	.+224    	; 0x4790 <CheckResistor+0x194>
          /*
           *  use measurements done with Rh
           */

          /* resistor is less than 60MOhm */
          if (U_Rh_L >= 38)        /* R < 61.4M & prevent division by zero */
    46b0:	86 e2       	ldi	r24, 0x26	; 38
    46b2:	a8 16       	cp	r10, r24
    46b4:	b1 04       	cpc	r11, r1
    46b6:	08 f4       	brcc	.+2      	; 0x46ba <CheckResistor+0xbe>
    46b8:	09 c2       	rjmp	.+1042   	; 0x4acc <CheckResistor+0x4d0>
             *  Or via voltage divider:
             *  R = Rh * (U_dut / U_Rh)
             *    = Rh * (U_Rh_H / (Vcc - U_Rh_H))
             */

            Value1 = R_HIGH * U_Rh_H;
    46ba:	d6 01       	movw	r26, r12
    46bc:	20 ef       	ldi	r18, 0xF0	; 240
    46be:	3b e2       	ldi	r19, 0x2B	; 43
    46c0:	47 e0       	ldi	r20, 0x07	; 7
    46c2:	50 e0       	ldi	r21, 0x00	; 0
    46c4:	0e 94 0c 3f 	call	0x7e18	; 0x7e18 <__muluhisi3>
            Value1 /= (Cfg.Vcc - U_Rh_H);
    46c8:	c0 91 a8 01 	lds	r28, 0x01A8	; 0x8001a8 <Cfg+0x8>
    46cc:	d0 91 a9 01 	lds	r29, 0x01A9	; 0x8001a9 <Cfg+0x9>
    46d0:	9e 01       	movw	r18, r28
    46d2:	2c 19       	sub	r18, r12
    46d4:	3d 09       	sbc	r19, r13
    46d6:	40 e0       	ldi	r20, 0x00	; 0
    46d8:	50 e0       	ldi	r21, 0x00	; 0
    46da:	0e 94 af 3e 	call	0x7d5e	; 0x7d5e <__udivmodsi4>
    46de:	29 01       	movw	r4, r18
    46e0:	3a 01       	movw	r6, r20
             *  Or via voltage divider:
             *  R = Rh * (U_R / U_Rh)
             *    = Rh * ((Vcc - U_Rh_L) / U_Rh_L)
             */

            Value2 = R_HIGH * (Cfg.Vcc - U_Rh_L);
    46e2:	de 01       	movw	r26, r28
    46e4:	aa 19       	sub	r26, r10
    46e6:	bb 09       	sbc	r27, r11
    46e8:	20 ef       	ldi	r18, 0xF0	; 240
    46ea:	3b e2       	ldi	r19, 0x2B	; 43
    46ec:	47 e0       	ldi	r20, 0x07	; 7
    46ee:	50 e0       	ldi	r21, 0x00	; 0
    46f0:	0e 94 0c 3f 	call	0x7e18	; 0x7e18 <__muluhisi3>
            Value2 /= U_Rh_L;
    46f4:	85 01       	movw	r16, r10
    46f6:	20 e0       	ldi	r18, 0x00	; 0
    46f8:	30 e0       	ldi	r19, 0x00	; 0
    46fa:	a9 01       	movw	r20, r18
    46fc:	98 01       	movw	r18, r16
    46fe:	0e 94 af 3e 	call	0x7d5e	; 0x7d5e <__udivmodsi4>
             *  calculate weighted average of both measurements
             *  - Voltages below the bandgap reference got a higher resolution
             *    (1.1mV instead of 4.9mV).
             */

            if (U_Rh_H < 990)           /* below bandgap reference / R < 117k5 */
    4702:	ee ed       	ldi	r30, 0xDE	; 222
    4704:	ce 16       	cp	r12, r30
    4706:	e3 e0       	ldi	r30, 0x03	; 3
    4708:	de 06       	cpc	r13, r30
    470a:	80 f4       	brcc	.+32     	; 0x472c <CheckResistor+0x130>
            {
              /* weighted average: (4*V1 + V2) / 5 */
              Value = Value1 * 4;
    470c:	d3 01       	movw	r26, r6
    470e:	c2 01       	movw	r24, r4
    4710:	d2 e0       	ldi	r29, 0x02	; 2
    4712:	88 0f       	add	r24, r24
    4714:	99 1f       	adc	r25, r25
    4716:	aa 1f       	adc	r26, r26
    4718:	bb 1f       	adc	r27, r27
    471a:	da 95       	dec	r29
    471c:	d1 f7       	brne	.-12     	; 0x4712 <CheckResistor+0x116>
              Value += Value2;
    471e:	bc 01       	movw	r22, r24
    4720:	cd 01       	movw	r24, r26
    4722:	62 0f       	add	r22, r18
    4724:	73 1f       	adc	r23, r19
    4726:	84 1f       	adc	r24, r20
    4728:	95 1f       	adc	r25, r21
    472a:	14 c0       	rjmp	.+40     	; 0x4754 <CheckResistor+0x158>
              Value /= 5;
            }
            else if (U_Rh_L < 990)      /* below bandgap reference / R > 1M88 */
    472c:	fe ed       	ldi	r31, 0xDE	; 222
    472e:	af 16       	cp	r10, r31
    4730:	f3 e0       	ldi	r31, 0x03	; 3
    4732:	bf 06       	cpc	r11, r31
    4734:	b0 f4       	brcc	.+44     	; 0x4762 <CheckResistor+0x166>
            {
              /* weighted average: (4*V2 + V1) / 5 */
              Value = Value2 * 4;
    4736:	da 01       	movw	r26, r20
    4738:	c9 01       	movw	r24, r18
    473a:	c2 e0       	ldi	r28, 0x02	; 2
    473c:	88 0f       	add	r24, r24
    473e:	99 1f       	adc	r25, r25
    4740:	aa 1f       	adc	r26, r26
    4742:	bb 1f       	adc	r27, r27
    4744:	ca 95       	dec	r28
    4746:	d1 f7       	brne	.-12     	; 0x473c <CheckResistor+0x140>
              Value += Value1;
    4748:	bc 01       	movw	r22, r24
    474a:	cd 01       	movw	r24, r26
    474c:	64 0d       	add	r22, r4
    474e:	75 1d       	adc	r23, r5
    4750:	86 1d       	adc	r24, r6
    4752:	97 1d       	adc	r25, r7
              Value /= 5;
    4754:	25 e0       	ldi	r18, 0x05	; 5
    4756:	30 e0       	ldi	r19, 0x00	; 0
    4758:	40 e0       	ldi	r20, 0x00	; 0
    475a:	50 e0       	ldi	r21, 0x00	; 0
    475c:	0e 94 af 3e 	call	0x7d5e	; 0x7d5e <__udivmodsi4>
    4760:	0c c0       	rjmp	.+24     	; 0x477a <CheckResistor+0x17e>
            }
            else                        /* above bandgap reference */
            {
              /* classic average: (V1 + V2) / 2 */
              Value = (Value1 + Value2) / 2;
    4762:	d3 01       	movw	r26, r6
    4764:	c2 01       	movw	r24, r4
    4766:	82 0f       	add	r24, r18
    4768:	93 1f       	adc	r25, r19
    476a:	a4 1f       	adc	r26, r20
    476c:	b5 1f       	adc	r27, r21
    476e:	9c 01       	movw	r18, r24
    4770:	ad 01       	movw	r20, r26
    4772:	56 95       	lsr	r21
    4774:	47 95       	ror	r20
    4776:	37 95       	ror	r19
    4778:	27 95       	ror	r18
            }

            Value += RH_OFFSET;         /* add offset value for measurement with Rh */
    477a:	22 5a       	subi	r18, 0xA2	; 162
    477c:	3e 4f       	sbci	r19, 0xFE	; 254
    477e:	4f 4f       	sbci	r20, 0xFF	; 255
    4780:	5f 4f       	sbci	r21, 0xFF	; 255
            Value *= 10;                /* upscale to 0.1 Ohms */
    4782:	aa e0       	ldi	r26, 0x0A	; 10
    4784:	b0 e0       	ldi	r27, 0x00	; 0
    4786:	0e 94 0c 3f 	call	0x7e18	; 0x7e18 <__muluhisi3>
    478a:	4b 01       	movw	r8, r22
    478c:	5c 01       	movw	r10, r24
    478e:	b3 c0       	rjmp	.+358    	; 0x48f6 <CheckResistor+0x2fa>
          /*
           *  use measurements done with Rl
           */

          /* voltage below DUT can't be higher than above DUT */
          if ((U_Rl_H >= U_Ri_L) && (U_Ri_H >= U_Rl_L))
    4790:	c8 15       	cp	r28, r8
    4792:	d9 05       	cpc	r29, r9
    4794:	08 f4       	brcc	.+2      	; 0x4798 <CheckResistor+0x19c>
    4796:	83 c0       	rjmp	.+262    	; 0x489e <CheckResistor+0x2a2>
    4798:	46 14       	cp	r4, r6
    479a:	57 04       	cpc	r5, r7
    479c:	08 f4       	brcc	.+2      	; 0x47a0 <CheckResistor+0x1a4>
    479e:	7f c0       	rjmp	.+254    	; 0x489e <CheckResistor+0x2a2>
             *  Or via voltage divider:
             *  R = (Rl + RiH) * (U_R_RiL / U_Rl_RiH) - RiL
             *    = (Rl + RiH) * (U_R_RiL / (Vcc - U_R_RiL)) - RiL
             */

            if (U_Rl_H == Cfg.Vcc)      /* prevent division by zero */
    47a0:	40 91 a8 01 	lds	r20, 0x01A8	; 0x8001a8 <Cfg+0x8>
    47a4:	50 91 a9 01 	lds	r21, 0x01A9	; 0x8001a9 <Cfg+0x9>
    47a8:	c4 17       	cp	r28, r20
    47aa:	d5 07       	cpc	r29, r21
    47ac:	09 f4       	brne	.+2      	; 0x47b0 <CheckResistor+0x1b4>
            {
              U_Rl_H = Cfg.Vcc - 1;
    47ae:	21 97       	sbiw	r28, 0x01	; 1
            }

            Value1 = (R_LOW * 10) + NV.RiH;       /* Rl + RiH in 0.1 Ohm */
    47b0:	20 91 df 01 	lds	r18, 0x01DF	; 0x8001df <NV+0x2>
    47b4:	30 91 e0 01 	lds	r19, 0x01E0	; 0x8001e0 <NV+0x3>
    47b8:	20 57       	subi	r18, 0x70	; 112
    47ba:	35 4e       	sbci	r19, 0xE5	; 229
            Value1 *= (U_Rl_H - U_Ri_L);
    47bc:	de 01       	movw	r26, r28
    47be:	a8 19       	sub	r26, r8
    47c0:	b9 09       	sbc	r27, r9
    47c2:	0e 94 f6 3e 	call	0x7dec	; 0x7dec <__umulhisi3>
            Value1 /= (Cfg.Vcc - U_Rl_H);
    47c6:	9a 01       	movw	r18, r20
    47c8:	2c 1b       	sub	r18, r28
    47ca:	3d 0b       	sbc	r19, r29
    47cc:	40 e0       	ldi	r20, 0x00	; 0
    47ce:	50 e0       	ldi	r21, 0x00	; 0
    47d0:	0e 94 af 3e 	call	0x7d5e	; 0x7d5e <__udivmodsi4>
    47d4:	49 01       	movw	r8, r18
    47d6:	5a 01       	movw	r10, r20
             *  Or via voltage divider:
             *  R = (Rl + RiL) * (U_R_RiH / U_Rl_RiL) - RiH
             *    = (Rl + RiL) * ((Vcc - U_Rl_RiL) / U_Rl_RiL) - RiH
             */

            Value2 = (R_LOW * 10) + NV.RiL;       /* Rl + RiL in 0.1 Ohms */
    47d8:	20 91 dd 01 	lds	r18, 0x01DD	; 0x8001dd <NV>
    47dc:	30 91 de 01 	lds	r19, 0x01DE	; 0x8001de <NV+0x1>
    47e0:	20 57       	subi	r18, 0x70	; 112
    47e2:	35 4e       	sbci	r19, 0xE5	; 229
            Value2 *= (U_Ri_H - U_Rl_L);
    47e4:	d2 01       	movw	r26, r4
    47e6:	a6 19       	sub	r26, r6
    47e8:	b7 09       	sbc	r27, r7
    47ea:	0e 94 f6 3e 	call	0x7dec	; 0x7dec <__umulhisi3>
            Value2 /= U_Rl_L;
    47ee:	83 01       	movw	r16, r6
    47f0:	20 e0       	ldi	r18, 0x00	; 0
    47f2:	30 e0       	ldi	r19, 0x00	; 0
    47f4:	a9 01       	movw	r20, r18
    47f6:	98 01       	movw	r18, r16
    47f8:	0e 94 af 3e 	call	0x7d5e	; 0x7d5e <__udivmodsi4>
             *  calculate weighted average of both measurements
             *  - Voltages below the bandgap reference got a higher resolution
             *    (1.1mV instead of 4.9mV).
             */

            if (U_Rl_H < 990)           /* below bandgap reference / R < 170 */
    47fc:	ce 3d       	cpi	r28, 0xDE	; 222
    47fe:	d3 40       	sbci	r29, 0x03	; 3
    4800:	80 f4       	brcc	.+32     	; 0x4822 <CheckResistor+0x226>
            {
              /* weighted average: (4*V1 + V2) / 5 */
              Value = Value1 * 4;
    4802:	d5 01       	movw	r26, r10
    4804:	c4 01       	movw	r24, r8
    4806:	f2 e0       	ldi	r31, 0x02	; 2
    4808:	88 0f       	add	r24, r24
    480a:	99 1f       	adc	r25, r25
    480c:	aa 1f       	adc	r26, r26
    480e:	bb 1f       	adc	r27, r27
    4810:	fa 95       	dec	r31
    4812:	d1 f7       	brne	.-12     	; 0x4808 <CheckResistor+0x20c>
              Value += Value2;
    4814:	bc 01       	movw	r22, r24
    4816:	cd 01       	movw	r24, r26
    4818:	62 0f       	add	r22, r18
    481a:	73 1f       	adc	r23, r19
    481c:	84 1f       	adc	r24, r20
    481e:	95 1f       	adc	r25, r21
    4820:	1b c0       	rjmp	.+54     	; 0x4858 <CheckResistor+0x25c>
              Value /= 5;
            }
            else if (U_Rl_L < 990)      /* below bandgap reference / R > 2k7 */
    4822:	ee ed       	ldi	r30, 0xDE	; 222
    4824:	6e 16       	cp	r6, r30
    4826:	e3 e0       	ldi	r30, 0x03	; 3
    4828:	7e 06       	cpc	r7, r30
    482a:	60 f5       	brcc	.+88     	; 0x4884 <CheckResistor+0x288>
            {
              /* weighted average */
              if (Value2 < 75000)       /* R < 7k5 */
    482c:	28 3f       	cpi	r18, 0xF8	; 248
    482e:	f4 e2       	ldi	r31, 0x24	; 36
    4830:	3f 07       	cpc	r19, r31
    4832:	f1 e0       	ldi	r31, 0x01	; 1
    4834:	4f 07       	cpc	r20, r31
    4836:	51 05       	cpc	r21, r1
    4838:	a0 f4       	brcc	.+40     	; 0x4862 <CheckResistor+0x266>
              {
                /* weighted average: (4*V1 + V2) / 5 */
                Value = Value2 * 4;
    483a:	da 01       	movw	r26, r20
    483c:	c9 01       	movw	r24, r18
    483e:	e2 e0       	ldi	r30, 0x02	; 2
    4840:	88 0f       	add	r24, r24
    4842:	99 1f       	adc	r25, r25
    4844:	aa 1f       	adc	r26, r26
    4846:	bb 1f       	adc	r27, r27
    4848:	ea 95       	dec	r30
    484a:	d1 f7       	brne	.-12     	; 0x4840 <CheckResistor+0x244>
                Value += Value1;
    484c:	bc 01       	movw	r22, r24
    484e:	cd 01       	movw	r24, r26
    4850:	68 0d       	add	r22, r8
    4852:	79 1d       	adc	r23, r9
    4854:	8a 1d       	adc	r24, r10
    4856:	9b 1d       	adc	r25, r11
                Value /= 5;
    4858:	25 e0       	ldi	r18, 0x05	; 5
    485a:	30 e0       	ldi	r19, 0x00	; 0
    485c:	40 e0       	ldi	r20, 0x00	; 0
    485e:	50 e0       	ldi	r21, 0x00	; 0
    4860:	0c c0       	rjmp	.+24     	; 0x487a <CheckResistor+0x27e>
              }
              else                      /* R >= 7k5 */
              {
                /* weighted average: (9*V2 + V1) / 10 */
                Value = Value2 * 8;
                Value += Value2;
    4862:	a9 e0       	ldi	r26, 0x09	; 9
    4864:	b0 e0       	ldi	r27, 0x00	; 0
    4866:	0e 94 0c 3f 	call	0x7e18	; 0x7e18 <__muluhisi3>
                Value += Value1;
    486a:	68 0d       	add	r22, r8
    486c:	79 1d       	adc	r23, r9
    486e:	8a 1d       	adc	r24, r10
    4870:	9b 1d       	adc	r25, r11
                Value /= 10;
    4872:	2a e0       	ldi	r18, 0x0A	; 10
    4874:	30 e0       	ldi	r19, 0x00	; 0
    4876:	40 e0       	ldi	r20, 0x00	; 0
    4878:	50 e0       	ldi	r21, 0x00	; 0
    487a:	0e 94 af 3e 	call	0x7d5e	; 0x7d5e <__udivmodsi4>
    487e:	49 01       	movw	r8, r18
    4880:	5a 01       	movw	r10, r20
    4882:	39 c0       	rjmp	.+114    	; 0x48f6 <CheckResistor+0x2fa>
              }
            }
            else                        /* above bandgap reference */
            {
              /* classic average: (V1 + V2) / 2 */
              Value = (Value1 + Value2) / 2;
    4884:	d5 01       	movw	r26, r10
    4886:	c4 01       	movw	r24, r8
    4888:	82 0f       	add	r24, r18
    488a:	93 1f       	adc	r25, r19
    488c:	a4 1f       	adc	r26, r20
    488e:	b5 1f       	adc	r27, r21
    4890:	4c 01       	movw	r8, r24
    4892:	5d 01       	movw	r10, r26
    4894:	b6 94       	lsr	r11
    4896:	a7 94       	ror	r10
    4898:	97 94       	ror	r9
    489a:	87 94       	ror	r8
    489c:	2c c0       	rjmp	.+88     	; 0x48f6 <CheckResistor+0x2fa>
            }
          }
          else      /* may happen for very low resistances */
          {
            if (U_Rl_L > 4750)     /* U_Rl_L: R < 15 Ohms */
    489e:	2f e8       	ldi	r18, 0x8F	; 143
    48a0:	62 16       	cp	r6, r18
    48a2:	22 e1       	ldi	r18, 0x12	; 18
    48a4:	72 06       	cpc	r7, r18
    48a6:	08 f0       	brcs	.+2      	; 0x48aa <CheckResistor+0x2ae>
    48a8:	01 c1       	rjmp	.+514    	; 0x4aac <CheckResistor+0x4b0>
           */

          if (Value < 100UL)            /* < 10 Ohms */
          {
            /* run low resistance measurement (in 0.01 Ohms) */
            Value2 = (uint32_t)SmallResistor(1);
    48aa:	81 e0       	ldi	r24, 0x01	; 1
    48ac:	0e 94 32 22 	call	0x4464	; 0x4464 <SmallResistor>
    48b0:	2c 01       	movw	r4, r24
    48b2:	61 2c       	mov	r6, r1
    48b4:	71 2c       	mov	r7, r1
      if (U_Rh_H < 4972)            /* R < 83.4M & prevent division by zero */
      {
        /* voltage breaks down with low test current and it is not nearly 
           shorted => resistor */

        Value = 0;                      /* reset value of resistor */
    48b6:	81 2c       	mov	r8, r1
    48b8:	91 2c       	mov	r9, r1
    48ba:	54 01       	movw	r10, r8
          {
            /* run low resistance measurement (in 0.01 Ohms) */
            Value2 = (uint32_t)SmallResistor(1);

            /* check for valid result */
            Value1 = Value * 2;         /* allow 100% tolerance */
    48bc:	20 e0       	ldi	r18, 0x00	; 0
    48be:	30 e0       	ldi	r19, 0x00	; 0
    48c0:	a9 01       	movw	r20, r18
            if (Value < 5UL)            /* <0.5 Ohms */
            {
              Value1 += Value;          /* incresae to 200% */
    48c2:	28 0d       	add	r18, r8
    48c4:	39 1d       	adc	r19, r9
    48c6:	4a 1d       	adc	r20, r10
    48c8:	5b 1d       	adc	r21, r11
            }
            Value1 *= 10;               /* re-scale to 0.01 Ohms */
    48ca:	aa e0       	ldi	r26, 0x0A	; 10
    48cc:	b0 e0       	ldi	r27, 0x00	; 0
    48ce:	0e 94 0c 3f 	call	0x7e18	; 0x7e18 <__muluhisi3>

            if (Value1 == 0)            /* if limit is 0 */ 
    48d2:	61 15       	cp	r22, r1
    48d4:	71 05       	cpc	r23, r1
    48d6:	81 05       	cpc	r24, r1
    48d8:	91 05       	cpc	r25, r1
    48da:	21 f4       	brne	.+8      	; 0x48e4 <CheckResistor+0x2e8>
            {
              Value1 = 100;             /* use 1 Ohm */
    48dc:	64 e6       	ldi	r22, 0x64	; 100
    48de:	70 e0       	ldi	r23, 0x00	; 0
    48e0:	80 e0       	ldi	r24, 0x00	; 0
    48e2:	90 e0       	ldi	r25, 0x00	; 0
            }

            if (Value1 > Value2)        /* got expected value */
    48e4:	46 16       	cp	r4, r22
    48e6:	57 06       	cpc	r5, r23
    48e8:	68 06       	cpc	r6, r24
    48ea:	79 06       	cpc	r7, r25
    48ec:	58 f4       	brcc	.+22     	; 0x4904 <CheckResistor+0x308>
    48ee:	53 01       	movw	r10, r6
    48f0:	42 01       	movw	r8, r4
            {
              Value = Value2;           /* take new value */
              Scale = -2;               /* in 0.01 Ohms */
    48f2:	ce ef       	ldi	r28, 0xFE	; 254
    48f4:	08 c0       	rjmp	.+16     	; 0x4906 <CheckResistor+0x30a>

          /*
           *  measure small resistor <10 Ohms with special method
           */

          if (Value < 100UL)            /* < 10 Ohms */
    48f6:	34 e6       	ldi	r19, 0x64	; 100
    48f8:	83 16       	cp	r8, r19
    48fa:	91 04       	cpc	r9, r1
    48fc:	a1 04       	cpc	r10, r1
    48fe:	b1 04       	cpc	r11, r1
    4900:	08 f4       	brcc	.+2      	; 0x4904 <CheckResistor+0x308>
    4902:	c0 c0       	rjmp	.+384    	; 0x4a84 <CheckResistor+0x488>
         *  process results of the resistance measurement
         */

        if (Compare == 1)          /* valid measurement */
        {
          Scale = -1;              /* 0.1 Ohms by default */
    4904:	cf ef       	ldi	r28, 0xFF	; 255

              /* check if value matches the given tolerance */
              if ((CmpValue(Resistor->Value, Resistor->Scale, Value1, Scale) >= 0) &&
                  (CmpValue(Resistor->Value, Resistor->Scale, Value2, Scale) <= 0))
              {
                n = 100;                     /* end loop and signal match */
    4906:	80 e0       	ldi	r24, 0x00	; 0
          n = 0;
          while (n < Check.Resistors)           /* loop through resistors */
          {
            Resistor = &Resistors[n];           /* pointer to element */

            if ((Resistor->A == Probes.ID_1) && (Resistor->B == Probes.ID_2))
    4908:	d7 e0       	ldi	r29, 0x07	; 7
              /* check if value matches the given tolerance */
              if ((CmpValue(Resistor->Value, Resistor->Scale, Value1, Scale) >= 0) &&
                  (CmpValue(Resistor->Value, Resistor->Scale, Value2, Scale) <= 0))
              {
                n = 100;                     /* end loop and signal match */
                Check.Found = COMP_RESISTOR;
    490a:	2a e0       	ldi	r18, 0x0A	; 10
    490c:	f2 2e       	mov	r15, r18
          /*
           *  check for measurement in reversed direction
           */

          n = 0;
          while (n < Check.Resistors)           /* loop through resistors */
    490e:	90 91 0a 01 	lds	r25, 0x010A	; 0x80010a <__data_end+0x4>
    4912:	89 17       	cp	r24, r25
    4914:	08 f0       	brcs	.+2      	; 0x4918 <CheckResistor+0x31c>
    4916:	9d c0       	rjmp	.+314    	; 0x4a52 <CheckResistor+0x456>
          {
            Resistor = &Resistors[n];           /* pointer to element */
    4918:	68 2e       	mov	r6, r24
    491a:	71 2c       	mov	r7, r1

            if ((Resistor->A == Probes.ID_1) && (Resistor->B == Probes.ID_2))
    491c:	d6 9d       	mul	r29, r6
    491e:	90 01       	movw	r18, r0
    4920:	d7 9d       	mul	r29, r7
    4922:	30 0d       	add	r19, r0
    4924:	11 24       	eor	r1, r1
    4926:	f9 01       	movw	r30, r18
    4928:	ef 5e       	subi	r30, 0xEF	; 239
    492a:	fe 4f       	sbci	r31, 0xFE	; 254
    492c:	6f 01       	movw	r12, r30
    492e:	20 81       	ld	r18, Z
    4930:	90 91 cb 01 	lds	r25, 0x01CB	; 0x8001cb <Probes>
    4934:	29 13       	cpse	r18, r25
    4936:	89 c0       	rjmp	.+274    	; 0x4a4a <CheckResistor+0x44e>
    4938:	21 81       	ldd	r18, Z+1	; 0x01
    493a:	90 91 cc 01 	lds	r25, 0x01CC	; 0x8001cc <Probes+0x1>
    493e:	29 13       	cpse	r18, r25
    4940:	84 c0       	rjmp	.+264    	; 0x4a4a <CheckResistor+0x44e>
              /*
               *  check if the reverse measurement is within a specific tolerance
               */

              /* set lower and upper tolerance limits */
              if (CmpValue(Value, Scale, 2, 0) == -1)  /* < 2 Ohms */
    4942:	e1 2c       	mov	r14, r1
    4944:	02 e0       	ldi	r16, 0x02	; 2
    4946:	10 e0       	ldi	r17, 0x00	; 0
    4948:	20 e0       	ldi	r18, 0x00	; 0
    494a:	30 e0       	ldi	r19, 0x00	; 0
    494c:	4c 2f       	mov	r20, r28
    494e:	c5 01       	movw	r24, r10
    4950:	b4 01       	movw	r22, r8
    4952:	0e 94 fd 12 	call	0x25fa	; 0x25fa <CmpValue>
    4956:	8f 3f       	cpi	r24, 0xFF	; 255
    4958:	09 f0       	breq	.+2      	; 0x495c <CheckResistor+0x360>
    495a:	3f c0       	rjmp	.+126    	; 0x49da <CheckResistor+0x3de>
              {
                /* if reverse measurement is also < 2 Ohms */
                if (CmpValue(Resistor->Value, Resistor->Scale, 2, 0) == -1)
    495c:	f6 01       	movw	r30, r12
    495e:	63 81       	ldd	r22, Z+3	; 0x03
    4960:	74 81       	ldd	r23, Z+4	; 0x04
    4962:	85 81       	ldd	r24, Z+5	; 0x05
    4964:	96 81       	ldd	r25, Z+6	; 0x06
    4966:	02 e0       	ldi	r16, 0x02	; 2
    4968:	10 e0       	ldi	r17, 0x00	; 0
    496a:	20 e0       	ldi	r18, 0x00	; 0
    496c:	30 e0       	ldi	r19, 0x00	; 0
    496e:	42 81       	ldd	r20, Z+2	; 0x02
    4970:	0e 94 fd 12 	call	0x25fa	; 0x25fa <CmpValue>
    4974:	8f 3f       	cpi	r24, 0xFF	; 255
    4976:	51 f5       	brne	.+84     	; 0x49cc <CheckResistor+0x3d0>
                {
                  /* cope with possible probe contact issues */
                  if (Resistor->Scale == Scale)   /* same method */
    4978:	f6 01       	movw	r30, r12
    497a:	42 81       	ldd	r20, Z+2	; 0x02
    497c:	c4 17       	cp	r28, r20
    497e:	19 f0       	breq	.+6      	; 0x4986 <CheckResistor+0x38a>
                    Compare = 1;
                  }
                  else                            /* different method */
                  {
                    /* use lower value */
                    Compare = -1;
    4980:	55 24       	eor	r5, r5
    4982:	5a 94       	dec	r5
    4984:	02 c0       	rjmp	.+4      	; 0x498a <CheckResistor+0x38e>
                {
                  /* cope with possible probe contact issues */
                  if (Resistor->Scale == Scale)   /* same method */
                  {
                    /* use larger value */
                    Compare = 1;
    4986:	55 24       	eor	r5, r5
    4988:	53 94       	inc	r5
                  {
                    /* use lower value */
                    Compare = -1;
                  }

                  if (CmpValue(Resistor->Value, Resistor->Scale, Value, Scale) == Compare)
    498a:	d6 9d       	mul	r29, r6
    498c:	c0 01       	movw	r24, r0
    498e:	d7 9d       	mul	r29, r7
    4990:	90 0d       	add	r25, r0
    4992:	11 24       	eor	r1, r1
    4994:	9c 01       	movw	r18, r24
    4996:	2f 5e       	subi	r18, 0xEF	; 239
    4998:	3e 4f       	sbci	r19, 0xFE	; 254
    499a:	69 01       	movw	r12, r18
    499c:	f9 01       	movw	r30, r18
    499e:	63 81       	ldd	r22, Z+3	; 0x03
    49a0:	74 81       	ldd	r23, Z+4	; 0x04
    49a2:	85 81       	ldd	r24, Z+5	; 0x05
    49a4:	96 81       	ldd	r25, Z+6	; 0x06
    49a6:	ec 2e       	mov	r14, r28
    49a8:	95 01       	movw	r18, r10
    49aa:	84 01       	movw	r16, r8
    49ac:	0e 94 fd 12 	call	0x25fa	; 0x25fa <CmpValue>
                  {
                    /* use reverse measurement */
                    Value = Resistor->Value;
    49b0:	f6 01       	movw	r30, r12
                  {
                    /* use lower value */
                    Compare = -1;
                  }

                  if (CmpValue(Resistor->Value, Resistor->Scale, Value, Scale) == Compare)
    49b2:	58 12       	cpse	r5, r24
    49b4:	06 c0       	rjmp	.+12     	; 0x49c2 <CheckResistor+0x3c6>
                  {
                    /* use reverse measurement */
                    Value = Resistor->Value;
    49b6:	83 80       	ldd	r8, Z+3	; 0x03
    49b8:	94 80       	ldd	r9, Z+4	; 0x04
    49ba:	a5 80       	ldd	r10, Z+5	; 0x05
    49bc:	b6 80       	ldd	r11, Z+6	; 0x06
                    Scale = Resistor->Scale;
    49be:	c2 81       	ldd	r28, Z+2	; 0x02
    49c0:	05 c0       	rjmp	.+10     	; 0x49cc <CheckResistor+0x3d0>
                  }
                  else
                  {
                    /* use this measurement */
                    Resistor->Value = Value;
    49c2:	83 82       	std	Z+3, r8	; 0x03
    49c4:	94 82       	std	Z+4, r9	; 0x04
    49c6:	a5 82       	std	Z+5, r10	; 0x05
    49c8:	b6 82       	std	Z+6, r11	; 0x06
                    Resistor->Scale = Scale;
    49ca:	c2 83       	std	Z+2, r28	; 0x02
                  }
                }

                Temp = Value / 2;            /* 50% */
    49cc:	14 01       	movw	r2, r8
    49ce:	25 01       	movw	r4, r10
    49d0:	56 94       	lsr	r5
    49d2:	47 94       	ror	r4
    49d4:	37 94       	ror	r3
    49d6:	27 94       	ror	r2
    49d8:	0a c0       	rjmp	.+20     	; 0x49ee <CheckResistor+0x3f2>
              }
              else                                     /* >= 2 Ohms */
              {
                Temp = Value / 20;           /* 5% */
    49da:	c5 01       	movw	r24, r10
    49dc:	b4 01       	movw	r22, r8
    49de:	24 e1       	ldi	r18, 0x14	; 20
    49e0:	30 e0       	ldi	r19, 0x00	; 0
    49e2:	40 e0       	ldi	r20, 0x00	; 0
    49e4:	50 e0       	ldi	r21, 0x00	; 0
    49e6:	0e 94 af 3e 	call	0x7d5e	; 0x7d5e <__udivmodsi4>
    49ea:	19 01       	movw	r2, r18
    49ec:	2a 01       	movw	r4, r20

              Value1 = Value - Temp;         /* 95% or 50% */
              Value2 = Value + Temp;         /* 105% or 150% */

              /* check if value matches the given tolerance */
              if ((CmpValue(Resistor->Value, Resistor->Scale, Value1, Scale) >= 0) &&
    49ee:	d6 9d       	mul	r29, r6
    49f0:	c0 01       	movw	r24, r0
    49f2:	d7 9d       	mul	r29, r7
    49f4:	90 0d       	add	r25, r0
    49f6:	11 24       	eor	r1, r1
    49f8:	9c 01       	movw	r18, r24
    49fa:	2f 5e       	subi	r18, 0xEF	; 239
    49fc:	3e 4f       	sbci	r19, 0xFE	; 254
    49fe:	69 01       	movw	r12, r18
    4a00:	f9 01       	movw	r30, r18
    4a02:	63 81       	ldd	r22, Z+3	; 0x03
    4a04:	74 81       	ldd	r23, Z+4	; 0x04
    4a06:	85 81       	ldd	r24, Z+5	; 0x05
    4a08:	96 81       	ldd	r25, Z+6	; 0x06
    4a0a:	ec 2e       	mov	r14, r28
    4a0c:	95 01       	movw	r18, r10
    4a0e:	84 01       	movw	r16, r8
    4a10:	02 19       	sub	r16, r2
    4a12:	13 09       	sbc	r17, r3
    4a14:	24 09       	sbc	r18, r4
    4a16:	35 09       	sbc	r19, r5
    4a18:	42 81       	ldd	r20, Z+2	; 0x02
    4a1a:	0e 94 fd 12 	call	0x25fa	; 0x25fa <CmpValue>
    4a1e:	87 fd       	sbrc	r24, 7
    4a20:	16 c0       	rjmp	.+44     	; 0x4a4e <CheckResistor+0x452>
                  (CmpValue(Resistor->Value, Resistor->Scale, Value2, Scale) <= 0))
    4a22:	95 01       	movw	r18, r10
    4a24:	84 01       	movw	r16, r8
    4a26:	02 0d       	add	r16, r2
    4a28:	13 1d       	adc	r17, r3
    4a2a:	24 1d       	adc	r18, r4
    4a2c:	35 1d       	adc	r19, r5
    4a2e:	f6 01       	movw	r30, r12
    4a30:	63 81       	ldd	r22, Z+3	; 0x03
    4a32:	74 81       	ldd	r23, Z+4	; 0x04
    4a34:	85 81       	ldd	r24, Z+5	; 0x05
    4a36:	96 81       	ldd	r25, Z+6	; 0x06
    4a38:	42 81       	ldd	r20, Z+2	; 0x02
    4a3a:	0e 94 fd 12 	call	0x25fa	; 0x25fa <CmpValue>

              Value1 = Value - Temp;         /* 95% or 50% */
              Value2 = Value + Temp;         /* 105% or 150% */

              /* check if value matches the given tolerance */
              if ((CmpValue(Resistor->Value, Resistor->Scale, Value1, Scale) >= 0) &&
    4a3e:	18 16       	cp	r1, r24
    4a40:	34 f0       	brlt	.+12     	; 0x4a4e <CheckResistor+0x452>
                  (CmpValue(Resistor->Value, Resistor->Scale, Value2, Scale) <= 0))
              {
                n = 100;                     /* end loop and signal match */
                Check.Found = COMP_RESISTOR;
    4a42:	f0 92 06 01 	sts	0x0106, r15	; 0x800106 <__data_end>

              /* check if value matches the given tolerance */
              if ((CmpValue(Resistor->Value, Resistor->Scale, Value1, Scale) >= 0) &&
                  (CmpValue(Resistor->Value, Resistor->Scale, Value2, Scale) <= 0))
              {
                n = 100;                     /* end loop and signal match */
    4a46:	84 e6       	ldi	r24, 0x64	; 100
                Check.Found = COMP_RESISTOR;
    4a48:	62 cf       	rjmp	.-316    	; 0x490e <CheckResistor+0x312>
                n = 200;                     /* end loop and signal mis-match */
              }
            }
            else                             /* no match */
            {
              n++;                           /* next one */
    4a4a:	8f 5f       	subi	r24, 0xFF	; 255
    4a4c:	60 cf       	rjmp	.-320    	; 0x490e <CheckResistor+0x312>
                n = 100;                     /* end loop and signal match */
                Check.Found = COMP_RESISTOR;
              }
              else                 /* no match */
              {
                n = 200;                     /* end loop and signal mis-match */
    4a4e:	88 ec       	ldi	r24, 0xC8	; 200
    4a50:	5e cf       	rjmp	.-324    	; 0x490e <CheckResistor+0x312>

          /*
           *  we got a new resistor
           */

          if (n != 100)            /* not a known resistor */
    4a52:	84 36       	cpi	r24, 0x64	; 100
    4a54:	d9 f1       	breq	.+118    	; 0x4acc <CheckResistor+0x4d0>
          {
            if (Check.Resistors < 3)              /* prevent array overflow */
    4a56:	93 30       	cpi	r25, 0x03	; 3
    4a58:	c8 f5       	brcc	.+114    	; 0x4acc <CheckResistor+0x4d0>
            {
              /* save data */
              Resistor = &Resistors[Check.Resistors];  /* unused dataset */
              Resistor->A = Probes.ID_2;               /* pin facing Gnd */
    4a5a:	27 e0       	ldi	r18, 0x07	; 7
    4a5c:	92 9f       	mul	r25, r18
    4a5e:	f0 01       	movw	r30, r0
    4a60:	11 24       	eor	r1, r1
    4a62:	ef 5e       	subi	r30, 0xEF	; 239
    4a64:	fe 4f       	sbci	r31, 0xFE	; 254
    4a66:	80 91 cc 01 	lds	r24, 0x01CC	; 0x8001cc <Probes+0x1>
    4a6a:	80 83       	st	Z, r24
              Resistor->B = Probes.ID_1;               /* pin facing Vcc */
    4a6c:	80 91 cb 01 	lds	r24, 0x01CB	; 0x8001cb <Probes>
    4a70:	81 83       	std	Z+1, r24	; 0x01
              Resistor->Value = Value;
    4a72:	83 82       	std	Z+3, r8	; 0x03
    4a74:	94 82       	std	Z+4, r9	; 0x04
    4a76:	a5 82       	std	Z+5, r10	; 0x05
    4a78:	b6 82       	std	Z+6, r11	; 0x06
              Resistor->Scale = Scale;
    4a7a:	c2 83       	std	Z+2, r28	; 0x02
              Check.Resistors++;                       /* another one found */
    4a7c:	9f 5f       	subi	r25, 0xFF	; 255
    4a7e:	90 93 0a 01 	sts	0x010A, r25	; 0x80010a <__data_end+0x4>
          }
        }
      }
    }
  }
}
    4a82:	24 c0       	rjmp	.+72     	; 0x4acc <CheckResistor+0x4d0>
           */

          if (Value < 100UL)            /* < 10 Ohms */
          {
            /* run low resistance measurement (in 0.01 Ohms) */
            Value2 = (uint32_t)SmallResistor(1);
    4a84:	81 e0       	ldi	r24, 0x01	; 1
    4a86:	0e 94 32 22 	call	0x4464	; 0x4464 <SmallResistor>
    4a8a:	2c 01       	movw	r4, r24
    4a8c:	61 2c       	mov	r6, r1
    4a8e:	71 2c       	mov	r7, r1

            /* check for valid result */
            Value1 = Value * 2;         /* allow 100% tolerance */
    4a90:	a5 01       	movw	r20, r10
    4a92:	94 01       	movw	r18, r8
    4a94:	22 0f       	add	r18, r18
    4a96:	33 1f       	adc	r19, r19
    4a98:	44 1f       	adc	r20, r20
    4a9a:	55 1f       	adc	r21, r21
            if (Value < 5UL)            /* <0.5 Ohms */
    4a9c:	85 e0       	ldi	r24, 0x05	; 5
    4a9e:	88 16       	cp	r8, r24
    4aa0:	91 04       	cpc	r9, r1
    4aa2:	a1 04       	cpc	r10, r1
    4aa4:	b1 04       	cpc	r11, r1
    4aa6:	08 f4       	brcc	.+2      	; 0x4aaa <CheckResistor+0x4ae>
    4aa8:	0c cf       	rjmp	.-488    	; 0x48c2 <CheckResistor+0x2c6>
    4aaa:	0f cf       	rjmp	.-482    	; 0x48ca <CheckResistor+0x2ce>
           */

          if (Value < 100UL)            /* < 10 Ohms */
          {
            /* run low resistance measurement (in 0.01 Ohms) */
            Value2 = (uint32_t)SmallResistor(1);
    4aac:	81 e0       	ldi	r24, 0x01	; 1
    4aae:	0e 94 32 22 	call	0x4464	; 0x4464 <SmallResistor>
    4ab2:	2c 01       	movw	r4, r24
    4ab4:	61 2c       	mov	r6, r1
    4ab6:	71 2c       	mov	r7, r1
          else      /* may happen for very low resistances */
          {
            if (U_Rl_L > 4750)     /* U_Rl_L: R < 15 Ohms */
            {
              /* this will trigger the low resistance measurement below */
              Value = 10;           /* 1 Ohm */
    4ab8:	8a e0       	ldi	r24, 0x0A	; 10
    4aba:	88 2e       	mov	r8, r24
    4abc:	91 2c       	mov	r9, r1
    4abe:	a1 2c       	mov	r10, r1
    4ac0:	b1 2c       	mov	r11, r1
          {
            /* run low resistance measurement (in 0.01 Ohms) */
            Value2 = (uint32_t)SmallResistor(1);

            /* check for valid result */
            Value1 = Value * 2;         /* allow 100% tolerance */
    4ac2:	24 e1       	ldi	r18, 0x14	; 20
    4ac4:	30 e0       	ldi	r19, 0x00	; 0
    4ac6:	40 e0       	ldi	r20, 0x00	; 0
    4ac8:	50 e0       	ldi	r21, 0x00	; 0
    4aca:	ff ce       	rjmp	.-514    	; 0x48ca <CheckResistor+0x2ce>
          }
        }
      }
    }
  }
}
    4acc:	cd b7       	in	r28, 0x3d	; 61
    4ace:	de b7       	in	r29, 0x3e	; 62
    4ad0:	e2 e1       	ldi	r30, 0x12	; 18
    4ad2:	0c 94 33 3f 	jmp	0x7e66	; 0x7e66 <__epilogue_restores__>

00004ad6 <CheckSingleResistor>:
 *  - Max: maximum resistance in kOhms
 *         0: don't check limit
 */

uint8_t CheckSingleResistor(uint8_t HighPin, uint8_t LowPin, uint8_t Max)
{
    4ad6:	ef 92       	push	r14
    4ad8:	0f 93       	push	r16
    4ada:	1f 93       	push	r17
    4adc:	cf 93       	push	r28
    4ade:	c4 2f       	mov	r28, r20
  uint8_t                Flag = 0;      /* return value */

  /* check for a specific resistor */
  Check.Resistors = 0;                  /* reset counter */
    4ae0:	10 92 0a 01 	sts	0x010A, r1	; 0x80010a <__data_end+0x4>
  UpdateProbes(HighPin, LowPin, 0);     /* set probes */
    4ae4:	40 e0       	ldi	r20, 0x00	; 0
    4ae6:	0e 94 2a 1c 	call	0x3854	; 0x3854 <UpdateProbes>
  CheckResistor();                      /* check for resistor */
    4aea:	0e 94 fe 22 	call	0x45fc	; 0x45fc <CheckResistor>

  if (Check.Resistors == 1)             /* found resistor */
    4aee:	80 91 0a 01 	lds	r24, 0x010A	; 0x80010a <__data_end+0x4>
    4af2:	81 30       	cpi	r24, 0x01	; 1
    4af4:	b1 f4       	brne	.+44     	; 0x4b22 <CheckSingleResistor+0x4c>
  {
    Flag = 1;            /* signal detected resistor */

    if (Max > 0)         /* check upper limit */
    4af6:	cc 23       	and	r28, r28
    4af8:	b1 f0       	breq	.+44     	; 0x4b26 <CheckSingleResistor+0x50>
    {
      /* measured value isn't below maximum */
      if (CmpValue((uint32_t)Max, 3, Resistors[0].Value, Resistors[0].Scale) != 1) 
    4afa:	00 91 14 01 	lds	r16, 0x0114	; 0x800114 <Resistors+0x3>
    4afe:	10 91 15 01 	lds	r17, 0x0115	; 0x800115 <Resistors+0x4>
    4b02:	20 91 16 01 	lds	r18, 0x0116	; 0x800116 <Resistors+0x5>
    4b06:	30 91 17 01 	lds	r19, 0x0117	; 0x800117 <Resistors+0x6>
    4b0a:	6c 2f       	mov	r22, r28
    4b0c:	70 e0       	ldi	r23, 0x00	; 0
    4b0e:	80 e0       	ldi	r24, 0x00	; 0
    4b10:	90 e0       	ldi	r25, 0x00	; 0
    4b12:	e0 90 13 01 	lds	r14, 0x0113	; 0x800113 <Resistors+0x2>
    4b16:	43 e0       	ldi	r20, 0x03	; 3
    4b18:	0e 94 fd 12 	call	0x25fa	; 0x25fa <CmpValue>
 *         0: don't check limit
 */

uint8_t CheckSingleResistor(uint8_t HighPin, uint8_t LowPin, uint8_t Max)
{
  uint8_t                Flag = 0;      /* return value */
    4b1c:	91 e0       	ldi	r25, 0x01	; 1
    4b1e:	81 30       	cpi	r24, 0x01	; 1
    4b20:	19 f0       	breq	.+6      	; 0x4b28 <CheckSingleResistor+0x52>
    4b22:	90 e0       	ldi	r25, 0x00	; 0
    4b24:	01 c0       	rjmp	.+2      	; 0x4b28 <CheckSingleResistor+0x52>
  UpdateProbes(HighPin, LowPin, 0);     /* set probes */
  CheckResistor();                      /* check for resistor */

  if (Check.Resistors == 1)             /* found resistor */
  {
    Flag = 1;            /* signal detected resistor */
    4b26:	91 e0       	ldi	r25, 0x01	; 1
      }
    }
  }

  return Flag;
}
    4b28:	89 2f       	mov	r24, r25
    4b2a:	cf 91       	pop	r28
    4b2c:	1f 91       	pop	r17
    4b2e:	0f 91       	pop	r16
    4b30:	ef 90       	pop	r14
    4b32:	08 95       	ret

00004b34 <SetUpDelayTimer>:
   *  - total: 17
   */

  #define CYCLE_OFFSET   17

  if (Cycles < CYCLE_OFFSET) return Flag;    /* check for required minimum */
    4b34:	81 31       	cpi	r24, 0x11	; 17
    4b36:	38 f0       	brcs	.+14     	; 0x4b46 <SetUpDelayTimer+0x12>
  Cycles -= CYCLE_OFFSET;                    /* substract cycles for DelayTimer() */ 
    4b38:	81 51       	subi	r24, 0x11	; 17
   *  set up Timer0:
   *  - CTC mode (count up to OCR0A) 
   *  - prescaler 1 to match MCU cycles
   */

  TCCR0B = 0;                      /* stop timer */
    4b3a:	15 bc       	out	0x25, r1	; 37
  TCCR0A = (1 << WGM01);           /* set CTC mode, disable output compare pins */
    4b3c:	92 e0       	ldi	r25, 0x02	; 2
    4b3e:	94 bd       	out	0x24, r25	; 36
  OCR0A = Cycles;                  /* set number of MCU cycles */
    4b40:	87 bd       	out	0x27, r24	; 39
    4b42:	81 e0       	ldi	r24, 0x01	; 1
    4b44:	08 95       	ret
   *  - total: 17
   */

  #define CYCLE_OFFSET   17

  if (Cycles < CYCLE_OFFSET) return Flag;    /* check for required minimum */
    4b46:	80 e0       	ldi	r24, 0x00	; 0
  OCR0A = Cycles;                  /* set number of MCU cycles */
  /* todo: check if we have to substract one cycle for setting the flag */

  Flag = 1;              /* signal success */
  return Flag;
}
    4b48:	08 95       	ret

00004b4a <DelayTimer>:
 *  (requires prior call of SetUpPulseTimer() for setup)
 */

void DelayTimer(void)
{
  TCNT0 = 0;                       /* reset counter to 0 */
    4b4a:	16 bc       	out	0x26, r1	; 38
  TCCR0B = (1 << CS00);            /* start timer by setting prescaler */
    4b4c:	81 e0       	ldi	r24, 0x01	; 1
    4b4e:	85 bd       	out	0x25, r24	; 37

  while (!(TIFR0 & (1 << OCF0A)));   /* wait for output compare A match flag */
    4b50:	a9 9b       	sbis	0x15, 1	; 21
    4b52:	fe cf       	rjmp	.-4      	; 0x4b50 <DelayTimer+0x6>

  TCCR0B = 0;                      /* stop timer */
    4b54:	15 bc       	out	0x25, r1	; 37
  TIFR0 = (1 << OCF0A);            /* clear flag */
    4b56:	82 e0       	ldi	r24, 0x02	; 2
    4b58:	85 bb       	out	0x15, r24	; 21
    4b5a:	08 95       	ret

00004b5c <MeasureESR>:
 *  - ESR in 0.01 Ohm
 *  - UINT16_MAX on any problem
 */

uint16_t MeasureESR(Capacitor_Type *Cap)
{
    4b5c:	a4 e0       	ldi	r26, 0x04	; 4
    4b5e:	b0 e0       	ldi	r27, 0x00	; 0
    4b60:	e4 eb       	ldi	r30, 0xB4	; 180
    4b62:	f5 e2       	ldi	r31, 0x25	; 37
    4b64:	0c 94 17 3f 	jmp	0x7e2e	; 0x7e2e <__prologue_saves__>
  uint32_t          Sum_1;         /* sum #1 */
  uint32_t          Sum_2;         /* sum #2 */
  uint32_t          Value;

  /* check for a capacitor >= 10nF */
  if ((Cap == NULL) ||
    4b68:	00 97       	sbiw	r24, 0x00	; 0
    4b6a:	29 f4       	brne	.+10     	; 0x4b76 <MeasureESR+0x1a>
      (CmpValue(Cap->Value, Cap->Scale, 10, -9) < 0)) return ESR;
    4b6c:	6f ef       	ldi	r22, 0xFF	; 255
    4b6e:	7f ef       	ldi	r23, 0xFF	; 255
    4b70:	7c 83       	std	Y+4, r23	; 0x04
    4b72:	6b 83       	std	Y+3, r22	; 0x03
    4b74:	39 c1       	rjmp	.+626    	; 0x4de8 <MeasureESR+0x28c>
    4b76:	9c 83       	std	Y+4, r25	; 0x04
    4b78:	8b 83       	std	Y+3, r24	; 0x03
    4b7a:	fc 01       	movw	r30, r24
    4b7c:	63 81       	ldd	r22, Z+3	; 0x03
    4b7e:	74 81       	ldd	r23, Z+4	; 0x04
    4b80:	85 81       	ldd	r24, Z+5	; 0x05
    4b82:	96 81       	ldd	r25, Z+6	; 0x06
    4b84:	a7 ef       	ldi	r26, 0xF7	; 247
    4b86:	ea 2e       	mov	r14, r26
    4b88:	0a e0       	ldi	r16, 0x0A	; 10
    4b8a:	10 e0       	ldi	r17, 0x00	; 0
    4b8c:	20 e0       	ldi	r18, 0x00	; 0
    4b8e:	30 e0       	ldi	r19, 0x00	; 0
    4b90:	42 81       	ldd	r20, Z+2	; 0x02
    4b92:	0e 94 fd 12 	call	0x25fa	; 0x25fa <CmpValue>
  uint32_t          Sum_1;         /* sum #1 */
  uint32_t          Sum_2;         /* sum #2 */
  uint32_t          Value;

  /* check for a capacitor >= 10nF */
  if ((Cap == NULL) ||
    4b96:	87 fd       	sbrc	r24, 7
    4b98:	e9 cf       	rjmp	.-46     	; 0x4b6c <MeasureESR+0x10>

  /*
   *  init stuff
   */

  DischargeProbes();                    /* try to discharge probes */
    4b9a:	0e 94 2d 1d 	call	0x3a5a	; 0x3a5a <DischargeProbes>
  if (Check.Found == COMP_ERROR) return ESR;   /* skip on error */
    4b9e:	80 91 06 01 	lds	r24, 0x0106	; 0x800106 <__data_end>
    4ba2:	81 30       	cpi	r24, 0x01	; 1
    4ba4:	19 f3       	breq	.-58     	; 0x4b6c <MeasureESR+0x10>

  /* Some testers need additional discharging to lower the cap's residual
     voltage to a reasonable level. */
  DischargeCap(Cap->A, Cap->B);         /* additional discharge */
    4ba6:	eb 81       	ldd	r30, Y+3	; 0x03
    4ba8:	fc 81       	ldd	r31, Y+4	; 0x04
    4baa:	61 81       	ldd	r22, Z+1	; 0x01
    4bac:	80 81       	ld	r24, Z
    4bae:	0e 94 e3 1c 	call	0x39c6	; 0x39c6 <DischargeCap>

  UpdateProbes(Cap->A, Cap->B, 0);      /* update probes */
    4bb2:	40 e0       	ldi	r20, 0x00	; 0
    4bb4:	eb 81       	ldd	r30, Y+3	; 0x03
    4bb6:	fc 81       	ldd	r31, Y+4	; 0x04
    4bb8:	61 81       	ldd	r22, Z+1	; 0x01
    4bba:	80 81       	ld	r24, Z
    4bbc:	0e 94 2a 1c 	call	0x3854	; 0x3854 <UpdateProbes>
  Probe1 = Probes.Ch_1;                 /* ADC MUX for probe-1 */
    4bc0:	00 91 da 01 	lds	r16, 0x01DA	; 0x8001da <Probes+0xf>
  Probe2 = Probes.Ch_2;                 /* ADC MUX for probe-2 */
    4bc4:	80 91 db 01 	lds	r24, 0x01DB	; 0x8001db <Probes+0x10>

  Probe1 |= ADC_REF_BANDGAP;            /* select bandgap reference */
    4bc8:	00 6c       	ori	r16, 0xC0	; 192
  Probe2 |= ADC_REF_BANDGAP;            /* select bandgap reference */
    4bca:	80 6c       	ori	r24, 0xC0	; 192
    4bcc:	8a 83       	std	Y+2, r24	; 0x02
   *  set up Timer0:
   *  - CTC mode (count up to OCR0A) 
   *  - prescaler 1 to match MCU cycles
   */

  TCCR0B = 0;                      /* stop timer */
    4bce:	15 bc       	out	0x25, r1	; 37
  TCCR0A = (1 << WGM01);           /* set CTC mode, disable output compare pins */
    4bd0:	82 e0       	ldi	r24, 0x02	; 2
    4bd2:	84 bd       	out	0x24, r24	; 36
  OCR0A = Cycles;                  /* set number of MCU cycles */
    4bd4:	81 e2       	ldi	r24, 0x21	; 33
    4bd6:	87 bd       	out	0x27, r24	; 39
   *  - pre-charge DUT with a negative pulse of half length to
   *    to compensate voltage rise by positive charging pulse
   *  - 16 & 20 MHz MCUs seem to measure higher ESR values
   */  

  ADC_PORT = 0;          /* set ADC port to low */
    4bd8:	18 b8       	out	0x08, r1	; 8
  ADMUX = Probe1;        /* set input channel to probe-1 & set bandgap ref */
    4bda:	00 93 7c 00 	sts	0x007C, r16	; 0x80007c <__DATA_REGION_ORIGIN__+0x1c>
  wait10ms();            /* time for voltage stabilization */
    4bde:	0e 94 79 3c 	call	0x78f2	; 0x78f2 <wait10ms>
    4be2:	ff ef       	ldi	r31, 0xFF	; 255
    4be4:	f9 83       	std	Y+1, r31	; 0x01
  /* register bits to enable and start ADC */
  Bits = (1 << ADSC) | (1 << ADEN) | (1 << ADIF) | ADC_CLOCK_DIV;

  /* init variables */
  Sum_1 = 1;             /* 1 to prevent division by zero */
  Sum_2 = 1;             /* 1 to prevent division by zero */
    4be6:	81 2c       	mov	r8, r1
    4be8:	91 2c       	mov	r9, r1
    4bea:	54 01       	movw	r10, r8
    4bec:	83 94       	inc	r8

  /* register bits to enable and start ADC */
  Bits = (1 << ADSC) | (1 << ADEN) | (1 << ADIF) | ADC_CLOCK_DIV;

  /* init variables */
  Sum_1 = 1;             /* 1 to prevent division by zero */
    4bee:	41 2c       	mov	r4, r1
    4bf0:	51 2c       	mov	r5, r1
    4bf2:	32 01       	movw	r6, r4
    4bf4:	43 94       	inc	r4
  ADC_PORT = 0;          /* set ADC port to low */
  ADMUX = Probe1;        /* set input channel to probe-1 & set bandgap ref */
  wait10ms();            /* time for voltage stabilization */

  U_2 = 50;              /* don't start with positive half-pulse */
  U_4 = 0;               /* start with a negative half-pulse */
    4bf6:	80 e0       	ldi	r24, 0x00	; 0
    4bf8:	90 e0       	ldi	r25, 0x00	; 0

  ADC_PORT = 0;          /* set ADC port to low */
  ADMUX = Probe1;        /* set input channel to probe-1 & set bandgap ref */
  wait10ms();            /* time for voltage stabilization */

  U_2 = 50;              /* don't start with positive half-pulse */
    4bfa:	52 e3       	ldi	r21, 0x32	; 50
    4bfc:	c5 2e       	mov	r12, r21
    4bfe:	d1 2c       	mov	r13, r1
    ADC_DDR = Probes.Pin_1;        /* pull down probe-1 directly to GND */
    R_PORT = Probes.Rl_1;          /* pull up probe-1 via Rl */
    R_DDR = Probes.Rl_1;           /* enable resistor */
    ADMUX = Probe1;                /* set input channel to probe-1 & set bandgap ref */
    /* run dummy conversion for ADMUX change */
    ADCSRA = Bits;                 /* start conversion */
    4c00:	16 ed       	ldi	r17, 0xD6	; 214
  U_4 = 0;               /* start with a negative half-pulse */
  n = 255;               /* set loop counter */

  while (n > 0)
  {
    wdt_reset();                   /* reset watchdog */
    4c02:	a8 95       	wdr

    /*
     *  mitigate runaway of cap's charge/voltage
     */

    if (U_4 < 50)
    4c04:	c2 97       	sbiw	r24, 0x32	; 50
    4c06:	58 f4       	brcc	.+22     	; 0x4c1e <MeasureESR+0xc2>
    {
      /* charge cap a little bit more (negative pulse) */

      /* set probes: GND -- probe-2 / probe-1 -- Rl -- Vcc */
      ADC_DDR = Probes.Pin_2;      /* pull down probe-2 directly */
    4c08:	80 91 d8 01 	lds	r24, 0x01D8	; 0x8001d8 <Probes+0xd>
    4c0c:	87 b9       	out	0x07, r24	; 7
      R_PORT = Probes.Rl_1;        /* pull up probe-1 via Rl */
    4c0e:	80 91 d1 01 	lds	r24, 0x01D1	; 0x8001d1 <Probes+0x6>
    4c12:	85 b9       	out	0x05, r24	; 5
      R_DDR = Probes.Rl_1;         /* enable pull up */
    4c14:	84 b9       	out	0x04, r24	; 4
      wait2us();                   /* wait half-pulse */
    4c16:	0e 94 8c 3c 	call	0x7918	; 0x7918 <wait2us>
      R_DDR = 0;                   /* disable any pull up */      
    4c1a:	14 b8       	out	0x04, r1	; 4
      R_PORT = 0;                  /* reset probe resistors */
    4c1c:	15 b8       	out	0x05, r1	; 5
    }

    if (U_2 < 50)
    4c1e:	22 e3       	ldi	r18, 0x32	; 50
    4c20:	c2 16       	cp	r12, r18
    4c22:	d1 04       	cpc	r13, r1
    4c24:	58 f4       	brcc	.+22     	; 0x4c3c <MeasureESR+0xe0>
    {
      /* charge cap a little bit more (positive pulse) */

      /* set probes: GND -- probe-1 / probe-2 -- Rl -- Vcc */
      ADC_DDR = Probes.Pin_1;      /* pull down probe-1 directly */
    4c26:	80 91 d7 01 	lds	r24, 0x01D7	; 0x8001d7 <Probes+0xc>
    4c2a:	87 b9       	out	0x07, r24	; 7
      R_PORT = Probes.Rl_2;        /* pull up probe-2 via Rl */
    4c2c:	80 91 d2 01 	lds	r24, 0x01D2	; 0x8001d2 <Probes+0x7>
    4c30:	85 b9       	out	0x05, r24	; 5
      R_DDR = Probes.Rl_2;         /* enable pull up */
    4c32:	84 b9       	out	0x04, r24	; 4
      wait2us();                   /* wait half-pulse */
    4c34:	0e 94 8c 3c 	call	0x7918	; 0x7918 <wait2us>
      R_DDR = 0;                   /* disable any pull up */      
    4c38:	14 b8       	out	0x04, r1	; 4
      R_PORT = 0;                  /* reset probe resistors */
    4c3a:	15 b8       	out	0x05, r1	; 5
     *  forward mode, probe-1 only (probe-2 in HiZ mode)
     *  set probes: GND -- probe-1 -- Rl -- Vcc / probe-2 -- HiZ
     *  get voltage at probe-1 (voltage at RiL)
     */

    ADC_DDR = Probes.Pin_1;        /* pull down probe-1 directly to GND */
    4c3c:	80 91 d7 01 	lds	r24, 0x01D7	; 0x8001d7 <Probes+0xc>
    4c40:	87 b9       	out	0x07, r24	; 7
    R_PORT = Probes.Rl_1;          /* pull up probe-1 via Rl */
    4c42:	80 91 d1 01 	lds	r24, 0x01D1	; 0x8001d1 <Probes+0x6>
    4c46:	85 b9       	out	0x05, r24	; 5
    R_DDR = Probes.Rl_1;           /* enable resistor */
    4c48:	84 b9       	out	0x04, r24	; 4
    ADMUX = Probe1;                /* set input channel to probe-1 & set bandgap ref */
    4c4a:	00 93 7c 00 	sts	0x007C, r16	; 0x80007c <__DATA_REGION_ORIGIN__+0x1c>
    /* run dummy conversion for ADMUX change */
    ADCSRA = Bits;                 /* start conversion */
    4c4e:	10 93 7a 00 	sts	0x007A, r17	; 0x80007a <__DATA_REGION_ORIGIN__+0x1a>
    while (ADCSRA & (1 << ADSC));  /* wait until conversion is done */
    4c52:	80 91 7a 00 	lds	r24, 0x007A	; 0x80007a <__DATA_REGION_ORIGIN__+0x1a>
    4c56:	86 fd       	sbrc	r24, 6
    4c58:	fc cf       	rjmp	.-8      	; 0x4c52 <MeasureESR+0xf6>
    /* real conversion */
    ADCSRA = Bits;                 /* start conversion */
    4c5a:	10 93 7a 00 	sts	0x007A, r17	; 0x80007a <__DATA_REGION_ORIGIN__+0x1a>
    while (ADCSRA & (1 << ADSC));  /* wait until conversion is done */
    4c5e:	80 91 7a 00 	lds	r24, 0x007A	; 0x80007a <__DATA_REGION_ORIGIN__+0x1a>
    4c62:	86 fd       	sbrc	r24, 6
    4c64:	fc cf       	rjmp	.-8      	; 0x4c5e <MeasureESR+0x102>
    U_1 = ADCW;                    /* save ADC value */
    4c66:	20 90 78 00 	lds	r2, 0x0078	; 0x800078 <__DATA_REGION_ORIGIN__+0x18>
    4c6a:	30 90 79 00 	lds	r3, 0x0079	; 0x800079 <__DATA_REGION_ORIGIN__+0x19>
     *  forward mode, positive charging pulse
     *  set probes: GND -- probe-1 / probe-2 -- Rl -- Vcc
     *  get voltage at probe-2 (voltage at DUT, i.e. RiL + ESR)
     */

    ADMUX = Probe2;                /* set input channel to probe-2 & set bandgap ref */
    4c6e:	6a 81       	ldd	r22, Y+2	; 0x02
    4c70:	60 93 7c 00 	sts	0x007C, r22	; 0x80007c <__DATA_REGION_ORIGIN__+0x1c>
    /* run dummy conversion for ADMUX change */
    ADCSRA = Bits;                 /* start conversion */
    4c74:	10 93 7a 00 	sts	0x007A, r17	; 0x80007a <__DATA_REGION_ORIGIN__+0x1a>
    while (ADCSRA & (1 << ADSC));  /* wait until conversion is done */
    4c78:	80 91 7a 00 	lds	r24, 0x007A	; 0x80007a <__DATA_REGION_ORIGIN__+0x1a>
    4c7c:	86 fd       	sbrc	r24, 6
    4c7e:	fc cf       	rjmp	.-8      	; 0x4c78 <MeasureESR+0x11c>

    /* read ADC in the mid of a positive charging pulse */
    ADCSRA = Bits;                 /* start conversion with next ADC clock cycle */
    4c80:	10 93 7a 00 	sts	0x007A, r17	; 0x80007a <__DATA_REGION_ORIGIN__+0x1a>
    wait10us();                    /* fixed pre-delay */
    4c84:	0e 94 88 3c 	call	0x7910	; 0x7910 <wait10us>
    DelayTimer();                  /* delay for pulse */
    4c88:	0e 94 a5 25 	call	0x4b4a	; 0x4b4a <DelayTimer>
    R_PORT = Probes.Rl_2;          /* pull up probe-2 via Rl */
    4c8c:	80 91 d2 01 	lds	r24, 0x01D2	; 0x8001d2 <Probes+0x7>
    4c90:	85 b9       	out	0x05, r24	; 5
    R_DDR = Probes.Rl_2;           /* enable resistor */
    4c92:	84 b9       	out	0x04, r24	; 4
    wait2us();                     /* first half-pulse */
    4c94:	0e 94 8c 3c 	call	0x7918	; 0x7918 <wait2us>
                                   /* S/H happens here */
    #if CPU_FREQ < 8000000
    wait2us();                     /* second half-pulse */
    #endif
//    R_PORT = 0;                    /* set resistor port to low */
    R_DDR = 0;                     /* set resistor port to HiZ */
    4c98:	14 b8       	out	0x04, r1	; 4
    while (ADCSRA & (1 << ADSC));  /* wait until conversion is done */
    4c9a:	80 91 7a 00 	lds	r24, 0x007A	; 0x80007a <__DATA_REGION_ORIGIN__+0x1a>
    4c9e:	86 fd       	sbrc	r24, 6
    4ca0:	fc cf       	rjmp	.-8      	; 0x4c9a <MeasureESR+0x13e>
    U_2 = ADCW;                    /* save ADC value */
    4ca2:	c0 90 78 00 	lds	r12, 0x0078	; 0x800078 <__DATA_REGION_ORIGIN__+0x18>
    4ca6:	d0 90 79 00 	lds	r13, 0x0079	; 0x800079 <__DATA_REGION_ORIGIN__+0x19>
     *  reverse mode, probe-2 only (probe-1 in HiZ mode)
     *  set probes: GND -- probe-2 -- Rl -- Vcc / probe-1 -- HiZ
     *  get voltage at probe-2 (voltage at RiL)
     */

    ADC_DDR = Probes.Pin_2;        /* pull down probe-2 directly */
    4caa:	80 91 d8 01 	lds	r24, 0x01D8	; 0x8001d8 <Probes+0xd>
    4cae:	87 b9       	out	0x07, r24	; 7
    R_PORT = Probes.Rl_2;          /* pull up probe-2 via Rl */
    4cb0:	80 91 d2 01 	lds	r24, 0x01D2	; 0x8001d2 <Probes+0x7>
    4cb4:	85 b9       	out	0x05, r24	; 5
    R_DDR = Probes.Rl_2;           /* enable resistor */
    4cb6:	84 b9       	out	0x04, r24	; 4
    ADMUX = Probe2;                /* set input channel to probe-2 & set bandgap ref */
    4cb8:	7a 81       	ldd	r23, Y+2	; 0x02
    4cba:	70 93 7c 00 	sts	0x007C, r23	; 0x80007c <__DATA_REGION_ORIGIN__+0x1c>
    /* run dummy conversion for ADMUX change */
    ADCSRA = Bits;                 /* start conversion */
    4cbe:	10 93 7a 00 	sts	0x007A, r17	; 0x80007a <__DATA_REGION_ORIGIN__+0x1a>
    while (ADCSRA & (1 << ADSC));  /* wait until conversion is done */
    4cc2:	80 91 7a 00 	lds	r24, 0x007A	; 0x80007a <__DATA_REGION_ORIGIN__+0x1a>
    4cc6:	86 fd       	sbrc	r24, 6
    4cc8:	fc cf       	rjmp	.-8      	; 0x4cc2 <MeasureESR+0x166>
    /* real conversion */
    ADCSRA = Bits;                 /* start conversion */
    4cca:	10 93 7a 00 	sts	0x007A, r17	; 0x80007a <__DATA_REGION_ORIGIN__+0x1a>
    while (ADCSRA & (1 << ADSC));  /* wait until conversion is done */
    4cce:	80 91 7a 00 	lds	r24, 0x007A	; 0x80007a <__DATA_REGION_ORIGIN__+0x1a>
    4cd2:	86 fd       	sbrc	r24, 6
    4cd4:	fc cf       	rjmp	.-8      	; 0x4cce <MeasureESR+0x172>
    U_3 = ADCW;                    /* save ADC value */
    4cd6:	e0 90 78 00 	lds	r14, 0x0078	; 0x800078 <__DATA_REGION_ORIGIN__+0x18>
    4cda:	f0 90 79 00 	lds	r15, 0x0079	; 0x800079 <__DATA_REGION_ORIGIN__+0x19>
     *  reverse mode, negative charging pulse
     *  set probes: GND -- probe-2 / probe-1 -- Rl -- Vcc
     *  get voltage at probe-1 (voltage at DUT, i.e. RiL + ESR)
     */

    ADMUX = Probe1;                /* set input channel to probe-1 & set bandgap ref */
    4cde:	00 93 7c 00 	sts	0x007C, r16	; 0x80007c <__DATA_REGION_ORIGIN__+0x1c>
    /* run dummy conversion for ADMUX change */
    ADCSRA = Bits;                 /* start conversion */
    4ce2:	10 93 7a 00 	sts	0x007A, r17	; 0x80007a <__DATA_REGION_ORIGIN__+0x1a>
    while (ADCSRA & (1 << ADSC));  /* wait until conversion is done */
    4ce6:	80 91 7a 00 	lds	r24, 0x007A	; 0x80007a <__DATA_REGION_ORIGIN__+0x1a>
    4cea:	86 fd       	sbrc	r24, 6
    4cec:	fc cf       	rjmp	.-8      	; 0x4ce6 <MeasureESR+0x18a>

    /* read ADC in the mid of a negatve charging pulse */
    ADCSRA = Bits;                 /* start conversion with next ADC clock cycle */
    4cee:	10 93 7a 00 	sts	0x007A, r17	; 0x80007a <__DATA_REGION_ORIGIN__+0x1a>
    wait10us();                    /* fixed pre-delay */
    4cf2:	0e 94 88 3c 	call	0x7910	; 0x7910 <wait10us>
    DelayTimer();                  /* delay for pulse */
    4cf6:	0e 94 a5 25 	call	0x4b4a	; 0x4b4a <DelayTimer>
    R_PORT = Probes.Rl_1;          /* pull up probe-1 via Rl */
    4cfa:	80 91 d1 01 	lds	r24, 0x01D1	; 0x8001d1 <Probes+0x6>
    4cfe:	85 b9       	out	0x05, r24	; 5
    R_DDR = Probes.Rl_1;           /* enable resistor */
    4d00:	84 b9       	out	0x04, r24	; 4
    wait2us();                     /* first half-pulse */
    4d02:	0e 94 8c 3c 	call	0x7918	; 0x7918 <wait2us>
                                   /* S/H happens here */
    #if CPU_FREQ < 8000000
    wait2us();                     /* second half-pulse */
    #endif
//    R_PORT = 0;                    /* set resistor port to low */
    R_DDR = 0;                     /* set resistor port to HiZ */
    4d06:	14 b8       	out	0x04, r1	; 4
    while (ADCSRA & (1 << ADSC));  /* wait until conversion is done */
    4d08:	80 91 7a 00 	lds	r24, 0x007A	; 0x80007a <__DATA_REGION_ORIGIN__+0x1a>
    4d0c:	86 fd       	sbrc	r24, 6
    4d0e:	fc cf       	rjmp	.-8      	; 0x4d08 <MeasureESR+0x1ac>
    U_4 = ADCW;                    /* save ADC value */
    4d10:	80 91 78 00 	lds	r24, 0x0078	; 0x800078 <__DATA_REGION_ORIGIN__+0x18>
    4d14:	90 91 79 00 	lds	r25, 0x0079	; 0x800079 <__DATA_REGION_ORIGIN__+0x19>
    /*
     *  manage measured values
     */

    Sum_1 += U_1;        /* positive pulse without DUT */
    Sum_1 += U_3;        /* negative pulse without DUT */
    4d18:	a7 01       	movw	r20, r14
    4d1a:	60 e0       	ldi	r22, 0x00	; 0
    4d1c:	70 e0       	ldi	r23, 0x00	; 0
    4d1e:	42 0d       	add	r20, r2
    4d20:	53 1d       	adc	r21, r3
    4d22:	61 1d       	adc	r22, r1
    4d24:	71 1d       	adc	r23, r1
    4d26:	44 0e       	add	r4, r20
    4d28:	55 1e       	adc	r5, r21
    4d2a:	66 1e       	adc	r6, r22
    4d2c:	77 1e       	adc	r7, r23
    Sum_2 += U_2;        /* positive pulse with DUT */
    Sum_2 += U_4;        /* negative pulse with DUT */
    4d2e:	ac 01       	movw	r20, r24
    4d30:	60 e0       	ldi	r22, 0x00	; 0
    4d32:	70 e0       	ldi	r23, 0x00	; 0
    4d34:	4c 0d       	add	r20, r12
    4d36:	5d 1d       	adc	r21, r13
    4d38:	61 1d       	adc	r22, r1
    4d3a:	71 1d       	adc	r23, r1
    4d3c:	84 0e       	add	r8, r20
    4d3e:	95 1e       	adc	r9, r21
    4d40:	a6 1e       	adc	r10, r22
    4d42:	b7 1e       	adc	r11, r23
    4d44:	e9 81       	ldd	r30, Y+1	; 0x01
    4d46:	e1 50       	subi	r30, 0x01	; 1
    4d48:	e9 83       	std	Y+1, r30	; 0x01

  U_2 = 50;              /* don't start with positive half-pulse */
  U_4 = 0;               /* start with a negative half-pulse */
  n = 255;               /* set loop counter */

  while (n > 0)
    4d4a:	e1 11       	cpse	r30, r1
    4d4c:	5a cf       	rjmp	.-332    	; 0x4c02 <MeasureESR+0xa6>
    Sum_2 += U_4;        /* negative pulse with DUT */
    n--;                 /* next loop run */
  }

  /* probes: reset to safe mode */
  ADC_DDR = 0;
    4d4e:	17 b8       	out	0x07, r1	; 7
  R_PORT = 0;
    4d50:	15 b8       	out	0x05, r1	; 5

  /*
   *  process measurements
   */

  if (Sum_2 > Sum_1)               /* valid measurement */
    4d52:	48 14       	cp	r4, r8
    4d54:	59 04       	cpc	r5, r9
    4d56:	6a 04       	cpc	r6, r10
    4d58:	7b 04       	cpc	r7, r11
    4d5a:	e8 f5       	brcc	.+122    	; 0x4dd6 <MeasureESR+0x27a>

    /* voltage across the DUT (raw value) */
    Sum_2 -= Sum_1;           /* subtract voltage at DUT's low side (RiL) */

    /* ESR = Sum_2 * RiL / Sum_1 */
    Value = (uint32_t)(NV.RiL * 10);    /* RiL in 0.01 Ohms */
    4d5c:	80 91 dd 01 	lds	r24, 0x01DD	; 0x8001dd <NV>
    4d60:	90 91 de 01 	lds	r25, 0x01DE	; 0x8001de <NV+0x1>
    4d64:	2a e0       	ldi	r18, 0x0A	; 10
    4d66:	28 9f       	mul	r18, r24
    4d68:	d0 01       	movw	r26, r0
    4d6a:	29 9f       	mul	r18, r25
    4d6c:	b0 0d       	add	r27, r0
    4d6e:	11 24       	eor	r1, r1
    Value *= Sum_2;                     /* sum of raw values for voltage across DUT */
    4d70:	a5 01       	movw	r20, r10
    4d72:	94 01       	movw	r18, r8
    4d74:	24 19       	sub	r18, r4
    4d76:	35 09       	sbc	r19, r5
    4d78:	46 09       	sbc	r20, r6
    4d7a:	57 09       	sbc	r21, r7
    4d7c:	0e 94 0c 3f 	call	0x7e18	; 0x7e18 <__muluhisi3>
    Value /= Sum_1;                     /* sum of raw values for voltage at RiL */
    U_1 = (uint16_t)Value;              /* raw ESR (0.01 Ohms) */
    4d80:	a3 01       	movw	r20, r6
    4d82:	92 01       	movw	r18, r4
    4d84:	0e 94 af 3e 	call	0x7d5e	; 0x7d5e <__udivmodsi4>
    #ifdef R_MULTIOFFSET
    /* get index number for probe pair */
    n = GetOffsetIndex(Probes.ID_1, Probes.ID_2);
    U_2 = NV.RZero[n];
    #else
    U_2 = NV.RZero;
    4d88:	80 91 e1 01 	lds	r24, 0x01E1	; 0x8001e1 <NV+0x4>
    4d8c:	90 91 e2 01 	lds	r25, 0x01E2	; 0x8001e2 <NV+0x5>
    #endif

    if (U_1 > U_2)            /* larger than offset */
    4d90:	82 17       	cp	r24, r18
    4d92:	93 07       	cpc	r25, r19
    4d94:	20 f4       	brcc	.+8      	; 0x4d9e <MeasureESR+0x242>
    {
      U_1 -= U_2;             /* subtract offset */
    4d96:	b9 01       	movw	r22, r18
    4d98:	68 1b       	sub	r22, r24
    4d9a:	79 0b       	sbc	r23, r25
    4d9c:	19 c0       	rjmp	.+50     	; 0x4dd0 <MeasureESR+0x274>
      ESR = U_1;              /* got result */
    }
    else                      /* offset problem or zero */
    {
      /* should only happen for large caps (>1000F) */
      if (CmpValue(Cap->Value, Cap->Scale, 1000, -6) > 0)
    4d9e:	eb 81       	ldd	r30, Y+3	; 0x03
    4da0:	fc 81       	ldd	r31, Y+4	; 0x04
    4da2:	63 81       	ldd	r22, Z+3	; 0x03
    4da4:	74 81       	ldd	r23, Z+4	; 0x04
    4da6:	85 81       	ldd	r24, Z+5	; 0x05
    4da8:	96 81       	ldd	r25, Z+6	; 0x06
    4daa:	2a ef       	ldi	r18, 0xFA	; 250
    4dac:	e2 2e       	mov	r14, r18
    4dae:	08 ee       	ldi	r16, 0xE8	; 232
    4db0:	13 e0       	ldi	r17, 0x03	; 3
    4db2:	20 e0       	ldi	r18, 0x00	; 0
    4db4:	30 e0       	ldi	r19, 0x00	; 0
    4db6:	42 81       	ldd	r20, Z+2	; 0x02
    4db8:	0e 94 fd 12 	call	0x25fa	; 0x25fa <CmpValue>
    4dbc:	21 e0       	ldi	r18, 0x01	; 1
    4dbe:	30 e0       	ldi	r19, 0x00	; 0
    4dc0:	18 16       	cp	r1, r24
    4dc2:	14 f4       	brge	.+4      	; 0x4dc8 <MeasureESR+0x26c>
    4dc4:	20 e0       	ldi	r18, 0x00	; 0
    4dc6:	30 e0       	ldi	r19, 0x00	; 0
    4dc8:	66 27       	eor	r22, r22
    4dca:	77 27       	eor	r23, r23
    4dcc:	62 1b       	sub	r22, r18
    4dce:	73 0b       	sbc	r23, r19
    4dd0:	7c 83       	std	Y+4, r23	; 0x04
    4dd2:	6b 83       	std	Y+3, r22	; 0x03
    4dd4:	04 c0       	rjmp	.+8      	; 0x4dde <MeasureESR+0x282>
 *  - UINT16_MAX on any problem
 */

uint16_t MeasureESR(Capacitor_Type *Cap)
{
  uint16_t          ESR = UINT16_MAX;   /* return value */
    4dd6:	8f ef       	ldi	r24, 0xFF	; 255
    4dd8:	9f ef       	ldi	r25, 0xFF	; 255
    4dda:	9c 83       	std	Y+4, r25	; 0x04
    4ddc:	8b 83       	std	Y+3, r24	; 0x03
  /*
   *  clean up
   */

  /* update reference source for next ADC run */
  Cfg.Ref = ADC_REF_BANDGAP;       /* we've used the bandgap reference */
    4dde:	80 ec       	ldi	r24, 0xC0	; 192
    4de0:	80 93 a5 01 	sts	0x01A5, r24	; 0x8001a5 <Cfg+0x5>

  DischargeProbes();               /* discharge DUT */
    4de4:	0e 94 2d 1d 	call	0x3a5a	; 0x3a5a <DischargeProbes>

  return ESR;
}
    4de8:	8b 81       	ldd	r24, Y+3	; 0x03
    4dea:	9c 81       	ldd	r25, Y+4	; 0x04
    4dec:	24 96       	adiw	r28, 0x04	; 4
    4dee:	e2 e1       	ldi	r30, 0x12	; 18
    4df0:	0c 94 33 3f 	jmp	0x7e66	; 0x7e66 <__epilogue_restores__>

00004df4 <LargeCap>:
 *  - 1 if capacitance is too high
 *  - 0 on any problem
 */

uint8_t LargeCap(Capacitor_Type *Cap)
{
    4df4:	a0 e0       	ldi	r26, 0x00	; 0
    4df6:	b0 e0       	ldi	r27, 0x00	; 0
    4df8:	e0 e0       	ldi	r30, 0x00	; 0
    4dfa:	f7 e2       	ldi	r31, 0x27	; 39
    4dfc:	0c 94 18 3f 	jmp	0x7e30	; 0x7e30 <__prologue_saves__+0x2>
    4e00:	6c 01       	movw	r12, r24
  uint16_t          U_Drop = 0;    /* voltage drop */
  uint32_t          Raw;           /* raw capacitance value */
  uint32_t          Value;         /* corrected capacitance value */

  /* set up mode */
  Mode = PULL_10MS | PULL_UP;      /* start with large caps */
    4e02:	01 e1       	ldi	r16, 0x11	; 17
 *  - 0 on any problem
 */

uint8_t LargeCap(Capacitor_Type *Cap)
{
  uint8_t           Flag = 3;      /* return value */
    4e04:	13 e0       	ldi	r17, 0x03	; 3
   */

large_cap:

  /* prepare probes */
  DischargeProbes();                    /* try to discharge probes */
    4e06:	0e 94 2d 1d 	call	0x3a5a	; 0x3a5a <DischargeProbes>
  if (Check.Found == COMP_ERROR) return 0;     /* skip on error */
    4e0a:	80 91 06 01 	lds	r24, 0x0106	; 0x800106 <__data_end>
    4e0e:	81 30       	cpi	r24, 0x01	; 1
    4e10:	09 f4       	brne	.+2      	; 0x4e14 <LargeCap+0x20>
    4e12:	13 c1       	rjmp	.+550    	; 0x503a <LargeCap+0x246>

  /* set probes: Gnd -- probe-2 / probe-1 -- HiZ */
  ADC_PORT = 0;                    /* set ADC port to low */
    4e14:	18 b8       	out	0x08, r1	; 8
  ADC_DDR = Probes.Pin_2;          /* pull down probe-2 directly */
    4e16:	80 91 d8 01 	lds	r24, 0x01D8	; 0x8001d8 <Probes+0xd>
    4e1a:	87 b9       	out	0x07, r24	; 7
  R_PORT = 0;                      /* set resistor port to low */
    4e1c:	15 b8       	out	0x05, r1	; 5
  R_DDR = 0;                       /* set resistor port to HiZ */
    4e1e:	14 b8       	out	0x04, r1	; 4
  U_Zero = ReadU(Probes.Ch_1);     /* get zero voltage (noise) */
    4e20:	80 91 da 01 	lds	r24, 0x01DA	; 0x8001da <Probes+0xf>
    4e24:	0e 94 b7 1b 	call	0x376e	; 0x376e <ReadU>
    4e28:	5c 01       	movw	r10, r24

  /* charge DUT with up to 500 pulses until it reaches 300mV */
  /* pulse: probe-1 -- Rl -- Vcc */
  Pulses = 0;
    4e2a:	e1 2c       	mov	r14, r1
    4e2c:	f1 2c       	mov	r15, r1
  TempByte = 1;
  while (TempByte)
  {
    Pulses++;
    4e2e:	8f ef       	ldi	r24, 0xFF	; 255
    4e30:	e8 1a       	sub	r14, r24
    4e32:	f8 0a       	sbc	r15, r24
    PullProbe(Probes.Rl_1, Mode);       /* charging pulse */
    4e34:	60 2f       	mov	r22, r16
    4e36:	80 91 d1 01 	lds	r24, 0x01D1	; 0x8001d1 <Probes+0x6>
    4e3a:	0e 94 be 1d 	call	0x3b7c	; 0x3b7c <PullProbe>
    U_Cap = ReadU(Probes.Ch_1);         /* get voltage */
    4e3e:	80 91 da 01 	lds	r24, 0x01DA	; 0x8001da <Probes+0xf>
    4e42:	0e 94 b7 1b 	call	0x376e	; 0x376e <ReadU>

    /* zero offset */
    if (U_Cap > U_Zero)            /* voltage higher than zero offset */
    4e46:	a8 16       	cp	r10, r24
    4e48:	b9 06       	cpc	r11, r25
    4e4a:	90 f4       	brcc	.+36     	; 0x4e70 <LargeCap+0x7c>
      U_Cap -= U_Zero;                  /* subtract zero offset */
    4e4c:	ec 01       	movw	r28, r24
    4e4e:	ca 19       	sub	r28, r10
    4e50:	db 09       	sbc	r29, r11
    else                           /* shouldn't happen but you never know */
      U_Cap = 0;                        /* assume 0V */

    /* end loop if charging is too slow */
    if ((Pulses == 126) && (U_Cap < 75)) TempByte = 0;
    4e52:	9e e7       	ldi	r25, 0x7E	; 126
    4e54:	e9 16       	cp	r14, r25
    4e56:	f1 04       	cpc	r15, r1
    4e58:	29 f4       	brne	.+10     	; 0x4e64 <LargeCap+0x70>
    4e5a:	cb 34       	cpi	r28, 0x4B	; 75
    4e5c:	d1 05       	cpc	r29, r1
    4e5e:	08 f0       	brcs	.+2      	; 0x4e62 <LargeCap+0x6e>
    4e60:	f0 c0       	rjmp	.+480    	; 0x5042 <LargeCap+0x24e>
    4e62:	0c c0       	rjmp	.+24     	; 0x4e7c <LargeCap+0x88>
    
    /* end loop if 300mV are reached */
    if (U_Cap >= 300) TempByte = 0;
    4e64:	cc 32       	cpi	r28, 0x2C	; 44
    4e66:	e1 e0       	ldi	r30, 0x01	; 1
    4e68:	de 07       	cpc	r29, r30
    4e6a:	40 f4       	brcc	.+16     	; 0x4e7c <LargeCap+0x88>
      U_Cap -= U_Zero;                  /* subtract zero offset */
    else                           /* shouldn't happen but you never know */
      U_Cap = 0;                        /* assume 0V */

    /* end loop if charging is too slow */
    if ((Pulses == 126) && (U_Cap < 75)) TempByte = 0;
    4e6c:	81 e0       	ldi	r24, 0x01	; 1
    4e6e:	07 c0       	rjmp	.+14     	; 0x4e7e <LargeCap+0x8a>

    /* zero offset */
    if (U_Cap > U_Zero)            /* voltage higher than zero offset */
      U_Cap -= U_Zero;                  /* subtract zero offset */
    else                           /* shouldn't happen but you never know */
      U_Cap = 0;                        /* assume 0V */
    4e70:	c0 e0       	ldi	r28, 0x00	; 0
    4e72:	d0 e0       	ldi	r29, 0x00	; 0

    /* end loop if charging is too slow */
    if ((Pulses == 126) && (U_Cap < 75)) TempByte = 0;
    4e74:	fe e7       	ldi	r31, 0x7E	; 126
    4e76:	ef 16       	cp	r14, r31
    4e78:	f1 04       	cpc	r15, r1
    4e7a:	c1 f7       	brne	.-16     	; 0x4e6c <LargeCap+0x78>
    
    /* end loop if 300mV are reached */
    if (U_Cap >= 300) TempByte = 0;
    4e7c:	80 e0       	ldi	r24, 0x00	; 0

    /* end loop if maximum pulses are reached */
    if (Pulses == 500) TempByte = 0;
    4e7e:	f4 ef       	ldi	r31, 0xF4	; 244
    4e80:	ef 16       	cp	r14, r31
    4e82:	f1 e0       	ldi	r31, 0x01	; 1
    4e84:	ff 06       	cpc	r15, r31
    4e86:	09 f4       	brne	.+2      	; 0x4e8a <LargeCap+0x96>
    4e88:	80 e0       	ldi	r24, 0x00	; 0

    wdt_reset();                        /* reset watchdog */
    4e8a:	a8 95       	wdr

  /* charge DUT with up to 500 pulses until it reaches 300mV */
  /* pulse: probe-1 -- Rl -- Vcc */
  Pulses = 0;
  TempByte = 1;
  while (TempByte)
    4e8c:	81 11       	cpse	r24, r1
    4e8e:	cf cf       	rjmp	.-98     	; 0x4e2e <LargeCap+0x3a>
    wdt_reset();                        /* reset watchdog */
  }

  /* if 300mV are not reached DUT isn't a cap or much too large (>100mF) */
  /* we can ignore that for mid-sized caps */
  if (U_Cap < 300)
    4e90:	cc 32       	cpi	r28, 0x2C	; 44
    4e92:	81 e0       	ldi	r24, 0x01	; 1
    4e94:	d8 07       	cpc	r29, r24
    4e96:	08 f4       	brcc	.+2      	; 0x4e9a <LargeCap+0xa6>
  {
    Flag = 1;
    4e98:	11 e0       	ldi	r17, 0x01	; 1
  }

  /* if 1300mV are reached with one pulse, we got a small cap */
  if ((Pulses == 1) && (U_Cap > 1300))
    4e9a:	91 e0       	ldi	r25, 0x01	; 1
    4e9c:	e9 16       	cp	r14, r25
    4e9e:	f1 04       	cpc	r15, r1
    4ea0:	59 f4       	brne	.+22     	; 0x4eb8 <LargeCap+0xc4>
    4ea2:	c5 31       	cpi	r28, 0x15	; 21
    4ea4:	e5 e0       	ldi	r30, 0x05	; 5
    4ea6:	de 07       	cpc	r29, r30
    4ea8:	38 f0       	brcs	.+14     	; 0x4eb8 <LargeCap+0xc4>
    4eaa:	80 2f       	mov	r24, r16
    4eac:	80 71       	andi	r24, 0x10	; 16
  {
    if (Mode & PULL_10MS)               /* 10ms pulses (>47F) */
    {
      Mode = PULL_1MS | PULL_UP;        /* set mode to 1ms charging pulses (<47F) */
    4eae:	09 e0       	ldi	r16, 0x09	; 9
  }

  /* if 1300mV are reached with one pulse, we got a small cap */
  if ((Pulses == 1) && (U_Cap > 1300))
  {
    if (Mode & PULL_10MS)               /* 10ms pulses (>47F) */
    4eb0:	09 f0       	breq	.+2      	; 0x4eb4 <LargeCap+0xc0>
    4eb2:	a9 cf       	rjmp	.-174    	; 0x4e06 <LargeCap+0x12>
      Mode = PULL_1MS | PULL_UP;        /* set mode to 1ms charging pulses (<47F) */
      goto large_cap;                   /* and re-run */
    }
    else                                /* 1ms pulses (<47F) */
    {
      Flag = 2;                         /* signal low capacitance (<4.7F) */
    4eb4:	12 e0       	ldi	r17, 0x02	; 2
    4eb6:	c3 c0       	rjmp	.+390    	; 0x503e <LargeCap+0x24a>
   *  - This gives us the approximation of the leakage.
   *  - The charge required for the ADC conversion can be neglected because
   *    C_S/H is just 14pF (very small vs. DUT).
   */

  if (Flag == 3)
    4eb8:	13 30       	cpi	r17, 0x03	; 3
    4eba:	09 f0       	breq	.+2      	; 0x4ebe <LargeCap+0xca>
    4ebc:	c0 c0       	rjmp	.+384    	; 0x503e <LargeCap+0x24a>
    4ebe:	47 01       	movw	r8, r14
    4ec0:	80 e0       	ldi	r24, 0x00	; 0
    4ec2:	90 e0       	ldi	r25, 0x00	; 0
  {
    /* check self-discharging for measuring period */
    TempInt = Pulses;
    while (TempInt > 0)
    4ec4:	81 14       	cp	r8, r1
    4ec6:	91 04       	cpc	r9, r1
    4ec8:	59 f0       	breq	.+22     	; 0x4ee0 <LargeCap+0xec>
    {
      TempInt--;                        /* descrease timeout */
    4eca:	f1 e0       	ldi	r31, 0x01	; 1
    4ecc:	8f 1a       	sub	r8, r31
    4ece:	91 08       	sbc	r9, r1
      U_Drop = ReadU(Probes.Ch_1);      /* get voltage */
    4ed0:	80 91 da 01 	lds	r24, 0x01DA	; 0x8001da <Probes+0xf>
    4ed4:	0e 94 b7 1b 	call	0x376e	; 0x376e <ReadU>
      U_Drop -= U_Zero;                 /* zero offset */
    4ed8:	8a 19       	sub	r24, r10
    4eda:	9b 09       	sbc	r25, r11
      wdt_reset();                      /* reset watchdog */
    4edc:	a8 95       	wdr
    4ede:	f2 cf       	rjmp	.-28     	; 0x4ec4 <LargeCap+0xd0>
    }

    /* calculate voltage drop */
    if (U_Cap > U_Drop) U_Drop = U_Cap - U_Drop;
    4ee0:	8c 17       	cp	r24, r28
    4ee2:	9d 07       	cpc	r25, r29
    4ee4:	48 f4       	brcc	.+18     	; 0x4ef8 <LargeCap+0x104>
    4ee6:	4e 01       	movw	r8, r28
    4ee8:	88 1a       	sub	r8, r24
    4eea:	99 0a       	sbc	r9, r25
    else U_Drop = 0;

    /* if voltage drop is too large, consider DUT not to be a cap */
    if (U_Drop > 100) Flag = 0;
    4eec:	85 e6       	ldi	r24, 0x65	; 101
    4eee:	88 16       	cp	r8, r24
    4ef0:	91 04       	cpc	r9, r1
    4ef2:	20 f0       	brcs	.+8      	; 0x4efc <LargeCap+0x108>
    4ef4:	10 e0       	ldi	r17, 0x00	; 0
    4ef6:	02 c0       	rjmp	.+4      	; 0x4efc <LargeCap+0x108>
      wdt_reset();                      /* reset watchdog */
    }

    /* calculate voltage drop */
    if (U_Cap > U_Drop) U_Drop = U_Cap - U_Drop;
    else U_Drop = 0;
    4ef8:	81 2c       	mov	r8, r1
    4efa:	91 2c       	mov	r9, r1
    /*
     *  Take a second measurement with a specific delay to 
     *  determine the self-discharge leakage current.
     */

    U_Zero = ReadU(Probes.Ch_1);        /* get start voltage */
    4efc:	80 91 da 01 	lds	r24, 0x01DA	; 0x8001da <Probes+0xf>
    4f00:	0e 94 b7 1b 	call	0x376e	; 0x376e <ReadU>
    4f04:	5c 01       	movw	r10, r24
    4f06:	90 2f       	mov	r25, r16
    4f08:	90 71       	andi	r25, 0x10	; 16
    4f0a:	39 2e       	mov	r3, r25

    if (Mode & PULL_10MS)     /* > 47F */
    4f0c:	19 f0       	breq	.+6      	; 0x4f14 <LargeCap+0x120>
    {
      wait1000ms();
    4f0e:	0e 94 6e 3c 	call	0x78dc	; 0x78dc <wait1000ms>
    4f12:	02 c0       	rjmp	.+4      	; 0x4f18 <LargeCap+0x124>
    }
    else                      /* < 47F */
    {
      wait100ms();
    4f14:	0e 94 73 3c 	call	0x78e6	; 0x78e6 <wait100ms>
    }

    TempInt = ReadU(Probes.Ch_1);       /* get voltage after delay */
    4f18:	80 91 da 01 	lds	r24, 0x01DA	; 0x8001da <Probes+0xf>
    4f1c:	0e 94 b7 1b 	call	0x376e	; 0x376e <ReadU>

    /* calculate voltage drop */
    if (U_Zero > TempInt)               /* sanity check */
    4f20:	8a 15       	cp	r24, r10
    4f22:	9b 05       	cpc	r25, r11
    4f24:	18 f4       	brcc	.+6      	; 0x4f2c <LargeCap+0x138>
    {
      U_Zero -= TempInt;                /* voltage drop */
    4f26:	a8 1a       	sub	r10, r24
    4f28:	b9 0a       	sbc	r11, r25
    4f2a:	02 c0       	rjmp	.+4      	; 0x4f30 <LargeCap+0x13c>
    }
    else                                /* no drop */
    {
      U_Zero = 0;                       /* drop is zero */
    4f2c:	a1 2c       	mov	r10, r1
    4f2e:	b1 2c       	mov	r11, r1
   *  - use factor from pre-calculated LargeCap_table
   *  - ignore NV.CapZero since it's in the pF range
   *  - consider voltage drop by ADC and leakage
   */

  if (Flag == 3)
    4f30:	13 30       	cpi	r17, 0x03	; 3
    4f32:	09 f0       	breq	.+2      	; 0x4f36 <LargeCap+0x142>
    4f34:	84 c0       	rjmp	.+264    	; 0x503e <LargeCap+0x24a>
  {
    Scale = -9;                           /* factor is scaled to nF */
    /* get interpolated factor from table */
    Raw = GetFactor(U_Cap + U_Drop, TABLE_LARGE_CAP);
    4f36:	62 e0       	ldi	r22, 0x02	; 2
    4f38:	ce 01       	movw	r24, r28
    4f3a:	88 0d       	add	r24, r8
    4f3c:	99 1d       	adc	r25, r9
    4f3e:	0e 94 da 1d 	call	0x3bb4	; 0x3bb4 <GetFactor>
    Raw *= Pulses;                        /* C = pulses * factor */
    4f42:	9c 01       	movw	r18, r24
    4f44:	d7 01       	movw	r26, r14
    4f46:	0e 94 f6 3e 	call	0x7dec	; 0x7dec <__umulhisi3>
    4f4a:	2b 01       	movw	r4, r22
    4f4c:	3c 01       	movw	r6, r24
    if (Mode & PULL_10MS) Raw *= 10;      /* *10 for 10ms charging pulses */
    4f4e:	33 20       	and	r3, r3
    4f50:	31 f1       	breq	.+76     	; 0x4f9e <LargeCap+0x1aa>
    4f52:	aa e0       	ldi	r26, 0x0A	; 10
    4f54:	b0 e0       	ldi	r27, 0x00	; 0
    4f56:	9b 01       	movw	r18, r22
    4f58:	ac 01       	movw	r20, r24
    4f5a:	0e 94 0c 3f 	call	0x7e18	; 0x7e18 <__muluhisi3>
    4f5e:	2b 01       	movw	r4, r22
    4f60:	3c 01       	movw	r6, r24

    if (Raw > (UINT32_MAX / 1000))        /* scale down if C >4.3mF */
    4f62:	68 33       	cpi	r22, 0x38	; 56
    4f64:	e9 e8       	ldi	r30, 0x89	; 137
    4f66:	7e 07       	cpc	r23, r30
    4f68:	e1 e4       	ldi	r30, 0x41	; 65
    4f6a:	8e 07       	cpc	r24, r30
    4f6c:	91 05       	cpc	r25, r1
    4f6e:	08 f4       	brcc	.+2      	; 0x4f72 <LargeCap+0x17e>
    4f70:	6f c0       	rjmp	.+222    	; 0x5050 <LargeCap+0x25c>
    {
      Raw /= 1000;                        /* scale down by 10^3 */
    4f72:	c3 01       	movw	r24, r6
    4f74:	b2 01       	movw	r22, r4
    4f76:	28 ee       	ldi	r18, 0xE8	; 232
    4f78:	33 e0       	ldi	r19, 0x03	; 3
    4f7a:	40 e0       	ldi	r20, 0x00	; 0
    4f7c:	50 e0       	ldi	r21, 0x00	; 0
    4f7e:	0e 94 af 3e 	call	0x7d5e	; 0x7d5e <__udivmodsi4>
    4f82:	29 01       	movw	r4, r18
    4f84:	3a 01       	movw	r6, r20
    /*
     *  We got a systematic error which needs to be compensated.
     *  The compensation factor can vary with the tester model.
     */

    Value *= 1000;                        /* scale for 0.1% resolution */
    4f86:	a8 ee       	ldi	r26, 0xE8	; 232
    4f88:	b3 e0       	ldi	r27, 0x03	; 3
    4f8a:	0e 94 0c 3f 	call	0x7e18	; 0x7e18 <__muluhisi3>
    if (Mode & PULL_10MS) Raw *= 10;      /* *10 for 10ms charging pulses */

    if (Raw > (UINT32_MAX / 1000))        /* scale down if C >4.3mF */
    {
      Raw /= 1000;                        /* scale down by 10^3 */
      Scale += 3;                         /* add 3 to the exponent */
    4f8e:	ca ef       	ldi	r28, 0xFA	; 250
     *  We got a systematic error which needs to be compensated.
     *  The compensation factor can vary with the tester model.
     */

    Value *= 1000;                        /* scale for 0.1% resolution */
    if (Mode & PULL_10MS)          /* cap >47F */
    4f90:	33 20       	and	r3, r3
    4f92:	89 f0       	breq	.+34     	; 0x4fb6 <LargeCap+0x1c2>
    {
      Value /= (1000 - CAP_FACTOR_LARGE);    /* apply factor (in 0.1%) */
    4f94:	22 e4       	ldi	r18, 0x42	; 66
    4f96:	34 e0       	ldi	r19, 0x04	; 4
    4f98:	40 e0       	ldi	r20, 0x00	; 0
    4f9a:	50 e0       	ldi	r21, 0x00	; 0
    4f9c:	10 c0       	rjmp	.+32     	; 0x4fbe <LargeCap+0x1ca>
    /* get interpolated factor from table */
    Raw = GetFactor(U_Cap + U_Drop, TABLE_LARGE_CAP);
    Raw *= Pulses;                        /* C = pulses * factor */
    if (Mode & PULL_10MS) Raw *= 10;      /* *10 for 10ms charging pulses */

    if (Raw > (UINT32_MAX / 1000))        /* scale down if C >4.3mF */
    4f9e:	68 33       	cpi	r22, 0x38	; 56
    4fa0:	79 48       	sbci	r23, 0x89	; 137
    4fa2:	81 44       	sbci	r24, 0x41	; 65
    4fa4:	91 05       	cpc	r25, r1
    4fa6:	28 f7       	brcc	.-54     	; 0x4f72 <LargeCap+0x17e>
    /*
     *  We got a systematic error which needs to be compensated.
     *  The compensation factor can vary with the tester model.
     */

    Value *= 1000;                        /* scale for 0.1% resolution */
    4fa8:	a8 ee       	ldi	r26, 0xE8	; 232
    4faa:	b3 e0       	ldi	r27, 0x03	; 3
    4fac:	a3 01       	movw	r20, r6
    4fae:	92 01       	movw	r18, r4
    4fb0:	0e 94 0c 3f 	call	0x7e18	; 0x7e18 <__muluhisi3>
   *  - consider voltage drop by ADC and leakage
   */

  if (Flag == 3)
  {
    Scale = -9;                           /* factor is scaled to nF */
    4fb4:	c7 ef       	ldi	r28, 0xF7	; 247
    {
      Value /= (1000 - CAP_FACTOR_LARGE);    /* apply factor (in 0.1%) */
    }
    else                           /* cap 4.7-47F */
    {
      Value /= (1000 - CAP_FACTOR_MID);      /* apply factor (in 0.1%) */
    4fb6:	20 e1       	ldi	r18, 0x10	; 16
    4fb8:	34 e0       	ldi	r19, 0x04	; 4
    4fba:	40 e0       	ldi	r20, 0x00	; 0
    4fbc:	50 e0       	ldi	r21, 0x00	; 0
    4fbe:	0e 94 af 3e 	call	0x7d5e	; 0x7d5e <__udivmodsi4>
    }

    /* copy data */
    Cap->A = Probes.ID_2;     /* pull-down probe pin */
    4fc2:	80 91 cc 01 	lds	r24, 0x01CC	; 0x8001cc <Probes+0x1>
    4fc6:	f6 01       	movw	r30, r12
    4fc8:	80 83       	st	Z, r24
    Cap->B = Probes.ID_1;     /* pull-up probe pin */
    4fca:	80 91 cb 01 	lds	r24, 0x01CB	; 0x8001cb <Probes>
    4fce:	81 83       	std	Z+1, r24	; 0x01
    Cap->Scale = Scale;       /* -9 (nF) or -6 (F) */
    4fd0:	c2 83       	std	Z+2, r28	; 0x02
    Cap->Raw = Raw;           /* uncompensated value */
    4fd2:	47 82       	std	Z+7, r4	; 0x07
    4fd4:	50 86       	std	Z+8, r5	; 0x08
    4fd6:	61 86       	std	Z+9, r6	; 0x09
    4fd8:	72 86       	std	Z+10, r7	; 0x0a
    Cap->Value = Value;       /* compensated value */
    4fda:	23 83       	std	Z+3, r18	; 0x03
    4fdc:	34 83       	std	Z+4, r19	; 0x04
    4fde:	45 83       	std	Z+5, r20	; 0x05
    4fe0:	56 83       	std	Z+6, r21	; 0x06
     *    we get I = C * U_diff / t
     */
    
    while (Value > 800000)    /* rescale if necessary */
    {
      Value /= 10;
    4fe2:	8a e0       	ldi	r24, 0x0A	; 10
    4fe4:	48 2e       	mov	r4, r24
    4fe6:	51 2c       	mov	r5, r1
    4fe8:	61 2c       	mov	r6, r1
    4fea:	71 2c       	mov	r7, r1
     *  Calculate the self-discharge leakage current
     *  - with Q = C * U and I = Q / t
     *    we get I = C * U_diff / t
     */
    
    while (Value > 800000)    /* rescale if necessary */
    4fec:	21 30       	cpi	r18, 0x01	; 1
    4fee:	f5 e3       	ldi	r31, 0x35	; 53
    4ff0:	3f 07       	cpc	r19, r31
    4ff2:	fc e0       	ldi	r31, 0x0C	; 12
    4ff4:	4f 07       	cpc	r20, r31
    4ff6:	51 05       	cpc	r21, r1
    4ff8:	40 f0       	brcs	.+16     	; 0x500a <LargeCap+0x216>
    {
      Value /= 10;
    4ffa:	ca 01       	movw	r24, r20
    4ffc:	b9 01       	movw	r22, r18
    4ffe:	a3 01       	movw	r20, r6
    5000:	92 01       	movw	r18, r4
    5002:	0e 94 af 3e 	call	0x7d5e	; 0x7d5e <__udivmodsi4>
    5006:	cf 5f       	subi	r28, 0xFF	; 255
    5008:	f1 cf       	rjmp	.-30     	; 0x4fec <LargeCap+0x1f8>
      Scale++;
    }

    /* I = C * U_diff / t */
    Value *= U_Zero;          /* * U_diff (mV) */
    500a:	d5 01       	movw	r26, r10
    500c:	0e 94 0c 3f 	call	0x7e18	; 0x7e18 <__muluhisi3>
    Value /= 1000;            /* scale to V */
    5010:	28 ee       	ldi	r18, 0xE8	; 232
    5012:	33 e0       	ldi	r19, 0x03	; 3
    5014:	40 e0       	ldi	r20, 0x00	; 0
    5016:	50 e0       	ldi	r21, 0x00	; 0
    5018:	0e 94 af 3e 	call	0x7d5e	; 0x7d5e <__udivmodsi4>
    501c:	ca 01       	movw	r24, r20
    501e:	b9 01       	movw	r22, r18
    if (Mode & PULL_1MS)      /* short pulses */
    5020:	03 fd       	sbrc	r16, 3
    {
      Scale++;                /* / 0.1s */    
    5022:	cf 5f       	subi	r28, 0xFF	; 255
    }
    /* long pulses: / 1s */

    Raw = RescaleValue(Value, Scale, -8);    /* rescale to 10nA */
    5024:	28 ef       	ldi	r18, 0xF8	; 248
    5026:	4c 2f       	mov	r20, r28
    5028:	0e 94 74 13 	call	0x26e8	; 0x26e8 <RescaleValue>
    Cap->I_leak = Raw;                       /* leakage current (in 10nA) */
    502c:	f6 01       	movw	r30, r12
    502e:	63 87       	std	Z+11, r22	; 0x0b
    5030:	74 87       	std	Z+12, r23	; 0x0c
    5032:	85 87       	std	Z+13, r24	; 0x0d
    5034:	96 87       	std	Z+14, r25	; 0x0e
    5036:	83 e0       	ldi	r24, 0x03	; 3
    5038:	13 c0       	rjmp	.+38     	; 0x5060 <LargeCap+0x26c>

large_cap:

  /* prepare probes */
  DischargeProbes();                    /* try to discharge probes */
  if (Check.Found == COMP_ERROR) return 0;     /* skip on error */
    503a:	80 e0       	ldi	r24, 0x00	; 0
    503c:	11 c0       	rjmp	.+34     	; 0x5060 <LargeCap+0x26c>
      Scale++;                /* / 0.1s */    
    }
    /* long pulses: / 1s */

    Raw = RescaleValue(Value, Scale, -8);    /* rescale to 10nA */
    Cap->I_leak = Raw;                       /* leakage current (in 10nA) */
    503e:	81 2f       	mov	r24, r17
    5040:	0f c0       	rjmp	.+30     	; 0x5060 <LargeCap+0x26c>
    
    /* end loop if 300mV are reached */
    if (U_Cap >= 300) TempByte = 0;

    /* end loop if maximum pulses are reached */
    if (Pulses == 500) TempByte = 0;
    5042:	81 e0       	ldi	r24, 0x01	; 1
    5044:	cc 32       	cpi	r28, 0x2C	; 44
    5046:	91 e0       	ldi	r25, 0x01	; 1
    5048:	d9 07       	cpc	r29, r25
    504a:	08 f4       	brcc	.+2      	; 0x504e <LargeCap+0x25a>
    504c:	1e cf       	rjmp	.-452    	; 0x4e8a <LargeCap+0x96>
    504e:	1c cf       	rjmp	.-456    	; 0x4e88 <LargeCap+0x94>
    /*
     *  We got a systematic error which needs to be compensated.
     *  The compensation factor can vary with the tester model.
     */

    Value *= 1000;                        /* scale for 0.1% resolution */
    5050:	a8 ee       	ldi	r26, 0xE8	; 232
    5052:	b3 e0       	ldi	r27, 0x03	; 3
    5054:	9b 01       	movw	r18, r22
    5056:	ac 01       	movw	r20, r24
    5058:	0e 94 0c 3f 	call	0x7e18	; 0x7e18 <__muluhisi3>
   *  - consider voltage drop by ADC and leakage
   */

  if (Flag == 3)
  {
    Scale = -9;                           /* factor is scaled to nF */
    505c:	c7 ef       	ldi	r28, 0xF7	; 247
    505e:	9a cf       	rjmp	.-204    	; 0x4f94 <LargeCap+0x1a0>
    Raw = RescaleValue(Value, Scale, -8);    /* rescale to 10nA */
    Cap->I_leak = Raw;                       /* leakage current (in 10nA) */
  }

  return Flag;
}
    5060:	cd b7       	in	r28, 0x3d	; 61
    5062:	de b7       	in	r29, 0x3e	; 62
    5064:	e1 e1       	ldi	r30, 0x11	; 17
    5066:	0c 94 34 3f 	jmp	0x7e68	; 0x7e68 <__epilogue_restores__+0x2>

0000506a <SmallCap>:
 *  - 1 if capacitance is too high
 *  - 0 on any problem
 */

uint8_t SmallCap(Capacitor_Type *Cap)
{
    506a:	a0 e0       	ldi	r26, 0x00	; 0
    506c:	b0 e0       	ldi	r27, 0x00	; 0
    506e:	eb e3       	ldi	r30, 0x3B	; 59
    5070:	f8 e2       	ldi	r31, 0x28	; 40
    5072:	0c 94 1f 3f 	jmp	0x7e3e	; 0x7e3e <__prologue_saves__+0x10>
    5076:	ec 01       	movw	r28, r24
  /*
   *  init hardware
   */

  /* prepare probes */
  DischargeProbes();                    /* try to discharge probes */
    5078:	0e 94 2d 1d 	call	0x3a5a	; 0x3a5a <DischargeProbes>
  if (Check.Found == COMP_ERROR) return 0;     /* skip on error */
    507c:	80 91 06 01 	lds	r24, 0x0106	; 0x800106 <__data_end>
    5080:	81 30       	cpi	r24, 0x01	; 1
    5082:	09 f4       	brne	.+2      	; 0x5086 <SmallCap+0x1c>
    5084:	72 c0       	rjmp	.+228    	; 0x516a <SmallCap+0x100>

  /* set probes: Gnd -- all probes / Gnd -- Rh -- probe-1 */
  R_PORT = 0;                           /* set resistor port to low */
    5086:	15 b8       	out	0x05, r1	; 5
  /* set ADC probe pins to output mode */
  ADC_DDR = (1 << TP1) | (1 << TP2) | (1 << TP3);
    5088:	87 e0       	ldi	r24, 0x07	; 7
    508a:	87 b9       	out	0x07, r24	; 7
  ADC_PORT = 0;                         /* set ADC port to low */
    508c:	18 b8       	out	0x08, r1	; 8
  R_DDR = Probes.Rh_1;                  /* pull-down probe-1 via Rh */
    508e:	80 91 d4 01 	lds	r24, 0x01D4	; 0x8001d4 <Probes+0x9>
    5092:	84 b9       	out	0x04, r24	; 4

  /* set up analog comparator */
  ADCSRB = (1 << ACME);                 /* use ADC multiplexer as negative input */
    5094:	80 e4       	ldi	r24, 0x40	; 64
    5096:	80 93 7b 00 	sts	0x007B, r24	; 0x80007b <__DATA_REGION_ORIGIN__+0x1b>
  ACSR = (1 << ACBG) | (1 << ACIC);     /* use bandgap as positive input, trigger Timer1 */
    509a:	84 e4       	ldi	r24, 0x44	; 68
    509c:	80 bf       	out	0x30, r24	; 48
  ADMUX = ADC_REF_VCC | Probes.Ch_1;    /* switch ADC multiplexer to probe 1 */
    509e:	80 91 da 01 	lds	r24, 0x01DA	; 0x8001da <Probes+0xf>
    50a2:	80 64       	ori	r24, 0x40	; 64
    50a4:	80 93 7c 00 	sts	0x007C, r24	; 0x80007c <__DATA_REGION_ORIGIN__+0x1c>
                                        /* and set AREF to Vcc */
  ADCSRA = ADC_CLOCK_DIV;               /* disable ADC, but keep clock dividers */
    50a8:	86 e0       	ldi	r24, 0x06	; 6
    50aa:	80 93 7a 00 	sts	0x007A, r24	; 0x80007a <__DATA_REGION_ORIGIN__+0x1a>
  wait200us();
    50ae:	0e 94 82 3c 	call	0x7904	; 0x7904 <wait200us>

  /* set up timer */
  TCCR1A = 0;                           /* set default mode */
    50b2:	10 92 80 00 	sts	0x0080, r1	; 0x800080 <__DATA_REGION_ORIGIN__+0x20>
  TCCR1B = 0;                           /* set more timer modes */
    50b6:	10 92 81 00 	sts	0x0081, r1	; 0x800081 <__DATA_REGION_ORIGIN__+0x21>
  /* timer stopped, falling edge detection, noise canceler disabled */
  TCNT1 = 0;                            /* set Counter1 to 0 */
    50ba:	10 92 85 00 	sts	0x0085, r1	; 0x800085 <__DATA_REGION_ORIGIN__+0x25>
    50be:	10 92 84 00 	sts	0x0084, r1	; 0x800084 <__DATA_REGION_ORIGIN__+0x24>
  /* clear all flags (input capture, compare A & B, overflow */
  TIFR1 = (1 << ICF1) | (1 << OCF1B) | (1 << OCF1A) | (1 << TOV1);
    50c2:	87 e2       	ldi	r24, 0x27	; 39
    50c4:	86 bb       	out	0x16, r24	; 22
  R_PORT = Probes.Rh_1;                 /* pull-up probe-1 via Rh */
    50c6:	80 91 d4 01 	lds	r24, 0x01D4	; 0x8001d4 <Probes+0x9>
    50ca:	85 b9       	out	0x05, r24	; 5
                                        
  /* enable timer */
  if (Check.Found == COMP_FET)     /* measuring C_GS */  
    50cc:	80 91 06 01 	lds	r24, 0x0106	; 0x800106 <__data_end>
    50d0:	8f 31       	cpi	r24, 0x1F	; 31
    50d2:	29 f4       	brne	.+10     	; 0x50de <SmallCap+0x74>
  {
    /* keep all probe pins pulled down but probe-1 */
    TempByte = ((1 << TP1) | (1 << TP2) | (1 << TP3)) & ~(Probes.Pin_1);
    50d4:	80 91 d7 01 	lds	r24, 0x01D7	; 0x8001d7 <Probes+0xc>
    50d8:	80 95       	com	r24
    50da:	87 70       	andi	r24, 0x07	; 7
    50dc:	02 c0       	rjmp	.+4      	; 0x50e2 <SmallCap+0x78>
  }
  else                             /* normal measurement */
  {
    TempByte = Probes.Pin_2;            /* keep just probe-2 pulled down */
    50de:	80 91 d8 01 	lds	r24, 0x01D8	; 0x8001d8 <Probes+0xd>
  }

  /* start timer by setting clock prescaler (1/1 clock divider) */
  TCCR1B = (1 << CS10);
    50e2:	91 e0       	ldi	r25, 0x01	; 1
    50e4:	90 93 81 00 	sts	0x0081, r25	; 0x800081 <__DATA_REGION_ORIGIN__+0x21>
  ADC_DDR = TempByte;                   /* start charging DUT */
    50e8:	87 b9       	out	0x07, r24	; 7
   *  Remark:
   *  The analog comparator has an Input Leakage Current of -50nA up to 50nA 
   *  at Vcc/2. The Input Offset is <10mV at Vcc/2.
   */

  Ticks2 = 0;                           /* reset timer overflow counter */
    50ea:	e1 2c       	mov	r14, r1
    50ec:	f1 2c       	mov	r15, r1
   *  - detect timer overflow
   */

   while (1)
   {
     TempByte = TIFR1;                  /* get Timer1 flags */
    50ee:	86 b3       	in	r24, 0x16	; 22

     /* end loop if input capture flag is set (= same voltage) */
     if (TempByte & (1 << ICF1)) break;
    50f0:	85 fd       	sbrc	r24, 5
    50f2:	0c c0       	rjmp	.+24     	; 0x510c <SmallCap+0xa2>

     /* detect timer overflow by checking the overflow flag */
     if (TempByte & (1 << TOV1))
    50f4:	80 ff       	sbrs	r24, 0
    50f6:	fb cf       	rjmp	.-10     	; 0x50ee <SmallCap+0x84>
     {
       /* happens at 65.536ms for 1MHz or 8.192ms for 8MHz */
       TIFR1 = (1 << TOV1);             /* reset flag */
    50f8:	96 bb       	out	0x16, r25	; 22
       wdt_reset();                     /* reset watchdog */
    50fa:	a8 95       	wdr
       Ticks2++;                        /* increase overflow counter */
    50fc:	2f ef       	ldi	r18, 0xFF	; 255
    50fe:	e2 1a       	sub	r14, r18
    5100:	f2 0a       	sbc	r15, r18

       /* end loop if charging takes too long (13.1s) */
       if (Ticks2 == (CPU_FREQ / 5000)) break;
    5102:	20 e4       	ldi	r18, 0x40	; 64
    5104:	e2 16       	cp	r14, r18
    5106:	26 e0       	ldi	r18, 0x06	; 6
    5108:	f2 06       	cpc	r15, r18
    510a:	89 f7       	brne	.-30     	; 0x50ee <SmallCap+0x84>
     }
   }

  /* stop counter */
  TCCR1B = 0;                           /* stop timer */
    510c:	10 92 81 00 	sts	0x0081, r1	; 0x800081 <__DATA_REGION_ORIGIN__+0x21>
  TIFR1 = (1 << ICF1);                  /* reset Input Capture flag */
    5110:	90 e2       	ldi	r25, 0x20	; 32
    5112:	96 bb       	out	0x16, r25	; 22

  Ticks = ICR1;                         /* get counter value */
    5114:	c0 90 86 00 	lds	r12, 0x0086	; 0x800086 <__DATA_REGION_ORIGIN__+0x26>
    5118:	d0 90 87 00 	lds	r13, 0x0087	; 0x800087 <__DATA_REGION_ORIGIN__+0x27>

  /* disable charging */
  R_DDR = 0;                  /* set resistor port to HiZ mode */
    511c:	14 b8       	out	0x04, r1	; 4

  /* catch missed timer overflow */
  if ((TCNT1 > Ticks) && (TempByte & (1 << TOV1)))
    511e:	20 91 84 00 	lds	r18, 0x0084	; 0x800084 <__DATA_REGION_ORIGIN__+0x24>
    5122:	30 91 85 00 	lds	r19, 0x0085	; 0x800085 <__DATA_REGION_ORIGIN__+0x25>
    5126:	c2 16       	cp	r12, r18
    5128:	d3 06       	cpc	r13, r19
    512a:	38 f4       	brcc	.+14     	; 0x513a <SmallCap+0xd0>
    512c:	80 ff       	sbrs	r24, 0
    512e:	05 c0       	rjmp	.+10     	; 0x513a <SmallCap+0xd0>
  {
    TIFR1 = (1 << TOV1);                /* reset overflow flag */
    5130:	81 e0       	ldi	r24, 0x01	; 1
    5132:	86 bb       	out	0x16, r24	; 22
    Ticks2++;                           /* increase overflow counter */
    5134:	8f ef       	ldi	r24, 0xFF	; 255
    5136:	e8 1a       	sub	r14, r24
    5138:	f8 0a       	sbc	r15, r24
  }

  /* enable ADC again */
  ADCSRA = (1 << ADEN) | (1 << ADIF) | ADC_CLOCK_DIV;
    513a:	86 e9       	ldi	r24, 0x96	; 150
    513c:	80 93 7a 00 	sts	0x007A, r24	; 0x80007a <__DATA_REGION_ORIGIN__+0x1a>
  ADCSRB &= ~(1 << ACME);     /* disable ADC multiplexer as negative input */
    5140:	80 91 7b 00 	lds	r24, 0x007B	; 0x80007b <__DATA_REGION_ORIGIN__+0x1b>
    5144:	8f 7b       	andi	r24, 0xBF	; 191
    5146:	80 93 7b 00 	sts	0x007B, r24	; 0x80007b <__DATA_REGION_ORIGIN__+0x1b>

  #ifndef HW_ADJUST_CAP
  /* get voltage of DUT */
  U_c = ReadU(Probes.Ch_1);        /* get voltage of cap */
    514a:	80 91 da 01 	lds	r24, 0x01DA	; 0x8001da <Probes+0xf>
    514e:	0e 94 b7 1b 	call	0x376e	; 0x376e <ReadU>
    5152:	5c 01       	movw	r10, r24
  #endif

  /* start discharging DUT */
  R_PORT = 0;                      /* pull down probe-1 via Rh */
    5154:	15 b8       	out	0x05, r1	; 5
  R_DDR = Probes.Rh_1;             /* enable Rh for probe-1 again */
    5156:	80 91 d4 01 	lds	r24, 0x01D4	; 0x8001d4 <Probes+0x9>
    515a:	84 b9       	out	0x04, r24	; 4

  /* skip measurement if charging took too long */
  if (Ticks2 >= (CPU_FREQ / 5000)) Flag = 1;
    515c:	20 e4       	ldi	r18, 0x40	; 64
    515e:	e2 16       	cp	r14, r18
    5160:	26 e0       	ldi	r18, 0x06	; 6
    5162:	f2 06       	cpc	r15, r18
    5164:	20 f0       	brcs	.+8      	; 0x516e <SmallCap+0x104>
    5166:	81 e0       	ldi	r24, 0x01	; 1
    5168:	c6 c0       	rjmp	.+396    	; 0x52f6 <SmallCap+0x28c>
   *  init hardware
   */

  /* prepare probes */
  DischargeProbes();                    /* try to discharge probes */
  if (Check.Found == COMP_ERROR) return 0;     /* skip on error */
    516a:	80 e0       	ldi	r24, 0x00	; 0
    516c:	c4 c0       	rjmp	.+392    	; 0x52f6 <SmallCap+0x28c>
   */

  if (Flag == 3)
  {
    /*  combine both counter values */
    Raw = (uint32_t)Ticks;                /* set lower 16 bits */
    516e:	c6 01       	movw	r24, r12
    5170:	a0 e0       	ldi	r26, 0x00	; 0
    5172:	b0 e0       	ldi	r27, 0x00	; 0
    Raw |= (uint32_t)Ticks2 << 16;        /* set upper 16 bits */
    5174:	67 01       	movw	r12, r14
    5176:	e1 2c       	mov	r14, r1
    5178:	f1 2c       	mov	r15, r1
    517a:	76 01       	movw	r14, r12
    517c:	dd 24       	eor	r13, r13
    517e:	cc 24       	eor	r12, r12
    5180:	c8 2a       	or	r12, r24
    5182:	d9 2a       	or	r13, r25
    5184:	ea 2a       	or	r14, r26
    5186:	fb 2a       	or	r15, r27
    if (Raw > 2) Raw -= 2;                /* subtract processing time overhead */
    5188:	83 e0       	ldi	r24, 0x03	; 3
    518a:	c8 16       	cp	r12, r24
    518c:	d1 04       	cpc	r13, r1
    518e:	e1 04       	cpc	r14, r1
    5190:	f1 04       	cpc	r15, r1
    5192:	c8 f0       	brcs	.+50     	; 0x51c6 <SmallCap+0x15c>
    5194:	82 e0       	ldi	r24, 0x02	; 2
    5196:	c8 1a       	sub	r12, r24
    5198:	d1 08       	sbc	r13, r1
    519a:	e1 08       	sbc	r14, r1
    519c:	f1 08       	sbc	r15, r1

    Scale = -12;                          /* default factor is for pF scale */
    if (Raw > (UINT32_MAX / 1000))        /* prevent overflow (4.3*10^6) */
    519e:	28 e3       	ldi	r18, 0x38	; 56
    51a0:	c2 16       	cp	r12, r18
    51a2:	29 e8       	ldi	r18, 0x89	; 137
    51a4:	d2 06       	cpc	r13, r18
    51a6:	21 e4       	ldi	r18, 0x41	; 65
    51a8:	e2 06       	cpc	r14, r18
    51aa:	f1 04       	cpc	r15, r1
    51ac:	60 f0       	brcs	.+24     	; 0x51c6 <SmallCap+0x15c>
    {
      Raw /= 1000;                        /* scale down by 10^3 */
    51ae:	c7 01       	movw	r24, r14
    51b0:	b6 01       	movw	r22, r12
    51b2:	28 ee       	ldi	r18, 0xE8	; 232
    51b4:	33 e0       	ldi	r19, 0x03	; 3
    51b6:	40 e0       	ldi	r20, 0x00	; 0
    51b8:	50 e0       	ldi	r21, 0x00	; 0
    51ba:	0e 94 af 3e 	call	0x7d5e	; 0x7d5e <__udivmodsi4>
    51be:	69 01       	movw	r12, r18
    51c0:	7a 01       	movw	r14, r20
      Scale += 3;                         /* add 3 to the exponent (nF) */
    51c2:	17 ef       	ldi	r17, 0xF7	; 247
    51c4:	01 c0       	rjmp	.+2      	; 0x51c8 <SmallCap+0x15e>
    /*  combine both counter values */
    Raw = (uint32_t)Ticks;                /* set lower 16 bits */
    Raw |= (uint32_t)Ticks2 << 16;        /* set upper 16 bits */
    if (Raw > 2) Raw -= 2;                /* subtract processing time overhead */

    Scale = -12;                          /* default factor is for pF scale */
    51c6:	14 ef       	ldi	r17, 0xF4	; 244
      Raw /= 1000;                        /* scale down by 10^3 */
      Scale += 3;                         /* add 3 to the exponent (nF) */
    }

    /* multiply with factor from table */
    Raw *= GetFactor(Cfg.Bandgap + NV.CompOffset, TABLE_SMALL_CAP);
    51c8:	20 91 e5 01 	lds	r18, 0x01E5	; 0x8001e5 <NV+0x8>
    51cc:	80 91 a6 01 	lds	r24, 0x01A6	; 0x8001a6 <Cfg+0x6>
    51d0:	90 91 a7 01 	lds	r25, 0x01A7	; 0x8001a7 <Cfg+0x7>
    51d4:	61 e0       	ldi	r22, 0x01	; 1
    51d6:	82 0f       	add	r24, r18
    51d8:	91 1d       	adc	r25, r1
    51da:	27 fd       	sbrc	r18, 7
    51dc:	9a 95       	dec	r25
    51de:	0e 94 da 1d 	call	0x3bb4	; 0x3bb4 <GetFactor>

    /* divide by CPU frequency to get the time and multiply with table scale */
    Raw /= (CPU_FREQ / 10000);
    51e2:	dc 01       	movw	r26, r24
    51e4:	a7 01       	movw	r20, r14
    51e6:	96 01       	movw	r18, r12
    51e8:	0e 94 0c 3f 	call	0x7e18	; 0x7e18 <__muluhisi3>
    51ec:	20 e2       	ldi	r18, 0x20	; 32
    51ee:	33 e0       	ldi	r19, 0x03	; 3
    51f0:	40 e0       	ldi	r20, 0x00	; 0
    51f2:	50 e0       	ldi	r21, 0x00	; 0
    51f4:	0e 94 af 3e 	call	0x7d5e	; 0x7d5e <__udivmodsi4>
    #endif

    Value = Raw;                          /* take raw value */

    /* take care about zero offset if feasable */
    if (Scale == -12)                     /* pF scale */
    51f8:	14 3f       	cpi	r17, 0xF4	; 244
    51fa:	89 f4       	brne	.+34     	; 0x521e <SmallCap+0x1b4>
      if (Value >= NV.CapZero[TempByte])  /* if value is larger than offset */
      {
        Value -= NV.CapZero[TempByte];    /* substract offset */
      }
      #else
      if (Value >= NV.CapZero)            /* if value is larger than offset */
    51fc:	80 91 e3 01 	lds	r24, 0x01E3	; 0x8001e3 <NV+0x6>
    5200:	90 e0       	ldi	r25, 0x00	; 0
    5202:	a0 e0       	ldi	r26, 0x00	; 0
    5204:	b0 e0       	ldi	r27, 0x00	; 0
    5206:	28 17       	cp	r18, r24
    5208:	39 07       	cpc	r19, r25
    520a:	4a 07       	cpc	r20, r26
    520c:	5b 07       	cpc	r21, r27
    520e:	50 f0       	brcs	.+20     	; 0x5224 <SmallCap+0x1ba>
      {
        Value -= NV.CapZero;              /* substract offset */
    5210:	69 01       	movw	r12, r18
    5212:	7a 01       	movw	r14, r20
    5214:	c8 1a       	sub	r12, r24
    5216:	d9 0a       	sbc	r13, r25
    5218:	ea 0a       	sbc	r14, r26
    521a:	fb 0a       	sbc	r15, r27
    521c:	06 c0       	rjmp	.+12     	; 0x522a <SmallCap+0x1c0>

    /* multiply with factor from table */
    Raw *= GetFactor(Cfg.Bandgap + NV.CompOffset, TABLE_SMALL_CAP);

    /* divide by CPU frequency to get the time and multiply with table scale */
    Raw /= (CPU_FREQ / 10000);
    521e:	69 01       	movw	r12, r18
    5220:	7a 01       	movw	r14, r20
    5222:	03 c0       	rjmp	.+6      	; 0x522a <SmallCap+0x1c0>
      }
      #endif
      else                                /* if value is smaller than offset */
      {
        /* we have to prevent a negative value */
        Value = 0;                        /* set value to 0 */
    5224:	c1 2c       	mov	r12, r1
    5226:	d1 2c       	mov	r13, r1
    5228:	76 01       	movw	r14, r12
      }
    }

    /* copy data */
    Cap->A = Probes.ID_2;     /* pull-down probe pin */
    522a:	80 91 cc 01 	lds	r24, 0x01CC	; 0x8001cc <Probes+0x1>
    522e:	88 83       	st	Y, r24
    Cap->B = Probes.ID_1;     /* pull-up probe pin */
    5230:	80 91 cb 01 	lds	r24, 0x01CB	; 0x8001cb <Probes>
    5234:	89 83       	std	Y+1, r24	; 0x01
    Cap->Scale = Scale;       /* -12 or -9 */
    5236:	1a 83       	std	Y+2, r17	; 0x02
    Cap->Raw = Raw;
    5238:	2f 83       	std	Y+7, r18	; 0x07
    523a:	38 87       	std	Y+8, r19	; 0x08
    523c:	49 87       	std	Y+9, r20	; 0x09
    523e:	5a 87       	std	Y+10, r21	; 0x0a
    Cap->Value = Value;       /* max. 5.1*10^6pF or 125*10^3nF */
    5240:	cb 82       	std	Y+3, r12	; 0x03
    5242:	dc 82       	std	Y+4, r13	; 0x04
    5244:	ed 82       	std	Y+5, r14	; 0x05
    5246:	fe 82       	std	Y+6, r15	; 0x06
     *  bandgap reference if C is 100nF up to 20F. The minimum of 100nF
     *  should keep the voltage stable long enough for the measurements. 
     *  Changed offsets will be used in next test run.
     */

    if (((Scale == -12) && (Value >= 100000)) ||
    5248:	14 3f       	cpi	r17, 0xF4	; 244
    524a:	49 f4       	brne	.+18     	; 0x525e <SmallCap+0x1f4>
    524c:	80 ea       	ldi	r24, 0xA0	; 160
    524e:	c8 16       	cp	r12, r24
    5250:	86 e8       	ldi	r24, 0x86	; 134
    5252:	d8 06       	cpc	r13, r24
    5254:	81 e0       	ldi	r24, 0x01	; 1
    5256:	e8 06       	cpc	r14, r24
    5258:	f1 04       	cpc	r15, r1
    525a:	60 f4       	brcc	.+24     	; 0x5274 <SmallCap+0x20a>
    525c:	4b c0       	rjmp	.+150    	; 0x52f4 <SmallCap+0x28a>
    525e:	17 3f       	cpi	r17, 0xF7	; 247
    5260:	09 f0       	breq	.+2      	; 0x5264 <SmallCap+0x1fa>
    5262:	48 c0       	rjmp	.+144    	; 0x52f4 <SmallCap+0x28a>
        ((Scale == -9) && (Value <= 20000)))
    5264:	21 e2       	ldi	r18, 0x21	; 33
    5266:	c2 16       	cp	r12, r18
    5268:	2e e4       	ldi	r18, 0x4E	; 78
    526a:	d2 06       	cpc	r13, r18
    526c:	e1 04       	cpc	r14, r1
    526e:	f1 04       	cpc	r15, r1
    5270:	08 f0       	brcs	.+2      	; 0x5274 <SmallCap+0x20a>
    5272:	40 c0       	rjmp	.+128    	; 0x52f4 <SmallCap+0x28a>
       *  by measuring a voltage lower than the bandgap reference, one time
       *  with the bandgap as reference and a second time with Vcc as
       *  reference. The common voltage source is the cap we just measured.
       */

       while (ReadU(Probes.Ch_1) > 980)      /* discharge below bandgap ref */ 
    5274:	80 91 da 01 	lds	r24, 0x01DA	; 0x8001da <Probes+0xf>
    5278:	0e 94 b7 1b 	call	0x376e	; 0x376e <ReadU>
    527c:	85 3d       	cpi	r24, 0xD5	; 213
    527e:	93 40       	sbci	r25, 0x03	; 3
    5280:	c8 f7       	brcc	.-14     	; 0x5274 <SmallCap+0x20a>
       {
         /* keep discharging */
       }

       R_DDR = 0;                       /* stop discharging */
    5282:	14 b8       	out	0x04, r1	; 4

       Cfg.AutoScale = 0;               /* disable auto scaling */
    5284:	10 92 a4 01 	sts	0x01A4, r1	; 0x8001a4 <Cfg+0x4>
       Ticks = ReadU(Probes.Ch_1);      /* U_c with Vcc reference */
    5288:	80 91 da 01 	lds	r24, 0x01DA	; 0x8001da <Probes+0xf>
    528c:	0e 94 b7 1b 	call	0x376e	; 0x376e <ReadU>
    5290:	ec 01       	movw	r28, r24
       Cfg.AutoScale = 1;               /* enable auto scaling again */
    5292:	81 e0       	ldi	r24, 0x01	; 1
    5294:	80 93 a4 01 	sts	0x01A4, r24	; 0x8001a4 <Cfg+0x4>
       Ticks2 = ReadU(Probes.Ch_1);     /* U_c with bandgap reference */
    5298:	80 91 da 01 	lds	r24, 0x01DA	; 0x8001da <Probes+0xf>
    529c:	0e 94 b7 1b 	call	0x376e	; 0x376e <ReadU>
    52a0:	ac 01       	movw	r20, r24

       R_DDR = Probes.Rh_1;             /* resume discharging */
    52a2:	80 91 d4 01 	lds	r24, 0x01D4	; 0x8001d4 <Probes+0x9>
    52a6:	84 b9       	out	0x04, r24	; 4

       Offset = Ticks - Ticks2;         /* difference */
    52a8:	de 01       	movw	r26, r28
    52aa:	a4 1b       	sub	r26, r20
    52ac:	b5 0b       	sbc	r27, r21
       Ticks = Cfg.Bandgap;             /* current U_bandgap incl. offset */
    52ae:	c0 91 a6 01 	lds	r28, 0x01A6	; 0x8001a6 <Cfg+0x6>
    52b2:	d0 91 a7 01 	lds	r29, 0x01A7	; 0x8001a7 <Cfg+0x7>

       /* allow some difference caused by the different voltage resolutions
          (4.88 vs. 1.07) */
       if ((Offset < -4) || (Offset > 4))    /* difference too large */
    52b6:	cd 01       	movw	r24, r26
    52b8:	04 96       	adiw	r24, 0x04	; 4
    52ba:	09 97       	sbiw	r24, 0x09	; 9
    52bc:	88 f0       	brcs	.+34     	; 0x52e0 <SmallCap+0x276>
          *    Offset = factor * U_ref = (Delta / U_c_bandgap) * U_ref
          *           = (Delta * U_ref) / U_c_bandgap
          */

         TempLong = Offset;                  /* delta */
         TempLong *= Ticks;                  /* * U_ref */
    52be:	9e 01       	movw	r18, r28
    52c0:	0e 94 05 3f 	call	0x7e0a	; 0x7e0a <__usmulhisi3>
         TempLong /= Ticks2;                 /* / U_c_bandgap */

         NV.RefOffset += (int8_t)TempLong;   /* update offset */
    52c4:	9a 01       	movw	r18, r20
    52c6:	40 e0       	ldi	r20, 0x00	; 0
    52c8:	50 e0       	ldi	r21, 0x00	; 0
    52ca:	0e 94 d1 3e 	call	0x7da2	; 0x7da2 <__divmodsi4>
    52ce:	80 91 e4 01 	lds	r24, 0x01E4	; 0x8001e4 <NV+0x7>
    52d2:	28 0f       	add	r18, r24
    52d4:	20 93 e4 01 	sts	0x01E4, r18	; 0x8001e4 <NV+0x7>
         Ticks += (int8_t)Value;             /* update local U_bandgap */
    52d8:	cc 0d       	add	r28, r12
    52da:	d1 1d       	adc	r29, r1
    52dc:	c7 fc       	sbrc	r12, 7
    52de:	da 95       	dec	r29
       *  MCU used actually U_bandgap + U_offset. We get that offset by
       *  comparing the bandgap reference with the voltage of the cap:
       *  U_c = U_bandgap + U_offset -> U_offset = U_c - U_bandgap
       */

      Offset = U_c - Ticks;
    52e0:	85 01       	movw	r16, r10
    52e2:	0c 1b       	sub	r16, r28
    52e4:	1d 0b       	sbc	r17, r29

      /* limit offset to a valid range of -50mV - 50mV */
      if ((Offset > -50) && (Offset < 50))
    52e6:	c8 01       	movw	r24, r16
    52e8:	c1 96       	adiw	r24, 0x31	; 49
    52ea:	83 36       	cpi	r24, 0x63	; 99
    52ec:	91 05       	cpc	r25, r1
    52ee:	10 f4       	brcc	.+4      	; 0x52f4 <SmallCap+0x28a>
      {
        NV.CompOffset = Offset;         /* update offset */
    52f0:	00 93 e5 01 	sts	0x01E5, r16	; 0x8001e5 <NV+0x8>
    52f4:	83 e0       	ldi	r24, 0x03	; 3
    }
    #endif
  }

  return Flag;
}
    52f6:	cd b7       	in	r28, 0x3d	; 61
    52f8:	de b7       	in	r29, 0x3e	; 62
    52fa:	ea e0       	ldi	r30, 0x0A	; 10
    52fc:	0c 94 3b 3f 	jmp	0x7e76	; 0x7e76 <__epilogue_restores__+0x10>

00005300 <MeasureCap>:
 *  - Probe2: ID of probe to be pulled down [0-2]
 *  - ID: capacitor ID [0-2]
 */

void MeasureCap(uint8_t Probe1, uint8_t Probe2, uint8_t ID)
{
    5300:	a0 e0       	ldi	r26, 0x00	; 0
    5302:	b0 e0       	ldi	r27, 0x00	; 0
    5304:	e6 e8       	ldi	r30, 0x86	; 134
    5306:	f9 e2       	ldi	r31, 0x29	; 41
    5308:	0c 94 1f 3f 	jmp	0x7e3e	; 0x7e3e <__prologue_saves__+0x10>
   *  init
   */

  /* reset cap data */
  Cap = &Caps[ID];
  Cap->A = 0;
    530c:	c4 2e       	mov	r12, r20
    530e:	d1 2c       	mov	r13, r1
    5310:	2f e0       	ldi	r18, 0x0F	; 15
    5312:	42 9f       	mul	r20, r18
    5314:	f0 01       	movw	r30, r0
    5316:	11 24       	eor	r1, r1
    5318:	e1 5b       	subi	r30, 0xB1	; 177
    531a:	fe 4f       	sbci	r31, 0xFE	; 254
    531c:	10 82       	st	Z, r1
  Cap->B = 0;
    531e:	11 82       	std	Z+1, r1	; 0x01
  Cap->Scale = -12;           /* pF by default */
    5320:	94 ef       	ldi	r25, 0xF4	; 244
    5322:	92 83       	std	Z+2, r25	; 0x02
  Cap->Raw = 0;
    5324:	17 82       	std	Z+7, r1	; 0x07
    5326:	10 86       	std	Z+8, r1	; 0x08
    5328:	11 86       	std	Z+9, r1	; 0x09
    532a:	12 86       	std	Z+10, r1	; 0x0a
  Cap->Value = 0;
    532c:	13 82       	std	Z+3, r1	; 0x03
    532e:	14 82       	std	Z+4, r1	; 0x04
    5330:	15 82       	std	Z+5, r1	; 0x05
    5332:	16 82       	std	Z+6, r1	; 0x06
  Cap->I_leak = 0;
    5334:	13 86       	std	Z+11, r1	; 0x0b
    5336:	14 86       	std	Z+12, r1	; 0x0c
    5338:	15 86       	std	Z+13, r1	; 0x0d
    533a:	16 86       	std	Z+14, r1	; 0x0e

  if (Check.Found == COMP_ERROR) return;    /* skip check on any error */
    533c:	90 91 06 01 	lds	r25, 0x0106	; 0x800106 <__data_end>
    5340:	91 30       	cpi	r25, 0x01	; 1
    5342:	09 f4       	brne	.+2      	; 0x5346 <MeasureCap+0x46>
    5344:	7f c0       	rjmp	.+254    	; 0x5444 <MeasureCap+0x144>
    5346:	b6 2e       	mov	r11, r22
    5348:	f8 2e       	mov	r15, r24
  /*
   *  Normaly we would skip resistors, but a resistor < 10 Ohms could be
   *  also a large cap.
   */

  if (Check.Found == COMP_RESISTOR)
    534a:	9a 30       	cpi	r25, 0x0A	; 10
    534c:	91 f4       	brne	.+36     	; 0x5372 <MeasureCap+0x72>
    534e:	c1 e1       	ldi	r28, 0x11	; 17
    5350:	d1 e0       	ldi	r29, 0x01	; 1
    5352:	a1 2c       	mov	r10, r1
    5354:	07 c0       	rjmp	.+14     	; 0x5364 <MeasureCap+0x64>
    TempByte = 0;

    while (TempByte < Check.Resistors)       /* loop through all resistors */
    {
      /* got matching pins */
      if (((Resistor->A == Probe1) && (Resistor->B == Probe2)) ||
    5356:	88 81       	ld	r24, Y
    5358:	8f 15       	cp	r24, r15
    535a:	91 f0       	breq	.+36     	; 0x5380 <MeasureCap+0x80>
    535c:	8b 15       	cp	r24, r11
    535e:	a1 f0       	breq	.+40     	; 0x5388 <MeasureCap+0x88>
        /* check for low value < 10 Ohms */
        if (CmpValue(Resistor->Value, Resistor->Scale, 10UL, 0) == -1)
          TempByte = 99;                /* signal low resistance and end loop */
      }

      TempByte++;      /* next one */
    5360:	a3 94       	inc	r10
      Resistor++;      /* next one */  
    5362:	27 96       	adiw	r28, 0x07	; 7
  if (Check.Found == COMP_RESISTOR)
  {
    Resistor = &Resistors[0];         /* pointer to first resistor */
    TempByte = 0;

    while (TempByte < Check.Resistors)       /* loop through all resistors */
    5364:	80 91 0a 01 	lds	r24, 0x010A	; 0x80010a <__data_end+0x4>
    5368:	a8 16       	cp	r10, r24
    536a:	a8 f3       	brcs	.-22     	; 0x5356 <MeasureCap+0x56>
      TempByte++;      /* next one */
      Resistor++;      /* next one */  
    }

    /* we got a valid resistor */ 
    if (TempByte != 100) return;        /* skip this one */
    536c:	84 e6       	ldi	r24, 0x64	; 100
    536e:	a8 12       	cpse	r10, r24
    5370:	69 c0       	rjmp	.+210    	; 0x5444 <MeasureCap+0x144>
  /*
   *  Skip measurement for "dangerous" diodes
   *  - when Vf collides with the voltage of the capacitance measurement
   */

  Diode = SearchDiode(Probe1, Probe2);  /* search for matching diode */
    5372:	6b 2d       	mov	r22, r11
    5374:	8f 2d       	mov	r24, r15
    5376:	0e 94 8a 2a 	call	0x5514	; 0x5514 <SearchDiode>
  if (Diode != NULL)                    /* got it */
    537a:	00 97       	sbiw	r24, 0x00	; 0
    537c:	c9 f4       	brne	.+50     	; 0x53b0 <MeasureCap+0xb0>
    537e:	1f c0       	rjmp	.+62     	; 0x53be <MeasureCap+0xbe>
    TempByte = 0;

    while (TempByte < Check.Resistors)       /* loop through all resistors */
    {
      /* got matching pins */
      if (((Resistor->A == Probe1) && (Resistor->B == Probe2)) ||
    5380:	99 81       	ldd	r25, Y+1	; 0x01
    5382:	9b 11       	cpse	r25, r11
    5384:	eb cf       	rjmp	.-42     	; 0x535c <MeasureCap+0x5c>
    5386:	03 c0       	rjmp	.+6      	; 0x538e <MeasureCap+0x8e>
          ((Resistor->A == Probe2) && (Resistor->B == Probe1)))
    5388:	89 81       	ldd	r24, Y+1	; 0x01
    538a:	f8 12       	cpse	r15, r24
    538c:	e9 cf       	rjmp	.-46     	; 0x5360 <MeasureCap+0x60>
      {
        /* check for low value < 10 Ohms */
        if (CmpValue(Resistor->Value, Resistor->Scale, 10UL, 0) == -1)
    538e:	6b 81       	ldd	r22, Y+3	; 0x03
    5390:	7c 81       	ldd	r23, Y+4	; 0x04
    5392:	8d 81       	ldd	r24, Y+5	; 0x05
    5394:	9e 81       	ldd	r25, Y+6	; 0x06
    5396:	e1 2c       	mov	r14, r1
    5398:	0a e0       	ldi	r16, 0x0A	; 10
    539a:	10 e0       	ldi	r17, 0x00	; 0
    539c:	20 e0       	ldi	r18, 0x00	; 0
    539e:	30 e0       	ldi	r19, 0x00	; 0
    53a0:	4a 81       	ldd	r20, Y+2	; 0x02
    53a2:	0e 94 fd 12 	call	0x25fa	; 0x25fa <CmpValue>
    53a6:	8f 3f       	cpi	r24, 0xFF	; 255
    53a8:	d9 f6       	brne	.-74     	; 0x5360 <MeasureCap+0x60>
          TempByte = 99;                /* signal low resistance and end loop */
    53aa:	83 e6       	ldi	r24, 0x63	; 99
    53ac:	a8 2e       	mov	r10, r24
    53ae:	d8 cf       	rjmp	.-80     	; 0x5360 <MeasureCap+0x60>
   */

  Diode = SearchDiode(Probe1, Probe2);  /* search for matching diode */
  if (Diode != NULL)                    /* got it */
  {
    if (Diode->V_f < 1500)              /* Vf too low */
    53b0:	fc 01       	movw	r30, r24
    53b2:	82 81       	ldd	r24, Z+2	; 0x02
    53b4:	93 81       	ldd	r25, Z+3	; 0x03
    53b6:	8c 3d       	cpi	r24, 0xDC	; 220
    53b8:	95 40       	sbci	r25, 0x05	; 5
    53ba:	08 f4       	brcc	.+2      	; 0x53be <MeasureCap+0xbe>
    53bc:	43 c0       	rjmp	.+134    	; 0x5444 <MeasureCap+0x144>
  /*
   *  init
   */

  /* reset cap data */
  Cap = &Caps[ID];
    53be:	8f e0       	ldi	r24, 0x0F	; 15
    53c0:	8c 9d       	mul	r24, r12
    53c2:	e0 01       	movw	r28, r0
    53c4:	8d 9d       	mul	r24, r13
    53c6:	d0 0d       	add	r29, r0
    53c8:	11 24       	eor	r1, r1
    53ca:	c1 5b       	subi	r28, 0xB1	; 177
    53cc:	de 4f       	sbci	r29, 0xFE	; 254

  /*
   *  run measurements
   */

  UpdateProbes(Probe1, Probe2, 0);           /* update register bits and probes */
    53ce:	40 e0       	ldi	r20, 0x00	; 0
    53d0:	6b 2d       	mov	r22, r11
    53d2:	8f 2d       	mov	r24, r15
    53d4:	0e 94 2a 1c 	call	0x3854	; 0x3854 <UpdateProbes>

  /* first run measurement for large caps */ 
  TempByte = LargeCap(Cap);
    53d8:	ce 01       	movw	r24, r28
    53da:	0e 94 fa 26 	call	0x4df4	; 0x4df4 <LargeCap>

  /* if cap is too small run measurement for small caps */
  if (TempByte == 2)
    53de:	82 30       	cpi	r24, 0x02	; 2
    53e0:	19 f4       	brne	.+6      	; 0x53e8 <MeasureCap+0xe8>
  {
    TempByte = SmallCap(Cap);
    53e2:	ce 01       	movw	r24, r28
    53e4:	0e 94 35 28 	call	0x506a	; 0x506a <SmallCap>
   *  check for plausibility
   *  - skip diodes which could be detected as capacitors
   *  - skip any transistor
   */

  if (Check.Found < COMP_DIODE)
    53e8:	80 91 06 01 	lds	r24, 0x0106	; 0x800106 <__data_end>
    53ec:	84 31       	cpi	r24, 0x14	; 20
    53ee:	20 f5       	brcc	.+72     	; 0x5438 <MeasureCap+0x138>
  {
    /* low resistance might be a large cap */
    if (Check.Found == COMP_RESISTOR)
    53f0:	8a 30       	cpi	r24, 0x0A	; 10
    53f2:	79 f4       	brne	.+30     	; 0x5412 <MeasureCap+0x112>
    {
      /* report capacitor only for a large C (> 4.3F) */
      if (Cap->Scale >= -6) Check.Found = COMP_CAPACITOR;
    53f4:	8f e0       	ldi	r24, 0x0F	; 15
    53f6:	8c 9d       	mul	r24, r12
    53f8:	f0 01       	movw	r30, r0
    53fa:	8d 9d       	mul	r24, r13
    53fc:	f0 0d       	add	r31, r0
    53fe:	11 24       	eor	r1, r1
    5400:	e1 5b       	subi	r30, 0xB1	; 177
    5402:	fe 4f       	sbci	r31, 0xFE	; 254
    5404:	82 81       	ldd	r24, Z+2	; 0x02
    5406:	8a 3f       	cpi	r24, 0xFA	; 250
    5408:	bc f0       	brlt	.+46     	; 0x5438 <MeasureCap+0x138>
    540a:	8b e0       	ldi	r24, 0x0B	; 11
    540c:	80 93 06 01 	sts	0x0106, r24	; 0x800106 <__data_end>
    5410:	13 c0       	rjmp	.+38     	; 0x5438 <MeasureCap+0x138>
    }

    /* we consider values below 5pF being just ghosts */
    else if ((Cap->Scale > -12) || (Cap->Value >= 5UL))
    5412:	8f e0       	ldi	r24, 0x0F	; 15
    5414:	8c 9d       	mul	r24, r12
    5416:	f0 01       	movw	r30, r0
    5418:	8d 9d       	mul	r24, r13
    541a:	f0 0d       	add	r31, r0
    541c:	11 24       	eor	r1, r1
    541e:	e1 5b       	subi	r30, 0xB1	; 177
    5420:	fe 4f       	sbci	r31, 0xFE	; 254
    5422:	82 81       	ldd	r24, Z+2	; 0x02
    5424:	85 3f       	cpi	r24, 0xF5	; 245
    5426:	8c f7       	brge	.-30     	; 0x540a <MeasureCap+0x10a>
    5428:	83 81       	ldd	r24, Z+3	; 0x03
    542a:	94 81       	ldd	r25, Z+4	; 0x04
    542c:	a5 81       	ldd	r26, Z+5	; 0x05
    542e:	b6 81       	ldd	r27, Z+6	; 0x06
    5430:	05 97       	sbiw	r24, 0x05	; 5
    5432:	a1 05       	cpc	r26, r1
    5434:	b1 05       	cpc	r27, r1
    5436:	48 f7       	brcc	.-46     	; 0x540a <MeasureCap+0x10a>

  /*
   *  clean up
   */

  DischargeProbes();               /* discharge DUT */
    5438:	0e 94 2d 1d 	call	0x3a5a	; 0x3a5a <DischargeProbes>

  /* reset all ports and pins */
  ADC_DDR = 0;                     /* set ADC port to input */
    543c:	17 b8       	out	0x07, r1	; 7
  ADC_PORT = 0;                    /* set ADC port low */
    543e:	18 b8       	out	0x08, r1	; 8
  R_DDR = 0;                       /* set resistor port to input */
    5440:	14 b8       	out	0x04, r1	; 4
  R_PORT = 0;                      /* set resistor port low */
    5442:	15 b8       	out	0x05, r1	; 5
}
    5444:	cd b7       	in	r28, 0x3d	; 61
    5446:	de b7       	in	r29, 0x3e	; 62
    5448:	ea e0       	ldi	r30, 0x0A	; 10
    544a:	0c 94 3b 3f 	jmp	0x7e76	; 0x7e76 <__epilogue_restores__+0x10>

0000544e <GetLeakageCurrent>:
 *    0 = normal
 *    1 = high current
 */

void GetLeakageCurrent(uint8_t Mode)
{
    544e:	cf 92       	push	r12
    5450:	df 92       	push	r13
    5452:	ef 92       	push	r14
    5454:	ff 92       	push	r15
    5456:	cf 93       	push	r28
    5458:	c8 2f       	mov	r28, r24
   *    NPN BJT:  probe-1 = collector / probe-2 = emitter
   *    PNP BJT:  probe-1 = emitter / probe-2 = collector
   *  - Gnd -- Rl -- probe-2 / probe-1 -- Vcc
   */

  R_PORT = 0;                      /* set resistor port to Gnd */
    545a:	15 b8       	out	0x05, r1	; 5
  R_DDR = Probes.Rl_2;             /* pull down probe-2 via Rl */
    545c:	80 91 d2 01 	lds	r24, 0x01D2	; 0x8001d2 <Probes+0x7>
    5460:	84 b9       	out	0x04, r24	; 4
  ADC_DDR = Probes.Pin_1;          /* set probe-1 to output */
    5462:	80 91 d7 01 	lds	r24, 0x01D7	; 0x8001d7 <Probes+0xc>
    5466:	87 b9       	out	0x07, r24	; 7
  ADC_PORT = Probes.Pin_1;         /* pull-up probe-1 directly */
    5468:	88 b9       	out	0x08, r24	; 8
  U_Rl = ReadU_5ms(Probes.Ch_2);   /* get voltage at Rl */
    546a:	80 91 db 01 	lds	r24, 0x01DB	; 0x8001db <Probes+0x10>
    546e:	0e 94 18 1c 	call	0x3830	; 0x3830 <ReadU_5ms>

  if (U_Rl > 3)          /* > 5A */
    5472:	84 30       	cpi	r24, 0x04	; 4
    5474:	91 05       	cpc	r25, r1
    5476:	00 f1       	brcs	.+64     	; 0x54b8 <GetLeakageCurrent+0x6a>
  {
    /* consider internal resistance of MCU */
    R_Shunt = (uint32_t)NV.RiL;         /* in 0.1 Ohms */
    5478:	c0 90 dd 01 	lds	r12, 0x01DD	; 0x8001dd <NV>
    547c:	d0 90 de 01 	lds	r13, 0x01DE	; 0x8001de <NV+0x1>
    5480:	e1 2c       	mov	r14, r1
    5482:	f1 2c       	mov	r15, r1
    Scale = -7;                         /* 100n */

    if ((U_Rl > 1400) && (Mode == 1))   /* > 2mA */
    5484:	89 37       	cpi	r24, 0x79	; 121
    5486:	25 e0       	ldi	r18, 0x05	; 5
    5488:	92 07       	cpc	r25, r18
    548a:	70 f0       	brcs	.+28     	; 0x54a8 <GetLeakageCurrent+0x5a>
    548c:	c1 30       	cpi	r28, 0x01	; 1
    548e:	61 f4       	brne	.+24     	; 0x54a8 <GetLeakageCurrent+0x5a>
       *  - with 1mV ADC resolution we get down to 50A
       *  - max. current is 5V/40Ohms = 125mA
       *  - set probes: Gnd -- probe-2 / probe-1 -- Vcc
       */

      R_DDR = 0;                        /* disable resistors */
    5490:	14 b8       	out	0x04, r1	; 4
      /* pull down probe-2 directly */
      ADC_DDR = Probes.Pin_1 | Probes.Pin_2;
    5492:	90 91 d7 01 	lds	r25, 0x01D7	; 0x8001d7 <Probes+0xc>
    5496:	80 91 d8 01 	lds	r24, 0x01D8	; 0x8001d8 <Probes+0xd>
    549a:	89 2b       	or	r24, r25
    549c:	87 b9       	out	0x07, r24	; 7
      U_Rl = ReadU(Probes.Ch_2);        /* get voltage at RiL */
    549e:	80 91 db 01 	lds	r24, 0x01DB	; 0x8001db <Probes+0x10>
    54a2:	0e 94 b7 1b 	call	0x376e	; 0x376e <ReadU>
    54a6:	06 c0       	rjmp	.+12     	; 0x54b4 <GetLeakageCurrent+0x66>
       *  - with 1mV ADC resolution we get down to 1.4A
       *  - max. current is 5V/720Ohms = 7mA
       */

      /* add Rl */
      R_Shunt += (R_LOW * 10);          /* in 0.1 Ohms */
    54a8:	20 e9       	ldi	r18, 0x90	; 144
    54aa:	c2 0e       	add	r12, r18
    54ac:	2a e1       	ldi	r18, 0x1A	; 26
    54ae:	d2 1e       	adc	r13, r18
    54b0:	e1 1c       	adc	r14, r1
    54b2:	f1 1c       	adc	r15, r1

  if (U_Rl > 3)          /* > 5A */
  {
    /* consider internal resistance of MCU */
    R_Shunt = (uint32_t)NV.RiL;         /* in 0.1 Ohms */
    Scale = -7;                         /* 100n */
    54b4:	c9 ef       	ldi	r28, 0xF9	; 249
    54b6:	0f c0       	rjmp	.+30     	; 0x54d6 <GetLeakageCurrent+0x88>
     *  - with 1mV ADC resolution we get down to 2nA
     *  - max. current is 5V/470kOhms = 10A
     *  - set probes: Gnd -- Rh -- probe-2 / probe-1 -- Vcc
     */

    R_DDR = Probes.Rh_2;                /* pull down probe-2 via Rh */
    54b8:	80 91 d5 01 	lds	r24, 0x01D5	; 0x8001d5 <Probes+0xa>
    54bc:	84 b9       	out	0x04, r24	; 4
    U_Rl = ReadU_5ms(Probes.Ch_2);      /* get voltage at Rh */
    54be:	80 91 db 01 	lds	r24, 0x01DB	; 0x8001db <Probes+0x10>
    54c2:	0e 94 18 1c 	call	0x3830	; 0x3830 <ReadU_5ms>

    /* neglect MCU's internal resistance */
    R_Shunt =  R_HIGH;
    54c6:	20 ef       	ldi	r18, 0xF0	; 240
    54c8:	c2 2e       	mov	r12, r18
    54ca:	2b e2       	ldi	r18, 0x2B	; 43
    54cc:	d2 2e       	mov	r13, r18
    54ce:	27 e0       	ldi	r18, 0x07	; 7
    54d0:	e2 2e       	mov	r14, r18
    54d2:	f1 2c       	mov	r15, r1
    Scale = -8;                    /* 10n */
    54d4:	c8 ef       	ldi	r28, 0xF8	; 248
  }

  /* clean up */
  ADC_DDR = 0;           /* set ADC port to HiZ mode */
    54d6:	17 b8       	out	0x07, r1	; 7
  ADC_PORT = 0;          /* set ADC port low */
    54d8:	18 b8       	out	0x08, r1	; 8
  R_DDR = 0;             /* set resistor port to HiZ mode */
    54da:	14 b8       	out	0x04, r1	; 4
  R_PORT = 0;            /* set resistor port low */
    54dc:	15 b8       	out	0x05, r1	; 5

  /* calculate current */
  Value = U_Rl * 100000;           /* scale voltage to 10nV */
    54de:	dc 01       	movw	r26, r24
    54e0:	20 ea       	ldi	r18, 0xA0	; 160
    54e2:	36 e8       	ldi	r19, 0x86	; 134
    54e4:	41 e0       	ldi	r20, 0x01	; 1
    54e6:	50 e0       	ldi	r21, 0x00	; 0
    54e8:	0e 94 0c 3f 	call	0x7e18	; 0x7e18 <__muluhisi3>
  Value /= R_Shunt;                /* I = U/R */

  /* save result */
  Semi.I_value = Value;
    54ec:	a7 01       	movw	r20, r14
    54ee:	96 01       	movw	r18, r12
    54f0:	0e 94 af 3e 	call	0x7d5e	; 0x7d5e <__udivmodsi4>
    54f4:	20 93 c1 01 	sts	0x01C1, r18	; 0x8001c1 <Semi+0x12>
    54f8:	30 93 c2 01 	sts	0x01C2, r19	; 0x8001c2 <Semi+0x13>
    54fc:	40 93 c3 01 	sts	0x01C3, r20	; 0x8001c3 <Semi+0x14>
    5500:	50 93 c4 01 	sts	0x01C4, r21	; 0x8001c4 <Semi+0x15>
  Semi.I_scale = Scale;
    5504:	c0 93 c5 01 	sts	0x01C5, r28	; 0x8001c5 <Semi+0x16>
}
    5508:	cf 91       	pop	r28
    550a:	ff 90       	pop	r15
    550c:	ef 90       	pop	r14
    550e:	df 90       	pop	r13
    5510:	cf 90       	pop	r12
    5512:	08 95       	ret

00005514 <SearchDiode>:
Diode_Type *SearchDiode(uint8_t A, uint8_t C)
{
  Diode_Type        *Diode;        /* pointer to diode */
  uint8_t           n;             /* counter */

  n = Check.Diodes;           /* number of diodes */
    5514:	90 91 0b 01 	lds	r25, 0x010B	; 0x80010b <__data_end+0x5>
  Diode = &Diodes[0];         /* pointer to first diode */
    5518:	ec e7       	ldi	r30, 0x7C	; 124
    551a:	f1 e0       	ldi	r31, 0x01	; 1

  while (n > 0)
    551c:	99 23       	and	r25, r25
    551e:	49 f0       	breq	.+18     	; 0x5532 <SearchDiode+0x1e>
  {
    if ((A == Diode->A) && (C == Diode->C))
    5520:	20 81       	ld	r18, Z
    5522:	28 13       	cpse	r18, r24
    5524:	03 c0       	rjmp	.+6      	; 0x552c <SearchDiode+0x18>
    5526:	21 81       	ldd	r18, Z+1	; 0x01
    5528:	26 17       	cp	r18, r22
    552a:	29 f0       	breq	.+10     	; 0x5536 <SearchDiode+0x22>
    {
      break;
    }

    n--;                 /* next diode */
    552c:	91 50       	subi	r25, 0x01	; 1
    Diode++;
    552e:	36 96       	adiw	r30, 0x06	; 6
    5530:	f5 cf       	rjmp	.-22     	; 0x551c <SearchDiode+0x8>
  }

  if (n == 0)            /* no match found */
  {
    Diode = NULL;        /* reset pointer */
    5532:	e0 e0       	ldi	r30, 0x00	; 0
    5534:	f0 e0       	ldi	r31, 0x00	; 0
  }

  return Diode;
}
    5536:	cf 01       	movw	r24, r30
    5538:	08 95       	ret

0000553a <CheckDiode>:
/*
 *  check for diode
 */

void CheckDiode(void)
{
    553a:	a0 e0       	ldi	r26, 0x00	; 0
    553c:	b0 e0       	ldi	r27, 0x00	; 0
    553e:	e3 ea       	ldi	r30, 0xA3	; 163
    5540:	fa e2       	ldi	r31, 0x2A	; 42
    5542:	0c 94 1d 3f 	jmp	0x7e3a	; 0x7e3a <__prologue_saves__+0xc>
  uint16_t          U2_Rl;         /* Vf #2 with Rl pull-down */
  uint16_t          U2_Rh;         /* Vf #2 with Rh pull-down */
  uint16_t          U2_Zero;       /* Vf #2 zero */
  uint16_t          U_Diff;        /* Vf difference */

  wdt_reset();                          /* reset watchdog */
    5546:	a8 95       	wdr

  DischargeProbes();                    /* try to discharge probes */
    5548:	0e 94 2d 1d 	call	0x3a5a	; 0x3a5a <DischargeProbes>
  if (Check.Found == COMP_ERROR) return;     /* skip on error */
    554c:	80 91 06 01 	lds	r24, 0x0106	; 0x800106 <__data_end>
    5550:	81 30       	cpi	r24, 0x01	; 1
    5552:	09 f4       	brne	.+2      	; 0x5556 <CheckDiode+0x1c>
    5554:	ec c0       	rjmp	.+472    	; 0x572e <CheckDiode+0x1f4>
   *  Vf #1, supporting a possible p-channel MOSFET
   */

  /* we assume: probe-1 = A / probe2 = C */
  /* set probes: Gnd -- probe-2 / probe-1 -- HiZ */
  ADC_PORT = 0;
    5556:	18 b8       	out	0x08, r1	; 8
  ADC_DDR = Probes.Pin_2;               /* pull down cathode directly */
    5558:	80 91 d8 01 	lds	r24, 0x01D8	; 0x8001d8 <Probes+0xd>
    555c:	87 b9       	out	0x07, r24	; 7
  /* R_DDR is set to HiZ by DischargeProbes() */
  U1_Zero = ReadU(Probes.Ch_1);         /* get voltage at anode */
    555e:	80 91 da 01 	lds	r24, 0x01DA	; 0x8001da <Probes+0xf>
    5562:	0e 94 b7 1b 	call	0x376e	; 0x376e <ReadU>
    5566:	98 2e       	mov	r9, r24
    5568:	a9 2e       	mov	r10, r25

  /* measure voltage across DUT (Vf) with Rh */
  /* set probes: Gnd -- probe-2 / probe-1 -- Rh -- Vcc */
  R_DDR = Probes.Rh_1;                  /* enable Rh for probe-1 */
    556a:	80 91 d4 01 	lds	r24, 0x01D4	; 0x8001d4 <Probes+0x9>
    556e:	84 b9       	out	0x04, r24	; 4
  R_PORT = Probes.Rh_1;                 /* pull up anode via Rh */
    5570:	85 b9       	out	0x05, r24	; 5
  PullProbe(Probes.Rl_3, PULL_10MS | PULL_UP);     /* discharge gate */
    5572:	61 e1       	ldi	r22, 0x11	; 17
    5574:	80 91 d3 01 	lds	r24, 0x01D3	; 0x8001d3 <Probes+0x8>
    5578:	0e 94 be 1d 	call	0x3b7c	; 0x3b7c <PullProbe>
  U1_Rh = ReadU_5ms(Probes.Ch_1);       /* get voltage at anode */
    557c:	80 91 da 01 	lds	r24, 0x01DA	; 0x8001da <Probes+0xf>
    5580:	0e 94 18 1c 	call	0x3830	; 0x3830 <ReadU_5ms>
    5584:	b8 2e       	mov	r11, r24
    5586:	89 2e       	mov	r8, r25
                                        /* neglect voltage at cathode */

  /* measure voltage across DUT (Vf) with Rl */
  /* set probes: Gnd -- probe-2 / probe-1 -- Rl -- Vcc */
  R_DDR = Probes.Rl_1;                  /* enable Rl for probe-1 */
    5588:	80 91 d1 01 	lds	r24, 0x01D1	; 0x8001d1 <Probes+0x6>
    558c:	84 b9       	out	0x04, r24	; 4
  R_PORT = Probes.Rl_1;                 /* pull up anode via Rl */
    558e:	85 b9       	out	0x05, r24	; 5
  PullProbe(Probes.Rl_3, PULL_10MS | PULL_UP);     /* discharge gate */
    5590:	61 e1       	ldi	r22, 0x11	; 17
    5592:	80 91 d3 01 	lds	r24, 0x01D3	; 0x8001d3 <Probes+0x8>
    5596:	0e 94 be 1d 	call	0x3b7c	; 0x3b7c <PullProbe>
  U1_Rl = ReadU_5ms(Probes.Ch_1);       /* get voltage at anode */
    559a:	80 91 da 01 	lds	r24, 0x01DA	; 0x8001da <Probes+0xf>
    559e:	0e 94 18 1c 	call	0x3830	; 0x3830 <ReadU_5ms>
    55a2:	6c 01       	movw	r12, r24
  U1_Rl -= ReadU(Probes.Ch_2);          /* substract voltage at cathode */
    55a4:	80 91 db 01 	lds	r24, 0x01DB	; 0x8001db <Probes+0x10>
    55a8:	0e 94 b7 1b 	call	0x376e	; 0x376e <ReadU>
    55ac:	8c 01       	movw	r16, r24


  DischargeProbes();                    /* try to discharge probes */
    55ae:	0e 94 2d 1d 	call	0x3a5a	; 0x3a5a <DischargeProbes>
  if (Check.Found == COMP_ERROR) return;     /* skip on error */  
    55b2:	80 91 06 01 	lds	r24, 0x0106	; 0x800106 <__data_end>
    55b6:	81 30       	cpi	r24, 0x01	; 1
    55b8:	09 f4       	brne	.+2      	; 0x55bc <CheckDiode+0x82>
    55ba:	b9 c0       	rjmp	.+370    	; 0x572e <CheckDiode+0x1f4>
   *  Vf #2, supporting a possible n-channel MOSFET
   */

  /* we assume: probe-1 = A / probe2 = C */
  /* set probes: Gnd -- probe-2 / probe-1 -- HiZ */
  ADC_PORT = 0;
    55bc:	18 b8       	out	0x08, r1	; 8
  ADC_DDR = Probes.Pin_2;               /* pull down cathode directly */
    55be:	80 91 d8 01 	lds	r24, 0x01D8	; 0x8001d8 <Probes+0xd>
    55c2:	87 b9       	out	0x07, r24	; 7
  /* R_DDR is set to HiZ by DischargeProbes() */
  U2_Zero = ReadU(Probes.Ch_1);         /* get voltage at anode */
    55c4:	80 91 da 01 	lds	r24, 0x01DA	; 0x8001da <Probes+0xf>
    55c8:	0e 94 b7 1b 	call	0x376e	; 0x376e <ReadU>
    55cc:	7c 01       	movw	r14, r24

  /* set probes: Gnd -- Rh -- probe-2 / probe-1 -- Vcc */
  ADC_DDR = 0;                          /* set to HiZ to prepare change */
    55ce:	17 b8       	out	0x07, r1	; 7
  ADC_PORT = Probes.Pin_1;              /* pull up anode directly */
    55d0:	80 91 d7 01 	lds	r24, 0x01D7	; 0x8001d7 <Probes+0xc>
    55d4:	88 b9       	out	0x08, r24	; 8
  ADC_DDR = Probes.Pin_1;               /* enable output */
    55d6:	87 b9       	out	0x07, r24	; 7
  R_PORT = 0;                           /* pull down cathode via Rh */
    55d8:	15 b8       	out	0x05, r1	; 5
  R_DDR = Probes.Rh_2;                  /* enable Rh for probe-2 */
    55da:	80 91 d5 01 	lds	r24, 0x01D5	; 0x8001d5 <Probes+0xa>
    55de:	84 b9       	out	0x04, r24	; 4
  PullProbe(Probes.Rl_3, PULL_10MS | PULL_DOWN);   /* discharge gate */
    55e0:	60 e1       	ldi	r22, 0x10	; 16
    55e2:	80 91 d3 01 	lds	r24, 0x01D3	; 0x8001d3 <Probes+0x8>
    55e6:	0e 94 be 1d 	call	0x3b7c	; 0x3b7c <PullProbe>
  U2_Rh = ReadU_5ms(Probes.Ch_1);       /* get voltage at anode */
    55ea:	80 91 da 01 	lds	r24, 0x01DA	; 0x8001da <Probes+0xf>
    55ee:	0e 94 18 1c 	call	0x3830	; 0x3830 <ReadU_5ms>
    55f2:	ec 01       	movw	r28, r24
  U_Diff = ReadU(Probes.Ch_2);          /* get voltage at cathode */
    55f4:	80 91 db 01 	lds	r24, 0x01DB	; 0x8001db <Probes+0x10>
    55f8:	0e 94 b7 1b 	call	0x376e	; 0x376e <ReadU>
  if (U2_Rh >= U_Diff)                  /* prevent underrun */
    55fc:	c8 17       	cp	r28, r24
    55fe:	d9 07       	cpc	r29, r25
    5600:	18 f0       	brcs	.+6      	; 0x5608 <CheckDiode+0xce>
  {
    U2_Rh -= U_Diff;                    /* V_f = U_Anode - U_Cathode */
    5602:	c8 1b       	sub	r28, r24
    5604:	d9 0b       	sbc	r29, r25
    5606:	02 c0       	rjmp	.+4      	; 0x560c <CheckDiode+0xd2>
  }
  else                                  /* maybe large inductance */
  {
    U2_Rh = 0;                          /* simply zero */
    5608:	c0 e0       	ldi	r28, 0x00	; 0
    560a:	d0 e0       	ldi	r29, 0x00	; 0
  /* set probes: Gnd -- probe-2 / probe-1 -- Rl -- Vcc */
  R_DDR = Probes.Rl_1;                  /* enable Rl for probe-1 */
  R_PORT = Probes.Rl_1;                 /* pull up anode via Rl */
  PullProbe(Probes.Rl_3, PULL_10MS | PULL_UP);     /* discharge gate */
  U1_Rl = ReadU_5ms(Probes.Ch_1);       /* get voltage at anode */
  U1_Rl -= ReadU(Probes.Ch_2);          /* substract voltage at cathode */
    560c:	c0 1a       	sub	r12, r16
    560e:	d1 0a       	sbc	r13, r17
  {
    U2_Rh = 0;                          /* simply zero */
  }

  /* set probes: Gnd -- Rl -- probe-2 / probe-1 -- Vcc */
  R_DDR = Probes.Rl_2;                  /* pull down cathode via Rl */
    5610:	80 91 d2 01 	lds	r24, 0x01D2	; 0x8001d2 <Probes+0x7>
    5614:	84 b9       	out	0x04, r24	; 4
  PullProbe(Probes.Rl_3, PULL_10MS | PULL_DOWN);   /* discharge gate */
    5616:	60 e1       	ldi	r22, 0x10	; 16
    5618:	80 91 d3 01 	lds	r24, 0x01D3	; 0x8001d3 <Probes+0x8>
    561c:	0e 94 be 1d 	call	0x3b7c	; 0x3b7c <PullProbe>
  U2_Rl = ReadU_5ms(Probes.Ch_1);       /* get voltage at anode */
    5620:	80 91 da 01 	lds	r24, 0x01DA	; 0x8001da <Probes+0xf>
    5624:	0e 94 18 1c 	call	0x3830	; 0x3830 <ReadU_5ms>
    5628:	8c 01       	movw	r16, r24
  U2_Rl -= ReadU(Probes.Ch_2);          /* substract voltage at cathode */
    562a:	80 91 db 01 	lds	r24, 0x01DB	; 0x8001db <Probes+0x10>
    562e:	0e 94 b7 1b 	call	0x376e	; 0x376e <ReadU>
    5632:	08 1b       	sub	r16, r24
    5634:	19 0b       	sbc	r17, r25

  ADC_DDR = 0;                     /* stop pulling up */
    5636:	17 b8       	out	0x07, r1	; 7
  /*
   *  process results
   */

  /* choose between both measurements */
  if (U1_Rl > U2_Rl)          /* the higher voltage wins */
    5638:	0c 15       	cp	r16, r12
    563a:	1d 05       	cpc	r17, r13
    563c:	48 f4       	brcc	.+18     	; 0x5650 <CheckDiode+0x116>
  {
    U_Diff = U1_Rl - U2_Rl;   /* difference of U_Rls */
    563e:	c6 01       	movw	r24, r12
    5640:	80 1b       	sub	r24, r16
    5642:	91 0b       	sbc	r25, r17
    U2_Rl = U1_Rl;
    U2_Rh = U1_Rh;
    U2_Zero = U1_Zero;
    5644:	e9 2c       	mov	r14, r9
    5646:	fa 2c       	mov	r15, r10
  /* choose between both measurements */
  if (U1_Rl > U2_Rl)          /* the higher voltage wins */
  {
    U_Diff = U1_Rl - U2_Rl;   /* difference of U_Rls */
    U2_Rl = U1_Rl;
    U2_Rh = U1_Rh;
    5648:	cb 2d       	mov	r28, r11
    564a:	d8 2d       	mov	r29, r8
    564c:	86 01       	movw	r16, r12
    564e:	03 c0       	rjmp	.+6      	; 0x5656 <CheckDiode+0x11c>
    U2_Zero = U1_Zero;
  }
  else                        /* keep 2nd data set */
  {
    U_Diff = U2_Rl - U1_Rl;   /* difference of U_Rls */
    5650:	c8 01       	movw	r24, r16
    5652:	8c 19       	sub	r24, r12
    5654:	9d 09       	sbc	r25, r13
   *  - nearly zero for diodes, BJTs etc.
   *  - about a diode drop for enhancement-mode MOSFETs
   *  - >1000mV for depletion-mode FETs partly conducting 
   */

  if (U_Diff > 1000) return;       /* depletion-mode FET */
    5656:	89 3e       	cpi	r24, 0xE9	; 233
    5658:	93 40       	sbci	r25, 0x03	; 3
    565a:	08 f0       	brcs	.+2      	; 0x565e <CheckDiode+0x124>
    565c:	68 c0       	rjmp	.+208    	; 0x572e <CheckDiode+0x1f4>
   *  - very large cap
   *
   *  The lowest Vf measured with Rh is 9mV for a GY100 (Germanium).
   */

  if (U2_Rh <= 5) return;          /* small resistor or very large cap */
    565e:	c6 30       	cpi	r28, 0x06	; 6
    5660:	d1 05       	cpc	r29, r1
    5662:	08 f4       	brcc	.+2      	; 0x5666 <CheckDiode+0x12c>
    5664:	64 c0       	rjmp	.+200    	; 0x572e <CheckDiode+0x1f4>
   *  Hints:
   *  If U_Zero > 10 and U_Rh is about U_Zero it's a large cap.
   *  As larger the cap as lower U_Rl (charging time 15ms).
   */

  if (U2_Rh > U2_Zero)             /* prevent underrun */
    5666:	ec 16       	cp	r14, r28
    5668:	fd 06       	cpc	r15, r29
    566a:	20 f4       	brcc	.+8      	; 0x5674 <CheckDiode+0x13a>
  {
    U_Diff = U2_Rh - U2_Zero;      /* calculate difference */
    566c:	ce 01       	movw	r24, r28
    566e:	8e 19       	sub	r24, r14
    5670:	9f 09       	sbc	r25, r15
    5672:	03 c0       	rjmp	.+6      	; 0x567a <CheckDiode+0x140>
  }
  else
  {
    U_Diff = U2_Zero - U2_Rh;      /* calculate difference */
    5674:	c7 01       	movw	r24, r14
    5676:	8c 1b       	sub	r24, r28
    5678:	9d 0b       	sbc	r25, r29
  }

  if ((U2_Zero > 2) && (U_Diff < 100))  /* capacitor */
    567a:	23 e0       	ldi	r18, 0x03	; 3
    567c:	e2 16       	cp	r14, r18
    567e:	f1 04       	cpc	r15, r1
    5680:	20 f0       	brcs	.+8      	; 0x568a <CheckDiode+0x150>
    5682:	84 36       	cpi	r24, 0x64	; 100
    5684:	91 05       	cpc	r25, r1
    5686:	08 f4       	brcc	.+2      	; 0x568a <CheckDiode+0x150>
    5688:	52 c0       	rjmp	.+164    	; 0x572e <CheckDiode+0x1f4>
   *  - Measure current in forward and reverse direction. Both curents
   *    should be the same for a resistor.
   *  - For U_Rh > 40mV we don't need to check for a resistor.
   */

  if (U2_Rh < 40)             /* resistor (< 3k) */
    568a:	c8 32       	cpi	r28, 0x28	; 40
    568c:	d1 05       	cpc	r29, r1
    568e:	38 f0       	brcs	.+14     	; 0x569e <CheckDiode+0x164>

  /*
   *  if U_Rl (Vf) is between 0.15V and 4.64V it's a diode
   */

  if ((U2_Rl > 150) && (U2_Rl < 4640))
    5690:	c8 01       	movw	r24, r16
    5692:	87 59       	subi	r24, 0x97	; 151
    5694:	91 09       	sbc	r25, r1
    5696:	89 38       	cpi	r24, 0x89	; 137
    5698:	91 41       	sbci	r25, 0x11	; 17
    569a:	58 f1       	brcs	.+86     	; 0x56f2 <CheckDiode+0x1b8>
    569c:	48 c0       	rjmp	.+144    	; 0x572e <CheckDiode+0x1f4>

  if (U2_Rh < 40)             /* resistor (< 3k) */
  {
    /* get current in forward direction */
    /* set probes: Gnd -- Rl -- probe-2 / probe-1 -- Vcc */
    R_PORT = 0;
    569e:	15 b8       	out	0x05, r1	; 5
    R_DDR = Probes.Rl_2;                  /* pull down cathode via Rl */
    56a0:	80 91 d2 01 	lds	r24, 0x01D2	; 0x8001d2 <Probes+0x7>
    56a4:	84 b9       	out	0x04, r24	; 4
    ADC_PORT = Probes.Pin_1;
    56a6:	80 91 d7 01 	lds	r24, 0x01D7	; 0x8001d7 <Probes+0xc>
    56aa:	88 b9       	out	0x08, r24	; 8
    ADC_DDR = Probes.Pin_1;               /* pull up anode directly */
    56ac:	87 b9       	out	0x07, r24	; 7
    U1_Rl = ReadU_5ms(Probes.Ch_2);       /* get voltage at Rl */
    56ae:	80 91 db 01 	lds	r24, 0x01DB	; 0x8001db <Probes+0x10>
    56b2:	0e 94 18 1c 	call	0x3830	; 0x3830 <ReadU_5ms>
    56b6:	7c 01       	movw	r14, r24

    /* get current in reverse direction */
    /* set probes: Gnd -- Rl -- probe-1 / probe-2 -- Vcc */
    R_DDR = Probes.Rl_1;                  /* pull down anode via Rl */
    56b8:	80 91 d1 01 	lds	r24, 0x01D1	; 0x8001d1 <Probes+0x6>
    56bc:	84 b9       	out	0x04, r24	; 4
    ADC_PORT = Probes.Pin_2;
    56be:	80 91 d8 01 	lds	r24, 0x01D8	; 0x8001d8 <Probes+0xd>
    56c2:	88 b9       	out	0x08, r24	; 8
    ADC_DDR = Probes.Pin_2;               /* pull up cathode directly */
    56c4:	87 b9       	out	0x07, r24	; 7
    U1_Rh = ReadU_5ms(Probes.Ch_1);       /* get voltage at Rl */
    56c6:	80 91 da 01 	lds	r24, 0x01DA	; 0x8001da <Probes+0xf>
    56ca:	0e 94 18 1c 	call	0x3830	; 0x3830 <ReadU_5ms>
    56ce:	9c 01       	movw	r18, r24

    /* check if both currents match */
    U_Diff = U1_Rl / 20;           /* 5% */
    56d0:	c7 01       	movw	r24, r14
    56d2:	64 e1       	ldi	r22, 0x14	; 20
    56d4:	70 e0       	ldi	r23, 0x00	; 0
    56d6:	0e 94 87 3e 	call	0x7d0e	; 0x7d0e <__udivmodhi4>
    U1_Zero = U1_Rl - U_Diff;      /* 95% */
    U2_Zero = U1_Rl + U_Diff;      /* 105% */

    if ((U1_Rh > U1_Zero) && (U1_Rh < U2_Zero))   /* within limits */
    56da:	c7 01       	movw	r24, r14
    56dc:	86 1b       	sub	r24, r22
    56de:	97 0b       	sbc	r25, r23
    56e0:	82 17       	cp	r24, r18
    56e2:	93 07       	cpc	r25, r19
    56e4:	a8 f6       	brcc	.-86     	; 0x5690 <CheckDiode+0x156>
    56e6:	6e 0d       	add	r22, r14
    56e8:	7f 1d       	adc	r23, r15
    56ea:	26 17       	cp	r18, r22
    56ec:	37 07       	cpc	r19, r23
    56ee:	80 f6       	brcc	.-96     	; 0x5690 <CheckDiode+0x156>
    56f0:	1e c0       	rjmp	.+60     	; 0x572e <CheckDiode+0x1f4>
   */

  if ((U2_Rl > 150) && (U2_Rl < 4640))
  {
    /* if we haven't found any other component yet */
    if ((Check.Found == COMP_NONE) ||
    56f2:	80 91 06 01 	lds	r24, 0x0106	; 0x800106 <__data_end>
    56f6:	88 23       	and	r24, r24
    56f8:	11 f0       	breq	.+4      	; 0x56fe <CheckDiode+0x1c4>
    56fa:	8a 30       	cpi	r24, 0x0A	; 10
    56fc:	19 f4       	brne	.+6      	; 0x5704 <CheckDiode+0x1ca>
        (Check.Found == COMP_RESISTOR))
    {
      Check.Found = COMP_DIODE;
    56fe:	84 e1       	ldi	r24, 0x14	; 20
    5700:	80 93 06 01 	sts	0x0106, r24	; 0x800106 <__data_end>
      /* Check.Type = TYPE_STANDARD; */
      /* we don't set Comp.Done in case we'll find something different */
    }

    /* save data */
    Diode = &Diodes[Check.Diodes];
    5704:	80 91 0b 01 	lds	r24, 0x010B	; 0x80010b <__data_end+0x5>
    Diode->A = Probes.ID_1;
    5708:	96 e0       	ldi	r25, 0x06	; 6
    570a:	89 9f       	mul	r24, r25
    570c:	f0 01       	movw	r30, r0
    570e:	11 24       	eor	r1, r1
    5710:	e4 58       	subi	r30, 0x84	; 132
    5712:	fe 4f       	sbci	r31, 0xFE	; 254
    5714:	90 91 cb 01 	lds	r25, 0x01CB	; 0x8001cb <Probes>
    5718:	90 83       	st	Z, r25
    Diode->C = Probes.ID_2;
    571a:	90 91 cc 01 	lds	r25, 0x01CC	; 0x8001cc <Probes+0x1>
    571e:	91 83       	std	Z+1, r25	; 0x01
    Diode->V_f = U2_Rl;       /* Vf for high measurement current */
    5720:	13 83       	std	Z+3, r17	; 0x03
    5722:	02 83       	std	Z+2, r16	; 0x02
    Diode->V_f2 = U2_Rh;      /* Vf for low measurement current */
    5724:	d5 83       	std	Z+5, r29	; 0x05
    5726:	c4 83       	std	Z+4, r28	; 0x04
    Check.Diodes++;
    5728:	8f 5f       	subi	r24, 0xFF	; 255
    572a:	80 93 0b 01 	sts	0x010B, r24	; 0x80010b <__data_end+0x5>
  }
}
    572e:	cd b7       	in	r28, 0x3d	; 61
    5730:	de b7       	in	r29, 0x3e	; 62
    5732:	ec e0       	ldi	r30, 0x0C	; 12
    5734:	0c 94 39 3f 	jmp	0x7e72	; 0x7e72 <__epilogue_restores__+0xc>

00005738 <VerifyMOSFET>:
  uint8_t           Anode;
  uint8_t           Cathode;
  Diode_Type        *Diode;             /* pointer to diode */

  /* set expected body diode */
  if (Check.Type & TYPE_N_CHANNEL)      /* n-channel */
    5738:	20 91 07 01 	lds	r18, 0x0107	; 0x800107 <__data_end+0x1>
    573c:	80 91 b1 01 	lds	r24, 0x01B1	; 0x8001b1 <Semi+0x2>
    5740:	90 91 b0 01 	lds	r25, 0x01B0	; 0x8001b0 <Semi+0x1>
    5744:	20 ff       	sbrs	r18, 0
    5746:	03 c0       	rjmp	.+6      	; 0x574e <VerifyMOSFET+0x16>
  {
    Anode = Semi.C;      /* anode at source */
    5748:	68 2f       	mov	r22, r24
    Cathode = Semi.B;    /* cathode at drain */
    574a:	89 2f       	mov	r24, r25
    574c:	01 c0       	rjmp	.+2      	; 0x5750 <VerifyMOSFET+0x18>
  }
  else                                  /* p-channel */
  {
    Anode = Semi.B;      /* anode at drain */
    574e:	69 2f       	mov	r22, r25
    Cathode = Semi.C;    /* cathode at source */
  }

  /* search for a diode with reversed polarity */
  Diode = SearchDiode(Cathode, Anode);  /* search for reversed diode */
    5750:	0e 94 8a 2a 	call	0x5514	; 0x5514 <SearchDiode>
  if (Diode != NULL)                    /* got it */
    5754:	89 2b       	or	r24, r25
    5756:	49 f0       	breq	.+18     	; 0x576a <VerifyMOSFET+0x32>
  {
    /* this can't be a MOSFET, so let's reset */
    Check.Found = COMP_NONE;
    5758:	10 92 06 01 	sts	0x0106, r1	; 0x800106 <__data_end>
    Check.Type = 0;
    575c:	10 92 07 01 	sts	0x0107, r1	; 0x800107 <__data_end+0x1>
    Check.Done &= ~(DONE_SEMI);    /* unset flag */
    5760:	80 91 08 01 	lds	r24, 0x0108	; 0x800108 <__data_end+0x2>
    5764:	8e 7f       	andi	r24, 0xFE	; 254
    5766:	80 93 08 01 	sts	0x0108, r24	; 0x800108 <__data_end+0x2>
    576a:	08 95       	ret

0000576c <GetGateThreshold>:
 *  requires:
 *  - Type: n-channel or p-channel
 */

void GetGateThreshold(uint8_t Type)
{
    576c:	a0 e0       	ldi	r26, 0x00	; 0
    576e:	b0 e0       	ldi	r27, 0x00	; 0
    5770:	ec eb       	ldi	r30, 0xBC	; 188
    5772:	fb e2       	ldi	r31, 0x2B	; 43
    5774:	0c 94 1e 3f 	jmp	0x7e3c	; 0x7e3c <__prologue_saves__+0xe>

  /*
   *  init variables
   */

  if (Type & TYPE_N_CHANNEL)       /* n-channel */
    5778:	28 2f       	mov	r18, r24
    577a:	21 70       	andi	r18, 0x01	; 1
    577c:	92 2e       	mov	r9, r18
    577e:	80 ff       	sbrs	r24, 0
    5780:	06 c0       	rjmp	.+12     	; 0x578e <GetGateThreshold+0x22>
  {
    /* we assume: probe-1 = D / probe-2 = S / probe-3 = G */
    /* probe-2 is still pulled down directly */
    /* probe-1 is still pulled up via Rl */

    Drain_Rl =  Probes.Rl_1;
    5782:	10 91 d1 01 	lds	r17, 0x01D1	; 0x8001d1 <Probes+0x6>
    Drain_ADC = Probes.Pin_1;
    5786:	c0 91 d7 01 	lds	r28, 0x01D7	; 0x8001d7 <Probes+0xc>
    PullMode = PULL_10MS | PULL_DOWN;
    578a:	00 e1       	ldi	r16, 0x10	; 16
    578c:	05 c0       	rjmp	.+10     	; 0x5798 <GetGateThreshold+0x2c>
  {
    /* we assume: probe-1 = S / probe-2 = D / probe-3 = G */
    /* probe-2 is still pulled down via Rl */
    /* probe-1 is still pulled up directly */

    Drain_Rl =  Probes.Rl_2;
    578e:	10 91 d2 01 	lds	r17, 0x01D2	; 0x8001d2 <Probes+0x7>
    Drain_ADC = Probes.Pin_2;
    5792:	c0 91 d8 01 	lds	r28, 0x01D8	; 0x8001d8 <Probes+0xd>
    PullMode = PULL_10MS | PULL_UP;
    5796:	01 e1       	ldi	r16, 0x11	; 17
  /*
   *  For low reaction times we use the ADC directly.
   */

  /* sanitize register bits for drain to prevent a never-ending loop */ 
  Drain_ADC &= ((1 << TP1) | (1 << TP2) | (1 << TP3));
    5798:	c7 70       	andi	r28, 0x07	; 7
  ADMUX = Probes.Ch_3 | ADC_REF_VCC;    /* select probe-3 for ADC input */
    579a:	80 91 dc 01 	lds	r24, 0x01DC	; 0x8001dc <Probes+0x11>
    579e:	80 64       	ori	r24, 0x40	; 64
    57a0:	80 93 7c 00 	sts	0x007C, r24	; 0x80007c <__DATA_REGION_ORIGIN__+0x1c>
                                        /* and use Vcc as reference */
  #ifndef ADC_LARGE_BUFFER_CAP
    /* buffer cap: 1nF or none at all */
    wait100us();                   /* time for voltage stabilization */
    57a4:	0e 94 83 3c 	call	0x7906	; 0x7906 <wait100us>
    57a8:	da e0       	ldi	r29, 0x0A	; 10
 *  - Type: n-channel or p-channel
 */

void GetGateThreshold(uint8_t Type)
{
  int32_t           Ugs = 0;       /* gate threshold voltage / Vth */
    57aa:	c1 2c       	mov	r12, r1
    57ac:	d1 2c       	mov	r13, r1
    57ae:	76 01       	movw	r14, r12
    {
      Ugs += ADCW;                        /* Ugs = U_g */
    }
    else                                /* p-channel */
    {
      Ugs -= (1023 - ADCW);               /* Ugs = - (Vcc - U_g) */
    57b0:	aa 24       	eor	r10, r10
    57b2:	aa 94       	dec	r10
    57b4:	83 e0       	ldi	r24, 0x03	; 3
    57b6:	b8 2e       	mov	r11, r24
  #endif

  /* sample 10 times */
  for (Counter = 0; Counter < 10; Counter++) 
  {
    wdt_reset();                         /* reset watchdog */
    57b8:	a8 95       	wdr

    /* discharge gate via Rl for 10 ms */
    PullProbe(Probes.Rl_3, PullMode);
    57ba:	60 2f       	mov	r22, r16
    57bc:	80 91 d3 01 	lds	r24, 0x01D3	; 0x8001d3 <Probes+0x8>
    57c0:	0e 94 be 1d 	call	0x3b7c	; 0x3b7c <PullProbe>

    /* pull up/down gate via Rh to slowly charge gate */
    R_DDR = Drain_Rl | Probes.Rh_3;
    57c4:	80 91 d6 01 	lds	r24, 0x01D6	; 0x8001d6 <Probes+0xb>
    57c8:	81 2b       	or	r24, r17
    57ca:	84 b9       	out	0x04, r24	; 4

    /* wait until FET conducts */
    /* any problem will cause a watchdog timeout */
    if (Type & TYPE_N_CHANNEL)          /* n-channel */
    57cc:	99 20       	and	r9, r9
    57ce:	21 f0       	breq	.+8      	; 0x57d8 <GetGateThreshold+0x6c>
    {
      /* FET conducts when the voltage at the drain reaches low level */
      while (ADC_PIN & Drain_ADC);
    57d0:	86 b1       	in	r24, 0x06	; 6
    57d2:	8c 23       	and	r24, r28
    57d4:	e9 f7       	brne	.-6      	; 0x57d0 <GetGateThreshold+0x64>
    57d6:	03 c0       	rjmp	.+6      	; 0x57de <GetGateThreshold+0x72>
    }
    else                                /* p-channel */
    {
      /* FET conducts when the voltage at the drain reaches high level */
      while (!(ADC_PIN & Drain_ADC));             
    57d8:	86 b1       	in	r24, 0x06	; 6
    57da:	8c 23       	and	r24, r28
    57dc:	e9 f3       	breq	.-6      	; 0x57d8 <GetGateThreshold+0x6c>
    }

    R_DDR = Drain_Rl;                   /* set probe-3 to HiZ mode */
    57de:	14 b9       	out	0x04, r17	; 4

    /* get voltage of gate */
    ADCSRA |= (1 << ADSC);              /* start ADC conversion */
    57e0:	80 91 7a 00 	lds	r24, 0x007A	; 0x80007a <__DATA_REGION_ORIGIN__+0x1a>
    57e4:	80 64       	ori	r24, 0x40	; 64
    57e6:	80 93 7a 00 	sts	0x007A, r24	; 0x80007a <__DATA_REGION_ORIGIN__+0x1a>
    while (ADCSRA & (1 << ADSC));       /* wait until conversion is done */
    57ea:	80 91 7a 00 	lds	r24, 0x007A	; 0x80007a <__DATA_REGION_ORIGIN__+0x1a>
    57ee:	86 fd       	sbrc	r24, 6
    57f0:	fc cf       	rjmp	.-8      	; 0x57ea <GetGateThreshold+0x7e>

    /* add ADC reading */
    if (Type & TYPE_N_CHANNEL)          /* n-channel */
    {
      Ugs += ADCW;                        /* Ugs = U_g */
    57f2:	80 91 78 00 	lds	r24, 0x0078	; 0x800078 <__DATA_REGION_ORIGIN__+0x18>
    57f6:	90 91 79 00 	lds	r25, 0x0079	; 0x800079 <__DATA_REGION_ORIGIN__+0x19>
    /* get voltage of gate */
    ADCSRA |= (1 << ADSC);              /* start ADC conversion */
    while (ADCSRA & (1 << ADSC));       /* wait until conversion is done */

    /* add ADC reading */
    if (Type & TYPE_N_CHANNEL)          /* n-channel */
    57fa:	99 20       	and	r9, r9
    57fc:	29 f0       	breq	.+10     	; 0x5808 <GetGateThreshold+0x9c>
    {
      Ugs += ADCW;                        /* Ugs = U_g */
    57fe:	c8 0e       	add	r12, r24
    5800:	d9 1e       	adc	r13, r25
    5802:	e1 1c       	adc	r14, r1
    5804:	f1 1c       	adc	r15, r1
    5806:	07 c0       	rjmp	.+14     	; 0x5816 <GetGateThreshold+0xaa>
    }
    else                                /* p-channel */
    {
      Ugs -= (1023 - ADCW);               /* Ugs = - (Vcc - U_g) */
    5808:	95 01       	movw	r18, r10
    580a:	28 1b       	sub	r18, r24
    580c:	39 0b       	sbc	r19, r25
    580e:	c2 1a       	sub	r12, r18
    5810:	d3 0a       	sbc	r13, r19
    5812:	e1 08       	sbc	r14, r1
    5814:	f1 08       	sbc	r15, r1
    5816:	d1 50       	subi	r29, 0x01	; 1
    /* buffer cap: 100nF */
    wait10ms();                    /* time for voltage stabilization */
  #endif

  /* sample 10 times */
  for (Counter = 0; Counter < 10; Counter++) 
    5818:	79 f6       	brne	.-98     	; 0x57b8 <GetGateThreshold+0x4c>
      Ugs -= (1023 - ADCW);               /* Ugs = - (Vcc - U_g) */
    }
  }

  /* calculate V_th */
  Ugs /= 10;                     /* average of 10 samples */
    581a:	c7 01       	movw	r24, r14
    581c:	b6 01       	movw	r22, r12
    581e:	2a e0       	ldi	r18, 0x0A	; 10
    5820:	30 e0       	ldi	r19, 0x00	; 0
    5822:	40 e0       	ldi	r20, 0x00	; 0
    5824:	50 e0       	ldi	r21, 0x00	; 0
    5826:	0e 94 d1 3e 	call	0x7da2	; 0x7da2 <__divmodsi4>
  Ugs *= Cfg.Vcc;                /* convert to voltage */
    582a:	a0 91 a8 01 	lds	r26, 0x01A8	; 0x8001a8 <Cfg+0x8>
    582e:	b0 91 a9 01 	lds	r27, 0x01A9	; 0x8001a9 <Cfg+0x9>
    5832:	0e 94 0c 3f 	call	0x7e18	; 0x7e18 <__muluhisi3>
  Ugs /= 1024;                   /* using 10 bit resolution */

  /* save data */
  Semi.U_2 = (int16_t)Ugs;       /* gate threshold voltage (in mV) */
    5836:	20 e0       	ldi	r18, 0x00	; 0
    5838:	34 e0       	ldi	r19, 0x04	; 4
    583a:	40 e0       	ldi	r20, 0x00	; 0
    583c:	50 e0       	ldi	r21, 0x00	; 0
    583e:	0e 94 d1 3e 	call	0x7da2	; 0x7da2 <__divmodsi4>
    5842:	30 93 b6 01 	sts	0x01B6, r19	; 0x8001b6 <Semi+0x7>
    5846:	20 93 b5 01 	sts	0x01B5, r18	; 0x8001b5 <Semi+0x6>

  /* update reference source for next ADC run */
  Cfg.Ref = ADC_REF_VCC;         /* we've used Vcc as reference */
    584a:	80 e4       	ldi	r24, 0x40	; 64
    584c:	80 93 a5 01 	sts	0x01A5, r24	; 0x8001a5 <Cfg+0x5>
}
    5850:	cd b7       	in	r28, 0x3d	; 61
    5852:	de b7       	in	r29, 0x3e	; 62
    5854:	eb e0       	ldi	r30, 0x0B	; 11
    5856:	0c 94 3a 3f 	jmp	0x7e74	; 0x7e74 <__epilogue_restores__+0xe>

0000585a <Get_hFE_C>:
 *  returns:
 *  - hFE
 */

uint32_t Get_hFE_C(uint8_t Type)
{
    585a:	a4 e0       	ldi	r26, 0x04	; 4
    585c:	b0 e0       	ldi	r27, 0x00	; 0
    585e:	e3 e3       	ldi	r30, 0x33	; 51
    5860:	fc e2       	ldi	r31, 0x2C	; 44
    5862:	0c 94 19 3f 	jmp	0x7e32	; 0x7e32 <__prologue_saves__+0x4>
    5866:	b8 2e       	mov	r11, r24
    5868:	80 91 d3 01 	lds	r24, 0x01D3	; 0x8001d3 <Probes+0x8>

  /*
   *  set up probes and get voltages using Rl as base resistor
   */

  if (Type == TYPE_NPN)            /* NPN */
    586c:	21 e0       	ldi	r18, 0x01	; 1
    586e:	b2 12       	cpse	r11, r18
    5870:	26 c0       	rjmp	.+76     	; 0x58be <Get_hFE_C+0x64>
  {
    /* we assume: probe-1 = C / probe-2 = E / probe-3 = B */
    /* set probes: Gnd -- Rl -- probe-2 / probe-1 -- Vcc / probe-3 -- Rl -- Vcc */
    ADC_DDR = Probes.Pin_1;             /* set probe-1 to output */
    5872:	90 91 d7 01 	lds	r25, 0x01D7	; 0x8001d7 <Probes+0xc>
    5876:	97 b9       	out	0x07, r25	; 7
    ADC_PORT = Probes.Pin_1;            /* pull up collector directly */
    5878:	98 b9       	out	0x08, r25	; 8
    R_DDR = Probes.Rl_2 | Probes.Rl_3;  /* select Rl for probe-2 & Rl for probe-3 */
    587a:	90 91 d2 01 	lds	r25, 0x01D2	; 0x8001d2 <Probes+0x7>
    587e:	98 2b       	or	r25, r24
    5880:	94 b9       	out	0x04, r25	; 4
    R_PORT = Probes.Rl_3;               /* pull up base via Rl */
    5882:	85 b9       	out	0x05, r24	; 5

    U_R_e = ReadU_5ms(Probes.Ch_2);          /* U_R_e = U_e */
    5884:	80 91 db 01 	lds	r24, 0x01DB	; 0x8001db <Probes+0x10>
    5888:	0e 94 18 1c 	call	0x3830	; 0x3830 <ReadU_5ms>
    588c:	8c 01       	movw	r16, r24
    U_R_b = Cfg.Vcc - ReadU(Probes.Ch_3);    /* U_R_b = Vcc - U_b */
    588e:	80 91 a8 01 	lds	r24, 0x01A8	; 0x8001a8 <Cfg+0x8>
    5892:	90 91 a9 01 	lds	r25, 0x01A9	; 0x8001a9 <Cfg+0x9>
    5896:	9a 83       	std	Y+2, r25	; 0x02
    5898:	89 83       	std	Y+1, r24	; 0x01
    589a:	80 91 dc 01 	lds	r24, 0x01DC	; 0x8001dc <Probes+0x11>
    589e:	0e 94 b7 1b 	call	0x376e	; 0x376e <ReadU>
    58a2:	a9 81       	ldd	r26, Y+1	; 0x01
    58a4:	ba 81       	ldd	r27, Y+2	; 0x02
    58a6:	a8 1b       	sub	r26, r24
    58a8:	b9 0b       	sbc	r27, r25
    58aa:	ba 83       	std	Y+2, r27	; 0x02
    58ac:	a9 83       	std	Y+1, r26	; 0x01

    #ifdef SW_HFE_CURRENT
    I_e = (int32_t)U_R_e;               /* U_R_e (mV) */
    58ae:	28 01       	movw	r4, r16
    58b0:	61 2c       	mov	r6, r1
    58b2:	71 2c       	mov	r7, r1
    Ri = NV.RiL;                        /* RiL (0.1 Ohms) */
    58b4:	e0 91 dd 01 	lds	r30, 0x01DD	; 0x8001dd <NV>
    58b8:	f0 91 de 01 	lds	r31, 0x01DE	; 0x8001de <NV+0x1>
    58bc:	28 c0       	rjmp	.+80     	; 0x590e <Get_hFE_C+0xb4>
  }
  else                             /* PNP */
  {
    /* we assume: probe-1 = E / probe-2 = C / probe-3 = B */
    /* set probes: Gnd -- probe-2 / probe-1 -- Rl -- Vcc / Gnd -- Rl -- probe-3 */
    ADC_PORT = 0;                       /* set ADC port low */
    58be:	18 b8       	out	0x08, r1	; 8
    ADC_DDR = Probes.Pin_2;             /* pull down collector directly */
    58c0:	90 91 d8 01 	lds	r25, 0x01D8	; 0x8001d8 <Probes+0xd>
    58c4:	97 b9       	out	0x07, r25	; 7
    R_PORT = Probes.Rl_1;               /* pull up emitter via Rl */
    58c6:	90 91 d1 01 	lds	r25, 0x01D1	; 0x8001d1 <Probes+0x6>
    58ca:	95 b9       	out	0x05, r25	; 5
    R_DDR = Probes.Rl_1 | Probes.Rl_3;  /* pull down base via Rl */
    58cc:	89 2b       	or	r24, r25
    58ce:	84 b9       	out	0x04, r24	; 4

    U_R_e = Cfg.Vcc - ReadU_5ms(Probes.Ch_1);     /* U_R_e = Vcc - U_e */
    58d0:	00 91 a8 01 	lds	r16, 0x01A8	; 0x8001a8 <Cfg+0x8>
    58d4:	10 91 a9 01 	lds	r17, 0x01A9	; 0x8001a9 <Cfg+0x9>
    58d8:	80 91 da 01 	lds	r24, 0x01DA	; 0x8001da <Probes+0xf>
    58dc:	0e 94 18 1c 	call	0x3830	; 0x3830 <ReadU_5ms>
    58e0:	08 1b       	sub	r16, r24
    58e2:	19 0b       	sbc	r17, r25
    U_R_b = ReadU(Probes.Ch_3);                   /* U_R_b = U_b */
    58e4:	80 91 dc 01 	lds	r24, 0x01DC	; 0x8001dc <Probes+0x11>
    58e8:	0e 94 b7 1b 	call	0x376e	; 0x376e <ReadU>
    58ec:	9a 83       	std	Y+2, r25	; 0x02
    58ee:	89 83       	std	Y+1, r24	; 0x01

    #ifdef SW_HFE_CURRENT
    I_e = -(int32_t)U_R_e;              /* negative U_R_e (mV) */
    58f0:	28 01       	movw	r4, r16
    58f2:	61 2c       	mov	r6, r1
    58f4:	71 2c       	mov	r7, r1
    58f6:	70 94       	com	r7
    58f8:	60 94       	com	r6
    58fa:	50 94       	com	r5
    58fc:	40 94       	com	r4
    58fe:	41 1c       	adc	r4, r1
    5900:	51 1c       	adc	r5, r1
    5902:	61 1c       	adc	r6, r1
    5904:	71 1c       	adc	r7, r1
    Ri = NV.RiH;                        /* RiH (0.1 Ohms) */
    5906:	e0 91 df 01 	lds	r30, 0x01DF	; 0x8001df <NV+0x2>
    590a:	f0 91 e0 01 	lds	r31, 0x01E0	; 0x8001e0 <NV+0x3>
   *  Both resistors are about the same (R_e = R_b): 
   *  - hFE = ((U_R_e / R_e) - (U_R_b / R_b)) / (U_R_b / R_b)
   *  -     = (U_R_e - U_R_b) / U_R_b 
   */

  if (U_R_b == 0) U_R_b = 1;            /* prevent division by zero */
    590e:	29 81       	ldd	r18, Y+1	; 0x01
    5910:	3a 81       	ldd	r19, Y+2	; 0x02
    5912:	23 2b       	or	r18, r19
    5914:	21 f4       	brne	.+8      	; 0x591e <Get_hFE_C+0xc4>
    5916:	81 e0       	ldi	r24, 0x01	; 1
    5918:	90 e0       	ldi	r25, 0x00	; 0
    591a:	9a 83       	std	Y+2, r25	; 0x02
    591c:	89 83       	std	Y+1, r24	; 0x01

  hFE = (uint32_t)((U_R_e - U_R_b) / U_R_b);
    591e:	c8 01       	movw	r24, r16
    5920:	a9 81       	ldd	r26, Y+1	; 0x01
    5922:	ba 81       	ldd	r27, Y+2	; 0x02
    5924:	8a 1b       	sub	r24, r26
    5926:	9b 0b       	sbc	r25, r27
    5928:	bd 01       	movw	r22, r26
    592a:	0e 94 87 3e 	call	0x7d0e	; 0x7d0e <__udivmodhi4>
    592e:	6b 01       	movw	r12, r22
    5930:	e1 2c       	mov	r14, r1
    5932:	f1 2c       	mov	r15, r1

  #ifdef SW_HFE_CURRENT
  /* calculate emitter current: I_e = U_R_e / (Rl + Ri) */
  /* NPN: Ri = RiL / PNP: Ri = RiH */
  I_e *= 10000;                    /* scale to 0.1 V (for A and Ri's 0.1 Ohms */
    5934:	a0 e1       	ldi	r26, 0x10	; 16
    5936:	b7 e2       	ldi	r27, 0x27	; 39
    5938:	a3 01       	movw	r20, r6
    593a:	92 01       	movw	r18, r4
    593c:	0e 94 0c 3f 	call	0x7e18	; 0x7e18 <__muluhisi3>
  Ri += (R_LOW * 10);              /* Ri + Rl (in 0.1 Ohms) */
  I_e /= Ri;                       /* / (Rl + Ri) */
  Semi.U_2 = (int16_t)I_e;         /* save I_e (in A) */
    5940:	9f 01       	movw	r18, r30
    5942:	20 57       	subi	r18, 0x70	; 112
    5944:	35 4e       	sbci	r19, 0xE5	; 229
    5946:	40 e0       	ldi	r20, 0x00	; 0
    5948:	50 e0       	ldi	r21, 0x00	; 0
    594a:	0e 94 d1 3e 	call	0x7da2	; 0x7da2 <__divmodsi4>
    594e:	30 93 b6 01 	sts	0x01B6, r19	; 0x8001b6 <Semi+0x7>
    5952:	20 93 b5 01 	sts	0x01B5, r18	; 0x8001b5 <Semi+0x6>
  /*
   *  for a possible high gain BJT or Darlington change the base resistor
   *  from Rl to Rh and measure again
   */

  if (U_R_b <= 15)            /* I_b <= 21 A */
    5956:	29 81       	ldd	r18, Y+1	; 0x01
    5958:	3a 81       	ldd	r19, Y+2	; 0x02
    595a:	20 31       	cpi	r18, 0x10	; 16
    595c:	31 05       	cpc	r19, r1
    595e:	08 f0       	brcs	.+2      	; 0x5962 <Get_hFE_C+0x108>
    5960:	89 c0       	rjmp	.+274    	; 0x5a74 <Get_hFE_C+0x21a>
    5962:	80 91 d6 01 	lds	r24, 0x01D6	; 0x8001d6 <Probes+0xb>
  {
    if (Type == TYPE_NPN)          /* NPN */
    5966:	31 e0       	ldi	r19, 0x01	; 1
    5968:	b3 12       	cpse	r11, r19
    596a:	22 c0       	rjmp	.+68     	; 0x59b0 <Get_hFE_C+0x156>
    {
      /* change probes: probe-3 -- Rh -- Vcc */
      R_DDR = Probes.Rl_2 | Probes.Rh_3;     /* select Rl for probe-2 & Rh for probe-3 */
    596c:	90 91 d2 01 	lds	r25, 0x01D2	; 0x8001d2 <Probes+0x7>
    5970:	98 2b       	or	r25, r24
    5972:	94 b9       	out	0x04, r25	; 4
      R_PORT = Probes.Rh_3;                  /* pull up base via Rh */
    5974:	85 b9       	out	0x05, r24	; 5

      U_R_e = ReadU_5ms(Probes.Ch_2);             /* U_R_e = U_e */
    5976:	80 91 db 01 	lds	r24, 0x01DB	; 0x8001db <Probes+0x10>
    597a:	0e 94 18 1c 	call	0x3830	; 0x3830 <ReadU_5ms>
    597e:	8c 01       	movw	r16, r24
      U_R_b = Cfg.Vcc - ReadU(Probes.Ch_3);       /* U_R_b = Vcc - U_b */
    5980:	80 91 a8 01 	lds	r24, 0x01A8	; 0x8001a8 <Cfg+0x8>
    5984:	90 91 a9 01 	lds	r25, 0x01A9	; 0x8001a9 <Cfg+0x9>
    5988:	9a 83       	std	Y+2, r25	; 0x02
    598a:	89 83       	std	Y+1, r24	; 0x01
    598c:	80 91 dc 01 	lds	r24, 0x01DC	; 0x8001dc <Probes+0x11>
    5990:	0e 94 b7 1b 	call	0x376e	; 0x376e <ReadU>
    5994:	e9 81       	ldd	r30, Y+1	; 0x01
    5996:	fa 81       	ldd	r31, Y+2	; 0x02
    5998:	e8 1b       	sub	r30, r24
    599a:	f9 0b       	sbc	r31, r25

      #ifdef SW_HFE_CURRENT
      I_e = (int32_t)U_R_e;             /* U_R_e (mV) */
    599c:	48 01       	movw	r8, r16
    599e:	a1 2c       	mov	r10, r1
    59a0:	b1 2c       	mov	r11, r1
      #endif

      Ri = NV.RiL;                      /* get internal resistance */
    59a2:	a0 91 dd 01 	lds	r26, 0x01DD	; 0x8001dd <NV>
    59a6:	b0 91 de 01 	lds	r27, 0x01DE	; 0x8001de <NV+0x1>
    59aa:	ba 83       	std	Y+2, r27	; 0x02
    59ac:	a9 83       	std	Y+1, r26	; 0x01
    59ae:	24 c0       	rjmp	.+72     	; 0x59f8 <Get_hFE_C+0x19e>
    }
    else                           /* PNP */
    {
      /* change probes: Gnd -- Rh -- probe-3 */
      R_DDR = Probes.Rl_1 | Probes.Rh_3;     /* pull down base via Rh */
    59b0:	90 91 d1 01 	lds	r25, 0x01D1	; 0x8001d1 <Probes+0x6>
    59b4:	89 2b       	or	r24, r25
    59b6:	84 b9       	out	0x04, r24	; 4

      U_R_e = Cfg.Vcc - ReadU_5ms(Probes.Ch_1);   /* U_R_e = Vcc - U_e */
    59b8:	00 91 a8 01 	lds	r16, 0x01A8	; 0x8001a8 <Cfg+0x8>
    59bc:	10 91 a9 01 	lds	r17, 0x01A9	; 0x8001a9 <Cfg+0x9>
    59c0:	80 91 da 01 	lds	r24, 0x01DA	; 0x8001da <Probes+0xf>
    59c4:	0e 94 18 1c 	call	0x3830	; 0x3830 <ReadU_5ms>
    59c8:	08 1b       	sub	r16, r24
    59ca:	19 0b       	sbc	r17, r25
      U_R_b = ReadU(Probes.Ch_3);                 /* U_R_b = U_b */
    59cc:	80 91 dc 01 	lds	r24, 0x01DC	; 0x8001dc <Probes+0x11>
    59d0:	0e 94 b7 1b 	call	0x376e	; 0x376e <ReadU>
    59d4:	fc 01       	movw	r30, r24

      #ifdef SW_HFE_CURRENT
      I_e = -(int32_t)U_R_e;            /* negative U_R_e (mV) */
    59d6:	48 01       	movw	r8, r16
    59d8:	a1 2c       	mov	r10, r1
    59da:	b1 2c       	mov	r11, r1
    59dc:	b0 94       	com	r11
    59de:	a0 94       	com	r10
    59e0:	90 94       	com	r9
    59e2:	80 94       	com	r8
    59e4:	81 1c       	adc	r8, r1
    59e6:	91 1c       	adc	r9, r1
    59e8:	a1 1c       	adc	r10, r1
    59ea:	b1 1c       	adc	r11, r1
      #endif

      Ri = NV.RiH;                      /* get internal resistance */
    59ec:	20 91 df 01 	lds	r18, 0x01DF	; 0x8001df <NV+0x2>
    59f0:	30 91 e0 01 	lds	r19, 0x01E0	; 0x8001e0 <NV+0x3>
    59f4:	3a 83       	std	Y+2, r19	; 0x02
    59f6:	29 83       	std	Y+1, r18	; 0x01
     *  hFE = I_e / I_b
     *      = (U_R_e / R_e) / (U_R_b / R_b)
     *      = (U_R_e * R_b) / (U_R_b * R_e)
     */

    if (U_R_b == 0) U_R_b = 1;          /* prevent division by zero */
    59f8:	30 97       	sbiw	r30, 0x00	; 0
    59fa:	11 f4       	brne	.+4      	; 0x5a00 <Get_hFE_C+0x1a6>
    59fc:	e1 e0       	ldi	r30, 0x01	; 1
    59fe:	f0 e0       	ldi	r31, 0x00	; 0
    hFE2 = U_R_e * R_HIGH;              /* U_R_e * R_b */
    5a00:	d8 01       	movw	r26, r16
    5a02:	20 ef       	ldi	r18, 0xF0	; 240
    5a04:	3b e2       	ldi	r19, 0x2B	; 43
    5a06:	47 e0       	ldi	r20, 0x07	; 7
    5a08:	50 e0       	ldi	r21, 0x00	; 0
    5a0a:	0e 94 0c 3f 	call	0x7e18	; 0x7e18 <__muluhisi3>
    hFE2 /= U_R_b;                      /* / U_R_b */
    5a0e:	9f 01       	movw	r18, r30
    5a10:	40 e0       	ldi	r20, 0x00	; 0
    5a12:	50 e0       	ldi	r21, 0x00	; 0
    5a14:	0e 94 af 3e 	call	0x7d5e	; 0x7d5e <__udivmodsi4>
    hFE2 *= 10;                         /* upscale to 0.1 */
    Ri += (R_LOW * 10);                 /* R_e = Ri + Rl (in 0.1 Ohms) */
    5a18:	89 81       	ldd	r24, Y+1	; 0x01
    5a1a:	9a 81       	ldd	r25, Y+2	; 0x02
    5a1c:	80 57       	subi	r24, 0x70	; 112
    5a1e:	95 4e       	sbci	r25, 0xE5	; 229
    5a20:	9a 83       	std	Y+2, r25	; 0x02
    5a22:	89 83       	std	Y+1, r24	; 0x01
    hFE2 /= Ri;                         /* / R_e in 0.1 Ohms */
    5a24:	aa e0       	ldi	r26, 0x0A	; 10
    5a26:	b0 e0       	ldi	r27, 0x00	; 0
    5a28:	0e 94 0c 3f 	call	0x7e18	; 0x7e18 <__muluhisi3>
    5a2c:	a9 81       	ldd	r26, Y+1	; 0x01
    5a2e:	ba 81       	ldd	r27, Y+2	; 0x02
    5a30:	2d 01       	movw	r4, r26
    5a32:	61 2c       	mov	r6, r1
    5a34:	71 2c       	mov	r7, r1
    5a36:	a3 01       	movw	r20, r6
    5a38:	92 01       	movw	r18, r4
    5a3a:	0e 94 af 3e 	call	0x7d5e	; 0x7d5e <__udivmodsi4>
    5a3e:	29 83       	std	Y+1, r18	; 0x01
    5a40:	3a 83       	std	Y+2, r19	; 0x02
    5a42:	4b 83       	std	Y+3, r20	; 0x03
    5a44:	5c 83       	std	Y+4, r21	; 0x04

    /* keep the higher hFE */
    if (hFE2 > hFE)                     /* hFE_Rh higher */
    5a46:	c2 16       	cp	r12, r18
    5a48:	d3 06       	cpc	r13, r19
    5a4a:	e4 06       	cpc	r14, r20
    5a4c:	f5 06       	cpc	r15, r21
    5a4e:	90 f4       	brcc	.+36     	; 0x5a74 <Get_hFE_C+0x21a>
    {
      hFE = hFE2;                       /* update hFE */
      #ifdef SW_HFE_CURRENT
      /* calculate emitter current: I_e = U_R_e / (Rl + Ri) */
      /* NPN: Ri = RiL / PNP: Ri = RiH */
      I_e *= 10000;                /* scale to 0.1 V (for A and Ri's 0.1 Ohms */
    5a50:	a0 e1       	ldi	r26, 0x10	; 16
    5a52:	b7 e2       	ldi	r27, 0x27	; 39
    5a54:	a5 01       	movw	r20, r10
    5a56:	94 01       	movw	r18, r8
    5a58:	0e 94 0c 3f 	call	0x7e18	; 0x7e18 <__muluhisi3>
      I_e /= Ri;                   /* / (Rl + Ri) */
      Semi.U_2 = (int16_t)I_e;     /* update I_e (in A) */
    5a5c:	a3 01       	movw	r20, r6
    5a5e:	92 01       	movw	r18, r4
    5a60:	0e 94 d1 3e 	call	0x7da2	; 0x7da2 <__divmodsi4>
    5a64:	30 93 b6 01 	sts	0x01B6, r19	; 0x8001b6 <Semi+0x7>
    5a68:	20 93 b5 01 	sts	0x01B5, r18	; 0x8001b5 <Semi+0x6>
    5a6c:	c9 80       	ldd	r12, Y+1	; 0x01
    5a6e:	da 80       	ldd	r13, Y+2	; 0x02
    5a70:	eb 80       	ldd	r14, Y+3	; 0x03
    5a72:	fc 80       	ldd	r15, Y+4	; 0x04
  #endif

  #endif

  return hFE;
}
    5a74:	c7 01       	movw	r24, r14
    5a76:	b6 01       	movw	r22, r12
    5a78:	24 96       	adiw	r28, 0x04	; 4
    5a7a:	e0 e1       	ldi	r30, 0x10	; 16
    5a7c:	0c 94 35 3f 	jmp	0x7e6a	; 0x7e6a <__epilogue_restores__+0x4>

00005a80 <CheckTransistor>:
 *  - BJT_Type: NPN or PNP (also used for FET channel type)
 *  - U_Rl: voltage across Rl pulled down
 */

void CheckTransistor(uint8_t BJT_Type, uint16_t U_Rl)
{
    5a80:	a0 e0       	ldi	r26, 0x00	; 0
    5a82:	b0 e0       	ldi	r27, 0x00	; 0
    5a84:	e6 e4       	ldi	r30, 0x46	; 70
    5a86:	fd e2       	ldi	r31, 0x2D	; 45
    5a88:	0c 94 18 3f 	jmp	0x7e30	; 0x7e30 <__prologue_saves__+0x2>
    5a8c:	38 2e       	mov	r3, r24
    5a8e:	5b 01       	movw	r10, r22

  /*
   *  init, set probes and measure
   */

  BackupProbes();             /* save current probe IDs */
    5a90:	0e 94 90 1c 	call	0x3920	; 0x3920 <BackupProbes>
    5a94:	80 91 d6 01 	lds	r24, 0x01D6	; 0x8001d6 <Probes+0xb>

  if (BJT_Type == TYPE_NPN)   /* NPN / n-channel */
    5a98:	21 e0       	ldi	r18, 0x01	; 1
    5a9a:	32 12       	cpse	r3, r18
    5a9c:	29 c0       	rjmp	.+82     	; 0x5af0 <CheckTransistor+0x70>
     *  probes already set to:
     *    Gnd -- probe-2 / probe-1 -- Rl -- Vcc / (probe-3 -- Rl -- Vcc)
     *  drive base/gate via Rh instead of Rl
     */

    R_DDR = Probes.Rl_1 | Probes.Rh_3;       /* enable Rl for probe-1 & Rh for probe-3 */
    5a9e:	90 91 d1 01 	lds	r25, 0x01D1	; 0x8001d1 <Probes+0x6>
    5aa2:	89 2b       	or	r24, r25
    5aa4:	84 b9       	out	0x04, r24	; 4
    R_PORT = Probes.Rl_1 | Probes.Rh_3;      /* pull up collector via Rl and base via Rh */
    5aa6:	85 b9       	out	0x05, r24	; 5
    wait50ms();                              /* wait to skip gate charging of a FET */
    5aa8:	0e 94 75 3c 	call	0x78ea	; 0x78ea <wait50ms>
    U_R_c = Cfg.Vcc - ReadU(Probes.Ch_1);    /* U_R_c = Vcc - U_c */ 
    5aac:	c0 91 a8 01 	lds	r28, 0x01A8	; 0x8001a8 <Cfg+0x8>
    5ab0:	d0 91 a9 01 	lds	r29, 0x01A9	; 0x8001a9 <Cfg+0x9>
    5ab4:	80 91 da 01 	lds	r24, 0x01DA	; 0x8001da <Probes+0xf>
    5ab8:	0e 94 b7 1b 	call	0x376e	; 0x376e <ReadU>
    5abc:	c8 1b       	sub	r28, r24
    5abe:	d9 0b       	sbc	r29, r25
    U_R_b = Cfg.Vcc - ReadU(Probes.Ch_3);    /* U_R_b = Vcc - U_b */
    5ac0:	00 91 a8 01 	lds	r16, 0x01A8	; 0x8001a8 <Cfg+0x8>
    5ac4:	10 91 a9 01 	lds	r17, 0x01A9	; 0x8001a9 <Cfg+0x9>
    5ac8:	80 91 dc 01 	lds	r24, 0x01DC	; 0x8001dc <Probes+0x11>
    5acc:	0e 94 b7 1b 	call	0x376e	; 0x376e <ReadU>
    5ad0:	f8 01       	movw	r30, r16
    5ad2:	e8 1b       	sub	r30, r24
    5ad4:	f9 0b       	sbc	r31, r25

    #ifdef SW_HFE_CURRENT
    I_c = (int32_t)U_R_c;          /* U_R_c (mV) */
    5ad6:	6e 01       	movw	r12, r28
    5ad8:	e1 2c       	mov	r14, r1
    5ada:	f1 2c       	mov	r15, r1
    #endif

    Ri = NV.RiH;                   /* RiH (0.1 Ohms) */
    5adc:	80 90 df 01 	lds	r8, 0x01DF	; 0x8001df <NV+0x2>
    5ae0:	90 90 e0 01 	lds	r9, 0x01E0	; 0x8001e0 <NV+0x3>
  BackupProbes();             /* save current probe IDs */

  if (BJT_Type == TYPE_NPN)   /* NPN / n-channel */
  {
    BJT_Level = 2557;         /* voltage across base resistor (5.44A) */
    FET_Level = 3400;         /* voltage across drain resistor (4.8mA) */
    5ae4:	88 e4       	ldi	r24, 0x48	; 72
    5ae6:	9d e0       	ldi	r25, 0x0D	; 13

  BackupProbes();             /* save current probe IDs */

  if (BJT_Type == TYPE_NPN)   /* NPN / n-channel */
  {
    BJT_Level = 2557;         /* voltage across base resistor (5.44A) */
    5ae8:	2d ef       	ldi	r18, 0xFD	; 253
    5aea:	39 e0       	ldi	r19, 0x09	; 9
    FET_Level = 3400;         /* voltage across drain resistor (4.8mA) */
    FET_Type = TYPE_N_CHANNEL;
    5aec:	11 e0       	ldi	r17, 0x01	; 1
    5aee:	21 c0       	rjmp	.+66     	; 0x5b32 <CheckTransistor+0xb2>
     *  probes already set to:
     *    Gnd -- Rl - probe-2 / probe-1 -- Vcc / (probe-3 -- Rl -- Gnd)
     *  drive base/gate via Rh instead of Rl
     */

    R_DDR = Probes.Rl_2 | Probes.Rh_3;  /* pull down base via Rh */
    5af0:	90 91 d2 01 	lds	r25, 0x01D2	; 0x8001d2 <Probes+0x7>
    5af4:	89 2b       	or	r24, r25
    5af6:	84 b9       	out	0x04, r24	; 4
    U_R_c = ReadU_5ms(Probes.Ch_2);     /* U_R_c = U_c */
    5af8:	80 91 db 01 	lds	r24, 0x01DB	; 0x8001db <Probes+0x10>
    5afc:	0e 94 18 1c 	call	0x3830	; 0x3830 <ReadU_5ms>
    5b00:	ec 01       	movw	r28, r24
    U_R_b = ReadU(Probes.Ch_3);         /* U_R_b = U_b */
    5b02:	80 91 dc 01 	lds	r24, 0x01DC	; 0x8001dc <Probes+0x11>
    5b06:	0e 94 b7 1b 	call	0x376e	; 0x376e <ReadU>
    5b0a:	fc 01       	movw	r30, r24

    #ifdef SW_HFE_CURRENT
    I_c = -(int32_t)U_R_c;         /* negative U_R_c (mV) */
    5b0c:	2e 01       	movw	r4, r28
    5b0e:	61 2c       	mov	r6, r1
    5b10:	71 2c       	mov	r7, r1
    5b12:	cc 24       	eor	r12, r12
    5b14:	dd 24       	eor	r13, r13
    5b16:	76 01       	movw	r14, r12
    5b18:	c4 18       	sub	r12, r4
    5b1a:	d5 08       	sbc	r13, r5
    5b1c:	e6 08       	sbc	r14, r6
    5b1e:	f7 08       	sbc	r15, r7
    #endif

    Ri = NV.RiL;                   /* RiL (0.1 Ohms) */
    5b20:	80 90 dd 01 	lds	r8, 0x01DD	; 0x8001dd <NV>
    5b24:	90 90 de 01 	lds	r9, 0x01DE	; 0x8001de <NV+0x1>
    Ri = NV.RiH;                   /* RiH (0.1 Ohms) */
  }
  else                        /* PNP / p-channel */
  {
    BJT_Level = 977;          /* voltage across base resistor (2.1A) */
    FET_Level = 2000;         /* voltage across drain resistor (2.8mA) */
    5b28:	80 ed       	ldi	r24, 0xD0	; 208
    5b2a:	97 e0       	ldi	r25, 0x07	; 7

    Ri = NV.RiH;                   /* RiH (0.1 Ohms) */
  }
  else                        /* PNP / p-channel */
  {
    BJT_Level = 977;          /* voltage across base resistor (2.1A) */
    5b2c:	21 ed       	ldi	r18, 0xD1	; 209
    5b2e:	33 e0       	ldi	r19, 0x03	; 3
    FET_Level = 2000;         /* voltage across drain resistor (2.8mA) */
    FET_Type = TYPE_P_CHANNEL;
    5b30:	12 e0       	ldi	r17, 0x02	; 2

  /*
   *  distinguish BJT from enhancement-mode MOSFET or IGBT
   */

  if (U_R_b > BJT_Level)      /* U_R_b exceeds minimum level of BJT */
    5b32:	2e 17       	cp	r18, r30
    5b34:	3f 07       	cpc	r19, r31
    5b36:	08 f0       	brcs	.+2      	; 0x5b3a <CheckTransistor+0xba>
    5b38:	fb c0       	rjmp	.+502    	; 0x5d30 <CheckTransistor+0x2b0>
     *  A reversed collector and emitter also passes the tests, but with a
     *  lower hFE. So we take the results of the test run with the higher
     *  hFE. A freewheeling diode might prevent one test run.
     */

    if (Check.Found == COMP_BJT)        /* second test run */
    5b3a:	80 91 06 01 	lds	r24, 0x0106	; 0x800106 <__data_end>
    5b3e:	8e 31       	cpi	r24, 0x1E	; 30
    5b40:	d9 f4       	brne	.+54     	; 0x5b78 <CheckTransistor+0xf8>
      /*
       *  If the type is different from the one in the first run, we have
       *  a parasitic BJT (caused by a freewheeling diode on the same substrate).
       */

      if (!(Check.Type & BJT_Type))     /* different type */
    5b42:	80 91 07 01 	lds	r24, 0x0107	; 0x800107 <__data_end+0x1>
    5b46:	93 2d       	mov	r25, r3
    5b48:	98 23       	and	r25, r24
    5b4a:	11 f4       	brne	.+4      	; 0x5b50 <CheckTransistor+0xd0>
      {
        Check.Type |= TYPE_PARASITIC;   /* set flag */
    5b4c:	84 60       	ori	r24, 0x04	; 4
    5b4e:	0c c0       	rjmp	.+24     	; 0x5b68 <CheckTransistor+0xe8>
       *  If we have an NPN and the collector/emitter pins are the same for both
       *  test runs we could have a TRIAC which wasn't detected (sufficient gate
       *  trigger current, but insufficient holding current).
       */

      else if (BJT_Type == TYPE_NPN)   /* same type and NPN */
    5b50:	31 e0       	ldi	r19, 0x01	; 1
    5b52:	33 12       	cpse	r3, r19
    5b54:	0b c0       	rjmp	.+22     	; 0x5b6c <CheckTransistor+0xec>
      {
        if (Semi.B == Probes.ID_1)     /* same pin for collector */
    5b56:	90 91 b0 01 	lds	r25, 0x01B0	; 0x8001b0 <Semi+0x1>
    5b5a:	80 91 cb 01 	lds	r24, 0x01CB	; 0x8001cb <Probes>
    5b5e:	98 13       	cpse	r25, r24
    5b60:	05 c0       	rjmp	.+10     	; 0x5b6c <CheckTransistor+0xec>
        {
          /* possibly a TRIAC with a too high holding current */
          Check.Found = COMP_ERROR;     /* signal error */
    5b62:	30 92 06 01 	sts	0x0106, r3	; 0x800106 <__data_end>
          Check.Type = TYPE_DETECTION;  /* detection problem */
    5b66:	82 e0       	ldi	r24, 0x02	; 2
    5b68:	80 93 07 01 	sts	0x0107, r24	; 0x800107 <__data_end+0x1>
        }
      }

      Check.Done |= DONE_SEMI;          /* no more tests needed */
    5b6c:	80 91 08 01 	lds	r24, 0x0108	; 0x800108 <__data_end+0x2>
    5b70:	81 60       	ori	r24, 0x01	; 1
    5b72:	80 93 08 01 	sts	0x0108, r24	; 0x800108 <__data_end+0x2>
    5b76:	05 c0       	rjmp	.+10     	; 0x5b82 <CheckTransistor+0x102>
    }
    else                                /* first test run */
    {
      Check.Found = COMP_BJT;           /* seems to be a BJT */
    5b78:	8e e1       	ldi	r24, 0x1E	; 30
    5b7a:	80 93 06 01 	sts	0x0106, r24	; 0x800106 <__data_end>
      Check.Type = BJT_Type;            /* save BJT type */
    5b7e:	30 92 07 01 	sts	0x0107, r3	; 0x800107 <__data_end+0x1>
     *        = (U_R_c_conducting - U_R_c_leak) / R_c
     *    -> U_R_c = U_R_c_conducting - U_R_c_leak
     *             = U_R_c_conducting - U_Rl
     */

    if (U_R_c > U_Rl) U_R_c -= U_Rl;    /* - U_Rl (leakage) */
    5b82:	ac 16       	cp	r10, r28
    5b84:	bd 06       	cpc	r11, r29
    5b86:	10 f4       	brcc	.+4      	; 0x5b8c <CheckTransistor+0x10c>
    5b88:	ca 19       	sub	r28, r10
    5b8a:	db 09       	sbc	r29, r11
    hFE_E = U_R_c * R_HIGH;             /* U_R_c * R_b */
    5b8c:	de 01       	movw	r26, r28
    5b8e:	20 ef       	ldi	r18, 0xF0	; 240
    5b90:	3b e2       	ldi	r19, 0x2B	; 43
    5b92:	47 e0       	ldi	r20, 0x07	; 7
    5b94:	50 e0       	ldi	r21, 0x00	; 0
    5b96:	0e 94 0c 3f 	call	0x7e18	; 0x7e18 <__muluhisi3>
    hFE_E /= U_R_b;                     /* / U_R_b */
    5b9a:	9f 01       	movw	r18, r30
    5b9c:	40 e0       	ldi	r20, 0x00	; 0
    5b9e:	50 e0       	ldi	r21, 0x00	; 0
    5ba0:	0e 94 af 3e 	call	0x7d5e	; 0x7d5e <__udivmodsi4>
    hFE_E *= 10;                        /* upscale to 0.1 */
    5ba4:	aa e0       	ldi	r26, 0x0A	; 10
    5ba6:	b0 e0       	ldi	r27, 0x00	; 0
    5ba8:	0e 94 0c 3f 	call	0x7e18	; 0x7e18 <__muluhisi3>
    Ri += (R_LOW * 10);                 /* R_c = Ri + Rl (in 0.1 Ohms) */
    5bac:	20 e7       	ldi	r18, 0x70	; 112
    5bae:	82 1a       	sub	r8, r18
    5bb0:	25 ee       	ldi	r18, 0xE5	; 229
    5bb2:	92 0a       	sbc	r9, r18
    hFE_E /= Ri;                        /* / R_c in 0.1 Ohms */
    5bb4:	a1 2c       	mov	r10, r1
    5bb6:	b1 2c       	mov	r11, r1
    5bb8:	a5 01       	movw	r20, r10
    5bba:	94 01       	movw	r18, r8
    5bbc:	0e 94 af 3e 	call	0x7d5e	; 0x7d5e <__udivmodsi4>
    5bc0:	29 01       	movw	r4, r18
    5bc2:	3a 01       	movw	r6, r20
    I_c *= 10000;                  /* scale to 0.1 V (for A and Ri's 0.1 Ohms */
    I_c /= Ri;                     /* / (Rl + Ri) */
    #endif

    /* get hFE for common collector circuit */
    hFE_C = Get_hFE_C(BJT_Type);
    5bc4:	83 2d       	mov	r24, r3
    5bc6:	0e 94 2d 2c 	call	0x585a	; 0x585a <Get_hFE_C>

    /* keep higher hFE of both test circuits */
    if (hFE_C > hFE_E)                  /* hFE_C larger */
    5bca:	46 16       	cp	r4, r22
    5bcc:	57 06       	cpc	r5, r23
    5bce:	68 06       	cpc	r6, r24
    5bd0:	79 06       	cpc	r7, r25
    5bd2:	70 f0       	brcs	.+28     	; 0x5bf0 <CheckTransistor+0x170>
    Flag = HFE_COMMON_EMITTER;          /* common emitter circuit */

    #ifdef SW_HFE_CURRENT
    /* calculate collector current: I_c = U_R_c / (Rl + Ri) */
    /* NPN: Ri = RiH / PNP: Ri = RiL */
    I_c *= 10000;                  /* scale to 0.1 V (for A and Ri's 0.1 Ohms */
    5bd4:	a0 e1       	ldi	r26, 0x10	; 16
    5bd6:	b7 e2       	ldi	r27, 0x27	; 39
    5bd8:	a7 01       	movw	r20, r14
    5bda:	96 01       	movw	r18, r12
    5bdc:	0e 94 0c 3f 	call	0x7e18	; 0x7e18 <__muluhisi3>
    I_c /= Ri;                     /* / (Rl + Ri) */
    5be0:	a5 01       	movw	r20, r10
    5be2:	94 01       	movw	r18, r8
    5be4:	0e 94 d1 3e 	call	0x7da2	; 0x7da2 <__divmodsi4>
    5be8:	49 01       	movw	r8, r18
    5bea:	5a 01       	movw	r10, r20
    hFE_E /= U_R_b;                     /* / U_R_b */
    hFE_E *= 10;                        /* upscale to 0.1 */
    Ri += (R_LOW * 10);                 /* R_c = Ri + Rl (in 0.1 Ohms) */
    hFE_E /= Ri;                        /* / R_c in 0.1 Ohms */

    Flag = HFE_COMMON_EMITTER;          /* common emitter circuit */
    5bec:	c1 e0       	ldi	r28, 0x01	; 1
    5bee:	0b c0       	rjmp	.+22     	; 0x5c06 <CheckTransistor+0x186>
    if (hFE_C > hFE_E)                  /* hFE_C larger */
    {
      hFE_E = hFE_C;                    /* take hFE_C */
      Flag = HFE_COMMON_COLLECTOR;      /* common collector circuit */
      #ifdef SW_HFE_CURRENT
      I_c = (int32_t)Semi.U_2;          /* take I_e from hFE_C measurement */
    5bf0:	80 90 b5 01 	lds	r8, 0x01B5	; 0x8001b5 <Semi+0x6>
    5bf4:	90 90 b6 01 	lds	r9, 0x01B6	; 0x8001b6 <Semi+0x7>
    5bf8:	09 2c       	mov	r0, r9
    5bfa:	00 0c       	add	r0, r0
    5bfc:	aa 08       	sbc	r10, r10
    5bfe:	bb 08       	sbc	r11, r11
    5c00:	2b 01       	movw	r4, r22
    5c02:	3c 01       	movw	r6, r24

    /* keep higher hFE of both test circuits */
    if (hFE_C > hFE_E)                  /* hFE_C larger */
    {
      hFE_E = hFE_C;                    /* take hFE_C */
      Flag = HFE_COMMON_COLLECTOR;      /* common collector circuit */
    5c04:	c2 e0       	ldi	r28, 0x02	; 2
    }

    /* update logic */
    FET_Type = 0;             /* use as update flag */

    if (hFE_E > Semi.F_1)     /* hFE not set yet or higher than old one */
    5c06:	80 91 b9 01 	lds	r24, 0x01B9	; 0x8001b9 <Semi+0xa>
    5c0a:	90 91 ba 01 	lds	r25, 0x01BA	; 0x8001ba <Semi+0xb>
    5c0e:	a0 91 bb 01 	lds	r26, 0x01BB	; 0x8001bb <Semi+0xc>
    5c12:	b0 91 bc 01 	lds	r27, 0x01BC	; 0x8001bc <Semi+0xd>
    5c16:	84 15       	cp	r24, r4
    5c18:	95 05       	cpc	r25, r5
    5c1a:	a6 05       	cpc	r26, r6
    5c1c:	b7 05       	cpc	r27, r7
    5c1e:	50 f4       	brcc	.+20     	; 0x5c34 <CheckTransistor+0x1b4>
    {
      FET_Type = 1;           /* update BJT data */

      #ifdef SW_REVERSE_HFE
      Semi.F_2 = Semi.F_1;    /* update reverse hFE with old value */
    5c20:	80 93 bd 01 	sts	0x01BD, r24	; 0x8001bd <Semi+0xe>
    5c24:	90 93 be 01 	sts	0x01BE, r25	; 0x8001be <Semi+0xf>
    5c28:	a0 93 bf 01 	sts	0x01BF, r26	; 0x8001bf <Semi+0x10>
    5c2c:	b0 93 c0 01 	sts	0x01C0, r27	; 0x8001c0 <Semi+0x11>
    /* update logic */
    FET_Type = 0;             /* use as update flag */

    if (hFE_E > Semi.F_1)     /* hFE not set yet or higher than old one */
    {
      FET_Type = 1;           /* update BJT data */
    5c30:	d1 e0       	ldi	r29, 0x01	; 1
    5c32:	09 c0       	rjmp	.+18     	; 0x5c46 <CheckTransistor+0x1c6>
      #endif
    }
    #ifdef SW_REVERSE_HFE
    else                      /* hFE lower than old one */
    {
      Semi.F_2 = hFE_E;       /* update reverse hFE with current value */
    5c34:	40 92 bd 01 	sts	0x01BD, r4	; 0x8001bd <Semi+0xe>
    5c38:	50 92 be 01 	sts	0x01BE, r5	; 0x8001be <Semi+0xf>
    5c3c:	60 92 bf 01 	sts	0x01BF, r6	; 0x8001bf <Semi+0x10>
    5c40:	70 92 c0 01 	sts	0x01C0, r7	; 0x8001c0 <Semi+0x11>
      I_c = (int32_t)Semi.U_2;          /* take I_e from hFE_C measurement */
      #endif
    }

    /* update logic */
    FET_Type = 0;             /* use as update flag */
    5c44:	d0 e0       	ldi	r29, 0x00	; 0
    /*
     *  parasitic BJT
     */

    /* measure Base-Emitter capacitance */
    if (BJT_Type == TYPE_NPN)           /* NPN */
    5c46:	31 e0       	ldi	r19, 0x01	; 1
    {
      MeasureCap(Probes.ID_2, Probes.ID_3, 0);       /* E-B */
    5c48:	40 e0       	ldi	r20, 0x00	; 0
    /*
     *  parasitic BJT
     */

    /* measure Base-Emitter capacitance */
    if (BJT_Type == TYPE_NPN)           /* NPN */
    5c4a:	33 12       	cpse	r3, r19
    5c4c:	05 c0       	rjmp	.+10     	; 0x5c58 <CheckTransistor+0x1d8>
    {
      MeasureCap(Probes.ID_2, Probes.ID_3, 0);       /* E-B */
    5c4e:	60 91 cd 01 	lds	r22, 0x01CD	; 0x8001cd <Probes+0x2>
    5c52:	80 91 cc 01 	lds	r24, 0x01CC	; 0x8001cc <Probes+0x1>
    5c56:	04 c0       	rjmp	.+8      	; 0x5c60 <CheckTransistor+0x1e0>
    }
    else                                /* PNP */
    {
      MeasureCap(Probes.ID_3, Probes.ID_1, 0);       /* B-E */
    5c58:	60 91 cb 01 	lds	r22, 0x01CB	; 0x8001cb <Probes>
    5c5c:	80 91 cd 01 	lds	r24, 0x01CD	; 0x8001cd <Probes+0x2>
    5c60:	0e 94 80 29 	call	0x5300	; 0x5300 <MeasureCap>
    }

    RestoreProbes();               /* restore original probe IDs */
    5c64:	0e 94 88 1c 	call	0x3910	; 0x3910 <RestoreProbes>

    if (Check.Type & TYPE_PARASITIC)    /* parasitic BJT */
    5c68:	80 91 07 01 	lds	r24, 0x0107	; 0x800107 <__data_end+0x1>
    5c6c:	82 ff       	sbrs	r24, 2
    5c6e:	1e c0       	rjmp	.+60     	; 0x5cac <CheckTransistor+0x22c>
      /*
       *  Detect the correct type:
       *  - The correct type has a larger Base-Emitter capacitance.
       */

      if (CmpValue(Semi.C_value, Semi.C_scale, Caps[0].Value, Caps[0].Scale) == 1)   
    5c70:	00 91 52 01 	lds	r16, 0x0152	; 0x800152 <Caps+0x3>
    5c74:	10 91 53 01 	lds	r17, 0x0153	; 0x800153 <Caps+0x4>
    5c78:	20 91 54 01 	lds	r18, 0x0154	; 0x800154 <Caps+0x5>
    5c7c:	30 91 55 01 	lds	r19, 0x0155	; 0x800155 <Caps+0x6>
    5c80:	60 91 c6 01 	lds	r22, 0x01C6	; 0x8001c6 <Semi+0x17>
    5c84:	70 91 c7 01 	lds	r23, 0x01C7	; 0x8001c7 <Semi+0x18>
    5c88:	80 91 c8 01 	lds	r24, 0x01C8	; 0x8001c8 <Semi+0x19>
    5c8c:	90 91 c9 01 	lds	r25, 0x01C9	; 0x8001c9 <Semi+0x1a>
    5c90:	e0 90 51 01 	lds	r14, 0x0151	; 0x800151 <Caps+0x2>
    5c94:	40 91 ca 01 	lds	r20, 0x01CA	; 0x8001ca <Semi+0x1b>
    5c98:	0e 94 fd 12 	call	0x25fa	; 0x25fa <CmpValue>
    5c9c:	81 30       	cpi	r24, 0x01	; 1
    5c9e:	09 f4       	brne	.+2      	; 0x5ca2 <CheckTransistor+0x222>
    5ca0:	dc c0       	rjmp	.+440    	; 0x5e5a <CheckTransistor+0x3da>
      }
      else
      {
        /* C_BE of old type is lower -> take the new type */
        FET_Type = 1;                             /* update data */
        Check.Type = BJT_Type | TYPE_PARASITIC;   /* update type */
    5ca2:	83 2d       	mov	r24, r3
    5ca4:	84 60       	ori	r24, 0x04	; 4
    5ca6:	80 93 07 01 	sts	0x0107, r24	; 0x800107 <__data_end+0x1>
    5caa:	03 c0       	rjmp	.+6      	; 0x5cb2 <CheckTransistor+0x232>

    /*
     *  update data
     */

    if (FET_Type > 0)              /* update requested */
    5cac:	dd 23       	and	r29, r29
    5cae:	09 f4       	brne	.+2      	; 0x5cb2 <CheckTransistor+0x232>
    5cb0:	d4 c0       	rjmp	.+424    	; 0x5e5a <CheckTransistor+0x3da>
    {
      GetLeakageCurrent(0);             /* get leakage current */
    5cb2:	80 e0       	ldi	r24, 0x00	; 0
    5cb4:	0e 94 27 2a 	call	0x544e	; 0x544e <GetLeakageCurrent>

      /* save data */
      Semi.F_1 = hFE_E;                 /* hFE */
    5cb8:	40 92 b9 01 	sts	0x01B9, r4	; 0x8001b9 <Semi+0xa>
    5cbc:	50 92 ba 01 	sts	0x01BA, r5	; 0x8001ba <Semi+0xb>
    5cc0:	60 92 bb 01 	sts	0x01BB, r6	; 0x8001bb <Semi+0xc>
    5cc4:	70 92 bc 01 	sts	0x01BC, r7	; 0x8001bc <Semi+0xd>
      Semi.Flags = Flag;                /* hFE circuit type */
    5cc8:	c0 93 b2 01 	sts	0x01B2, r28	; 0x8001b2 <Semi+0x3>
      #ifdef SW_HFE_CURRENT
      Semi.U_3 = (int16_t)I_c;          /* I_c/I_e (in A) */
    5ccc:	90 92 b8 01 	sts	0x01B8, r9	; 0x8001b8 <Semi+0x9>
    5cd0:	80 92 b7 01 	sts	0x01B7, r8	; 0x8001b7 <Semi+0x8>
      #endif
      Semi.C_value = Caps[0].Value;     /* B-E/E-B capacitance */
    5cd4:	80 91 52 01 	lds	r24, 0x0152	; 0x800152 <Caps+0x3>
    5cd8:	90 91 53 01 	lds	r25, 0x0153	; 0x800153 <Caps+0x4>
    5cdc:	a0 91 54 01 	lds	r26, 0x0154	; 0x800154 <Caps+0x5>
    5ce0:	b0 91 55 01 	lds	r27, 0x0155	; 0x800155 <Caps+0x6>
    5ce4:	80 93 c6 01 	sts	0x01C6, r24	; 0x8001c6 <Semi+0x17>
    5ce8:	90 93 c7 01 	sts	0x01C7, r25	; 0x8001c7 <Semi+0x18>
    5cec:	a0 93 c8 01 	sts	0x01C8, r26	; 0x8001c8 <Semi+0x19>
    5cf0:	b0 93 c9 01 	sts	0x01C9, r27	; 0x8001c9 <Semi+0x1a>
      Semi.C_scale = Caps[0].Scale;
    5cf4:	80 91 51 01 	lds	r24, 0x0151	; 0x800151 <Caps+0x2>
    5cf8:	80 93 ca 01 	sts	0x01CA, r24	; 0x8001ca <Semi+0x1b>
      Semi.A = Probes.ID_3;             /* base pin */
    5cfc:	80 91 cd 01 	lds	r24, 0x01CD	; 0x8001cd <Probes+0x2>
    5d00:	80 93 af 01 	sts	0x01AF, r24	; 0x8001af <Semi>
    5d04:	80 91 cb 01 	lds	r24, 0x01CB	; 0x8001cb <Probes>
    5d08:	90 91 cc 01 	lds	r25, 0x01CC	; 0x8001cc <Probes+0x1>

      /* update Collector and Emitter pins */
      if (BJT_Type == TYPE_NPN)    /* NPN */
    5d0c:	21 e0       	ldi	r18, 0x01	; 1
    5d0e:	32 12       	cpse	r3, r18
    5d10:	07 c0       	rjmp	.+14     	; 0x5d20 <CheckTransistor+0x2a0>
      {
        Semi.B = Probes.ID_1;      /* collector pin */
    5d12:	80 93 b0 01 	sts	0x01B0, r24	; 0x8001b0 <Semi+0x1>
        Semi.C = Probes.ID_2;      /* emitter pin */
    5d16:	90 93 b1 01 	sts	0x01B1, r25	; 0x8001b1 <Semi+0x2>

        #ifdef SW_SYMBOLS
        Check.Symbol = SYMBOL_BJT_NPN;  /* set symbol ID */
    5d1a:	10 92 0f 01 	sts	0x010F, r1	; 0x80010f <__data_end+0x9>
    5d1e:	9d c0       	rjmp	.+314    	; 0x5e5a <CheckTransistor+0x3da>
        #endif
      }
      else                         /* PNP */
      {
        Semi.B = Probes.ID_2;      /* collector pin */
    5d20:	90 93 b0 01 	sts	0x01B0, r25	; 0x8001b0 <Semi+0x1>
        Semi.C = Probes.ID_1;      /* emitter pin */
    5d24:	80 93 b1 01 	sts	0x01B1, r24	; 0x8001b1 <Semi+0x2>

        #ifdef SW_SYMBOLS
        Check.Symbol = SYMBOL_BJT_PNP;  /* set symbol ID */
    5d28:	81 e0       	ldi	r24, 0x01	; 1
    5d2a:	80 93 0f 01 	sts	0x010F, r24	; 0x80010f <__data_end+0x9>
    5d2e:	95 c0       	rjmp	.+298    	; 0x5e5a <CheckTransistor+0x3da>
        #endif
      }
    }
  }
  else if ((U_Rl < 97) && (U_R_c > FET_Level))    /* MOSFET */
    5d30:	31 e6       	ldi	r19, 0x61	; 97
    5d32:	a3 16       	cp	r10, r19
    5d34:	b1 04       	cpc	r11, r1
    5d36:	08 f0       	brcs	.+2      	; 0x5d3a <CheckTransistor+0x2ba>
    5d38:	90 c0       	rjmp	.+288    	; 0x5e5a <CheckTransistor+0x3da>
    5d3a:	8c 17       	cp	r24, r28
    5d3c:	9d 07       	cpc	r25, r29
    5d3e:	08 f0       	brcs	.+2      	; 0x5d42 <CheckTransistor+0x2c2>
    5d40:	8c c0       	rjmp	.+280    	; 0x5e5a <CheckTransistor+0x3da>
     *  while an IGBT acts more like a diode. So we measure the voltage drop
     *  across the conducting path. A MOSFET got a low voltage drop based on
     *  it's R_DS_on and the current. An IGBT got a much higher voltage drop.
     */

    FET_Level = ReadU(Probes.Ch_1) - ReadU(Probes.Ch_2);
    5d42:	80 91 da 01 	lds	r24, 0x01DA	; 0x8001da <Probes+0xf>
    5d46:	0e 94 b7 1b 	call	0x376e	; 0x376e <ReadU>
    5d4a:	6c 01       	movw	r12, r24
    5d4c:	80 91 db 01 	lds	r24, 0x01DB	; 0x8001db <Probes+0x10>
    5d50:	0e 94 b7 1b 	call	0x376e	; 0x376e <ReadU>
    5d54:	96 01       	movw	r18, r12
    5d56:	28 1b       	sub	r18, r24
    5d58:	39 0b       	sbc	r19, r25
    5d5a:	c9 01       	movw	r24, r18

    if (FET_Level < 250)      /* MOSFET */
    5d5c:	2a 3f       	cpi	r18, 0xFA	; 250
    5d5e:	31 05       	cpc	r19, r1
    5d60:	c0 f5       	brcc	.+112    	; 0x5dd2 <CheckTransistor+0x352>
    {
      Check.Found = COMP_FET;
    5d62:	2f e1       	ldi	r18, 0x1F	; 31
    5d64:	20 93 06 01 	sts	0x0106, r18	; 0x800106 <__data_end>
      Check.Type = FET_Type | TYPE_ENHANCEMENT | TYPE_MOSFET;
    5d68:	21 2f       	mov	r18, r17
    5d6a:	24 61       	ori	r18, 0x14	; 20
    5d6c:	20 93 07 01 	sts	0x0107, r18	; 0x800107 <__data_end+0x1>
       *  -> R_DS_on = FET_Level * Rl / U_R_c
       */

      BJT_Level = R_LOW * 10;                /* Rl in 0.1 Ohms */

      if (FET_Type == TYPE_N_CHANNEL)        /* n-channel */
    5d70:	11 30       	cpi	r17, 0x01	; 1
    5d72:	41 f4       	brne	.+16     	; 0x5d84 <CheckTransistor+0x304>
      {
        BJT_Level += NV.RiH;                 /* Rl + RiH (0.1 Ohms) */
    5d74:	a0 91 df 01 	lds	r26, 0x01DF	; 0x8001df <NV+0x2>
    5d78:	b0 91 e0 01 	lds	r27, 0x01E0	; 0x8001e0 <NV+0x3>
    5d7c:	a0 57       	subi	r26, 0x70	; 112
    5d7e:	b5 4e       	sbci	r27, 0xE5	; 229

        #ifdef SW_SYMBOLS
        Check.Symbol = SYMBOL_MOSFET_ENH_N;  /* set symbol ID */
    5d80:	22 e0       	ldi	r18, 0x02	; 2
    5d82:	07 c0       	rjmp	.+14     	; 0x5d92 <CheckTransistor+0x312>
        #endif
      }
      else                                   /* p-channel */
      {
        BJT_Level += NV.RiL;                 /* Rl + RiL (0.1 Ohms) */
    5d84:	a0 91 dd 01 	lds	r26, 0x01DD	; 0x8001dd <NV>
    5d88:	b0 91 de 01 	lds	r27, 0x01DE	; 0x8001de <NV+0x1>
    5d8c:	a0 57       	subi	r26, 0x70	; 112
    5d8e:	b5 4e       	sbci	r27, 0xE5	; 229

        #ifdef SW_SYMBOLS
        Check.Symbol = SYMBOL_MOSFET_ENH_P;  /* set symbol ID */
    5d90:	23 e0       	ldi	r18, 0x03	; 3
    5d92:	20 93 0f 01 	sts	0x010F, r18	; 0x80010f <__data_end+0x9>
        #endif
      }

      FET_Level *= 10;                            /* scale to 0.1 mV */
    5d96:	4a e0       	ldi	r20, 0x0A	; 10
    5d98:	48 9f       	mul	r20, r24
    5d9a:	90 01       	movw	r18, r0
    5d9c:	49 9f       	mul	r20, r25
    5d9e:	30 0d       	add	r19, r0
    5da0:	11 24       	eor	r1, r1
      hFE_C = (uint32_t)FET_Level * BJT_Level;    /* U_DS * Rl (0.1 Ohms * 0.1 mV) */
    5da2:	0e 94 f6 3e 	call	0x7dec	; 0x7dec <__umulhisi3>
      hFE_C /= U_R_c;                             /* / U_Rl (0.01 Ohms) */
      FET_Level = (uint16_t)hFE_C;                /* todo: check for upper limit */
    5da6:	9e 01       	movw	r18, r28
    5da8:	40 e0       	ldi	r20, 0x00	; 0
    5daa:	50 e0       	ldi	r21, 0x00	; 0
    5dac:	0e 94 af 3e 	call	0x7d5e	; 0x7d5e <__udivmodsi4>
      uint8_t            n;
      /* get index number for Source/Drain probe pair */
      n = GetOffsetIndex(Probes.ID_1, Probes.ID_2);
      BJT_Level = NV.RZero[n];
      #else
      BJT_Level = NV.RZero;
    5db0:	80 91 e1 01 	lds	r24, 0x01E1	; 0x8001e1 <NV+0x4>
    5db4:	90 91 e2 01 	lds	r25, 0x01E2	; 0x8001e2 <NV+0x5>
      #endif

      if (FET_Level > BJT_Level)        /* large enough */
    5db8:	82 17       	cp	r24, r18
    5dba:	93 07       	cpc	r25, r19
    5dbc:	18 f4       	brcc	.+6      	; 0x5dc4 <CheckTransistor+0x344>
      {
        FET_Level -= BJT_Level;         /* subtract probe resistance */
    5dbe:	28 1b       	sub	r18, r24
    5dc0:	39 0b       	sbc	r19, r25
    5dc2:	02 c0       	rjmp	.+4      	; 0x5dc8 <CheckTransistor+0x348>
      }
      else                              /* too small */
      {
        FET_Level = 0;                  /* set to zero */
    5dc4:	20 e0       	ldi	r18, 0x00	; 0
    5dc6:	30 e0       	ldi	r19, 0x00	; 0
      }

      Semi.U_1 = FET_Level;             /* save R_DS_on (0.01 Ohms) */
    5dc8:	30 93 b4 01 	sts	0x01B4, r19	; 0x8001b4 <Semi+0x5>
    5dcc:	20 93 b3 01 	sts	0x01B3, r18	; 0x8001b3 <Semi+0x4>
    5dd0:	0e c0       	rjmp	.+28     	; 0x5dee <CheckTransistor+0x36e>
    }
    else                      /* IGBT */
    {
      Check.Found = COMP_IGBT;
    5dd2:	80 e2       	ldi	r24, 0x20	; 32
    5dd4:	80 93 06 01 	sts	0x0106, r24	; 0x800106 <__data_end>
      Check.Type = FET_Type | TYPE_ENHANCEMENT;
    5dd8:	81 2f       	mov	r24, r17
    5dda:	84 60       	ori	r24, 0x04	; 4
    5ddc:	80 93 07 01 	sts	0x0107, r24	; 0x800107 <__data_end+0x1>

      #ifdef SW_SYMBOLS
      if (FET_Type == TYPE_N_CHANNEL)        /* n-channel */
    5de0:	11 30       	cpi	r17, 0x01	; 1
    5de2:	11 f4       	brne	.+4      	; 0x5de8 <CheckTransistor+0x368>
      {
        Check.Symbol = SYMBOL_IGBT_ENH_N;    /* set symbol ID */
    5de4:	88 e0       	ldi	r24, 0x08	; 8
    5de6:	01 c0       	rjmp	.+2      	; 0x5dea <CheckTransistor+0x36a>
      }
      else                                   /* p-channel */
      {
        Check.Symbol = SYMBOL_IGBT_ENH_P;    /* set symbol ID */
    5de8:	89 e0       	ldi	r24, 0x09	; 9
    5dea:	80 93 0f 01 	sts	0x010F, r24	; 0x80010f <__data_end+0x9>
      }
      #endif
    }

    GetGateThreshold(FET_Type);    /* measure gate threshold voltage */
    5dee:	81 2f       	mov	r24, r17
    5df0:	0e 94 b6 2b 	call	0x576c	; 0x576c <GetGateThreshold>

    Check.Done |= DONE_SEMI;       /* transistor detected */
    5df4:	80 91 08 01 	lds	r24, 0x0108	; 0x800108 <__data_end+0x2>
    5df8:	81 60       	ori	r24, 0x01	; 1
    5dfa:	80 93 08 01 	sts	0x0108, r24	; 0x800108 <__data_end+0x2>

    /* save data */
    Semi.A = Probes.ID_3;           /* gate pin */
    5dfe:	80 91 cd 01 	lds	r24, 0x01CD	; 0x8001cd <Probes+0x2>
    5e02:	80 93 af 01 	sts	0x01AF, r24	; 0x8001af <Semi>
    5e06:	90 91 cb 01 	lds	r25, 0x01CB	; 0x8001cb <Probes>
    5e0a:	20 91 cc 01 	lds	r18, 0x01CC	; 0x8001cc <Probes+0x1>

    if (FET_Type == TYPE_N_CHANNEL)     /* n-channel */
    5e0e:	11 30       	cpi	r17, 0x01	; 1
    5e10:	29 f4       	brne	.+10     	; 0x5e1c <CheckTransistor+0x39c>
    {
      Semi.B = Probes.ID_1;        /* drain pin */
    5e12:	90 93 b0 01 	sts	0x01B0, r25	; 0x8001b0 <Semi+0x1>
      Semi.C = Probes.ID_2;        /* source pin */
    5e16:	20 93 b1 01 	sts	0x01B1, r18	; 0x8001b1 <Semi+0x2>
    5e1a:	04 c0       	rjmp	.+8      	; 0x5e24 <CheckTransistor+0x3a4>
    }
    else                                /* p-channel */
    {
      Semi.B = Probes.ID_2;        /* drain pin */
    5e1c:	20 93 b0 01 	sts	0x01B0, r18	; 0x8001b0 <Semi+0x1>
      Semi.C = Probes.ID_1;        /* source pin */
    5e20:	90 93 b1 01 	sts	0x01B1, r25	; 0x8001b1 <Semi+0x2>
    }

    /* Gate-Source capacitance */
    MeasureCap(Semi.A, Semi.C, 0);      /* measure capacitance */
    5e24:	40 e0       	ldi	r20, 0x00	; 0
    5e26:	60 91 b1 01 	lds	r22, 0x01B1	; 0x8001b1 <Semi+0x2>
    5e2a:	0e 94 80 29 	call	0x5300	; 0x5300 <MeasureCap>
    Semi.C_value = Caps[0].Value;       /* save value */
    5e2e:	80 91 52 01 	lds	r24, 0x0152	; 0x800152 <Caps+0x3>
    5e32:	90 91 53 01 	lds	r25, 0x0153	; 0x800153 <Caps+0x4>
    5e36:	a0 91 54 01 	lds	r26, 0x0154	; 0x800154 <Caps+0x5>
    5e3a:	b0 91 55 01 	lds	r27, 0x0155	; 0x800155 <Caps+0x6>
    5e3e:	80 93 c6 01 	sts	0x01C6, r24	; 0x8001c6 <Semi+0x17>
    5e42:	90 93 c7 01 	sts	0x01C7, r25	; 0x8001c7 <Semi+0x18>
    5e46:	a0 93 c8 01 	sts	0x01C8, r26	; 0x8001c8 <Semi+0x19>
    5e4a:	b0 93 c9 01 	sts	0x01C9, r27	; 0x8001c9 <Semi+0x1a>
    Semi.C_scale = Caps[0].Scale;
    5e4e:	80 91 51 01 	lds	r24, 0x0151	; 0x800151 <Caps+0x2>
    5e52:	80 93 ca 01 	sts	0x01CA, r24	; 0x8001ca <Semi+0x1b>
    RestoreProbes();                    /* restore original probe IDs */
    5e56:	0e 94 88 1c 	call	0x3910	; 0x3910 <RestoreProbes>
  }
}
    5e5a:	cd b7       	in	r28, 0x3d	; 61
    5e5c:	de b7       	in	r29, 0x3e	; 62
    5e5e:	e1 e1       	ldi	r30, 0x11	; 17
    5e60:	0c 94 34 3f 	jmp	0x7e68	; 0x7e68 <__epilogue_restores__+0x2>

00005e64 <CheckDepletionModeFET>:
 *  requires:
 *  - U_Rl: voltage across Rl pulled down (Gate HiZ)
 */

void CheckDepletionModeFET(uint16_t U_Rl)
{
    5e64:	a0 e0       	ldi	r26, 0x00	; 0
    5e66:	b0 e0       	ldi	r27, 0x00	; 0
    5e68:	e8 e3       	ldi	r30, 0x38	; 56
    5e6a:	ff e2       	ldi	r31, 0x2F	; 47
    5e6c:	0c 94 20 3f 	jmp	0x7e40	; 0x7e40 <__prologue_saves__+0x12>

  /*
   *  select detection offset based on U_Rl
   */

  if (U_Rl > 490)         /* > 700A (was 92mV/130A) */
    5e70:	8b 3e       	cpi	r24, 0xEB	; 235
    5e72:	91 40       	sbci	r25, 0x01	; 1
    5e74:	28 f0       	brcs	.+10     	; 0x5e80 <CheckDepletionModeFET+0x1c>
     *
     *  The high threshold allows us to skip most germanium BJTs with a high
     *  leakage current (I_CEO), but not all.
     */

    Offset = 488;         /* 0.7mA */
    5e76:	98 ee       	ldi	r25, 0xE8	; 232
    5e78:	e9 2e       	mov	r14, r25
    5e7a:	ff 24       	eor	r15, r15
    5e7c:	f3 94       	inc	r15
    5e7e:	03 c0       	rjmp	.+6      	; 0x5e86 <CheckDepletionModeFET+0x22>
  }
  else                    /* > 21A (15mV) */
  {
    /* JFET with low I_DSS */
    Offset = 40;          /* 57A */
    5e80:	88 e2       	ldi	r24, 0x28	; 40
    5e82:	e8 2e       	mov	r14, r24
    5e84:	f1 2c       	mov	r15, r1
  /* probes already set to: Gnd -- Rl -- probe-2 / probe-1 -- Vcc */

  /* get source voltage when gate is pulled down */
  /* should create a slightly negative V_GS via voltage drop across Rl at source */
  /* set probes: Gnd -- Rl -- probe-2 / probe-1 -- Vcc / probe-3 -- Rh -- Gnd */
  R_DDR = Probes.Rl_2 | Probes.Rh_3;    /* pull down gate via Rh */
    5e86:	90 91 d2 01 	lds	r25, 0x01D2	; 0x8001d2 <Probes+0x7>
    5e8a:	80 91 d6 01 	lds	r24, 0x01D6	; 0x8001d6 <Probes+0xb>
    5e8e:	89 2b       	or	r24, r25
    5e90:	84 b9       	out	0x04, r24	; 4
  U_1 = ReadU_20ms(Probes.Ch_2);        /* voltage at source */
    5e92:	80 91 db 01 	lds	r24, 0x01DB	; 0x8001db <Probes+0x10>
    5e96:	0e 94 21 1c 	call	0x3842	; 0x3842 <ReadU_20ms>
    5e9a:	6c 01       	movw	r12, r24

  /* get source voltage when gate is pulled up */
  /* set probes: Gnd -- Rl -- probe-2 / probe-1 -- Vcc / probe-3 -- Rh -- Vcc */
  R_PORT = Probes.Rh_3;                 /* pull up gate via Rh */
    5e9c:	80 91 d6 01 	lds	r24, 0x01D6	; 0x8001d6 <Probes+0xb>
    5ea0:	85 b9       	out	0x05, r24	; 5
  U_2 = ReadU_20ms(Probes.Ch_2);        /* voltage at source */
    5ea2:	80 91 db 01 	lds	r24, 0x01DB	; 0x8001db <Probes+0x10>
    5ea6:	0e 94 21 1c 	call	0x3842	; 0x3842 <ReadU_20ms>
    5eaa:	ec 01       	movw	r28, r24
   *  If the source voltage is higher (more current), when the gate is driven
   *  by a positive voltage vs. connected to ground, we got a depletion-mode
   *  n-channel FET.
   */

  if (U_2 > (U_1 + Offset))   /* exceeds required offset */
    5eac:	c7 01       	movw	r24, r14
    5eae:	8c 0d       	add	r24, r12
    5eb0:	9d 1d       	adc	r25, r13
    5eb2:	8c 17       	cp	r24, r28
    5eb4:	9d 07       	cpc	r25, r29
    5eb6:	08 f0       	brcs	.+2      	; 0x5eba <CheckDepletionModeFET+0x56>
    5eb8:	66 c0       	rjmp	.+204    	; 0x5f86 <CheckDepletionModeFET+0x122>
     *  - NPN
     */

    /* get base voltage when base is pulled up by Rl */
    /* set probes: Gnd -- probe-2 / probe-3 -- Rl -- Vcc / probe-1 -- HiZ */
    R_DDR = Probes.Rl_3;                     /* switch to Rl for base */
    5eba:	80 91 d3 01 	lds	r24, 0x01D3	; 0x8001d3 <Probes+0x8>
    5ebe:	84 b9       	out	0x04, r24	; 4
    R_PORT = Probes.Rl_3;                    /* pull up base via Rl */
    5ec0:	85 b9       	out	0x05, r24	; 5
    ADC_PORT = 0;
    5ec2:	18 b8       	out	0x08, r1	; 8
    ADC_DDR = Probes.Pin_2;                  /* pull down emitter directly */
    5ec4:	80 91 d8 01 	lds	r24, 0x01D8	; 0x8001d8 <Probes+0xd>
    5ec8:	87 b9       	out	0x07, r24	; 7
    U_1 = ReadU_20ms(Probes.Ch_3);           /* get voltage at base */
    5eca:	80 91 dc 01 	lds	r24, 0x01DC	; 0x8001dc <Probes+0x11>
    5ece:	0e 94 21 1c 	call	0x3842	; 0x3842 <ReadU_20ms>
    ADC_DDR = 0;
    5ed2:	17 b8       	out	0x07, r1	; 7
  uint16_t          Offset;        /* offset voltage */
  uint16_t          U_1;           /* voltage #1 */
  uint16_t          U_2;           /* voltage #2 */
  uint16_t          Diff_1 = 0;    /* voltage difference #1 */
  uint16_t          Diff_2 = 0;    /* voltage difference #2 */
  uint8_t           Flag = 0;      /* control and signal flag */
    5ed4:	bb 24       	eor	r11, r11
    5ed6:	b3 94       	inc	r11
    5ed8:	8c 3b       	cpi	r24, 0xBC	; 188
    5eda:	92 40       	sbci	r25, 0x02	; 2
    5edc:	08 f0       	brcs	.+2      	; 0x5ee0 <CheckDepletionModeFET+0x7c>
    5ede:	b1 2c       	mov	r11, r1
     *  - NPN
     */

    /* get base voltage when base is pulled up by Rl */
    /* set probes: Gnd -- probe-1 / probe-3 -- Rl -- Vcc / probe-2 -- HiZ */
    ADC_DDR = Probes.Pin_1;                  /* pull down collector directly */
    5ee0:	80 91 d7 01 	lds	r24, 0x01D7	; 0x8001d7 <Probes+0xc>
    5ee4:	87 b9       	out	0x07, r24	; 7
    U_1 = ReadU_20ms(Probes.Ch_3);           /* get voltage at base */
    5ee6:	80 91 dc 01 	lds	r24, 0x01DC	; 0x8001dc <Probes+0x11>
    5eea:	0e 94 21 1c 	call	0x3842	; 0x3842 <ReadU_20ms>
    5eee:	8c 01       	movw	r16, r24
    U_2 = ReadU(Probes.Ch_1);                /* get voltage at collector */
    5ef0:	80 91 da 01 	lds	r24, 0x01DA	; 0x8001da <Probes+0xf>
    5ef4:	0e 94 b7 1b 	call	0x376e	; 0x376e <ReadU>
    ADC_DDR = 0;
    5ef8:	17 b8       	out	0x07, r1	; 7

    if (U_1 > U_2)          /* valid voltages */
    5efa:	80 17       	cp	r24, r16
    5efc:	91 07       	cpc	r25, r17
    5efe:	38 f4       	brcc	.+14     	; 0x5f0e <CheckDepletionModeFET+0xaa>
    {
      U_1 -= U_2;           /* V_f = U_B - U_C */

      if (U_1 < 450)        /* low V_f < 450mV */
    5f00:	08 1b       	sub	r16, r24
    5f02:	19 0b       	sbc	r17, r25
    5f04:	02 3c       	cpi	r16, 0xC2	; 194
    5f06:	11 40       	sbci	r17, 0x01	; 1
    5f08:	10 f4       	brcc	.+4      	; 0x5f0e <CheckDepletionModeFET+0xaa>
      {
        Flag = 1;           /* most likely a Schottky BJT */
    5f0a:	bb 24       	eor	r11, r11
    5f0c:	b3 94       	inc	r11

    /* we simulate: probe-1 = S / probe-2 = D / probe-3 = G */

    /* get source voltage when gate is pulled down */
    /* set probes: Gnd -- Rl -- probe-1 / probe-2 -- Vcc / probe-3 -- Rh -- Gnd */
    ADC_PORT = Probes.Pin_2;            /* set ADC port to high */
    5f0e:	80 91 d8 01 	lds	r24, 0x01D8	; 0x8001d8 <Probes+0xd>
    5f12:	88 b9       	out	0x08, r24	; 8
    ADC_DDR = Probes.Pin_2;             /* pull up drain directly */
    5f14:	87 b9       	out	0x07, r24	; 7
    R_DDR = Probes.Rl_1 | Probes.Rh_3;  /* enable Rl for source and Rh for gate */
    5f16:	90 91 d1 01 	lds	r25, 0x01D1	; 0x8001d1 <Probes+0x6>
    5f1a:	80 91 d6 01 	lds	r24, 0x01D6	; 0x8001d6 <Probes+0xb>
    5f1e:	89 2b       	or	r24, r25
    5f20:	84 b9       	out	0x04, r24	; 4
    R_PORT = 0;                         /* pull down source via Rl / pull down gate via Rh */
    5f22:	15 b8       	out	0x05, r1	; 5
    U_1 = ReadU_20ms(Probes.Ch_1);      /* voltage at source */
    5f24:	80 91 da 01 	lds	r24, 0x01DA	; 0x8001da <Probes+0xf>
    5f28:	0e 94 21 1c 	call	0x3842	; 0x3842 <ReadU_20ms>
    5f2c:	8c 01       	movw	r16, r24

    /* get source voltage when gate is pulled up */
    /* set probes: Gnd -- Rl -- probe-1 / probe-2 -- Vcc / probe-3 -- Rh -- Vcc */
    R_PORT = Probes.Rh_3;               /* pull up gate via Rh */
    5f2e:	80 91 d6 01 	lds	r24, 0x01D6	; 0x8001d6 <Probes+0xb>
    5f32:	85 b9       	out	0x05, r24	; 5
    U_2 = ReadU_20ms(Probes.Ch_1);      /* voltage at source */
    5f34:	80 91 da 01 	lds	r24, 0x01DA	; 0x8001da <Probes+0xf>
    5f38:	0e 94 21 1c 	call	0x3842	; 0x3842 <ReadU_20ms>
    Diff_2 = U_2 - U_1;                 /* source voltage difference */
    5f3c:	80 1b       	sub	r24, r16
    5f3e:	91 0b       	sbc	r25, r17
    5f40:	8c 01       	movw	r16, r24
    /*
     *  Compare gate voltages to distinguish JFET from MOSFET
     */

    /* set probes: Gnd -- probe-2 / probe-1 -- Rl -- Vcc / probe-3 -- Rh - Vcc */
    ADC_PORT = 0;                        /* set ADC port to low */
    5f42:	18 b8       	out	0x08, r1	; 8
    ADC_DDR = Probes.Pin_2;              /* pull down source directly */
    5f44:	80 91 d8 01 	lds	r24, 0x01D8	; 0x8001d8 <Probes+0xd>
    5f48:	87 b9       	out	0x07, r24	; 7
    R_DDR = Probes.Rl_1 | Probes.Rh_3;   /* enable Rl for drain & Rh for gate */
    5f4a:	90 91 d1 01 	lds	r25, 0x01D1	; 0x8001d1 <Probes+0x6>
    5f4e:	80 91 d6 01 	lds	r24, 0x01D6	; 0x8001d6 <Probes+0xb>
    5f52:	89 2b       	or	r24, r25
    5f54:	84 b9       	out	0x04, r24	; 4
    R_PORT = Probes.Rl_1 | Probes.Rh_3;  /* pull up drain via Rl / pull up gate via Rh */
    5f56:	85 b9       	out	0x05, r24	; 5

    U_1 = ReadU_20ms(Probes.Ch_3);       /* get voltage at gate */
    5f58:	80 91 dc 01 	lds	r24, 0x01DC	; 0x8001dc <Probes+0x11>
    5f5c:	0e 94 21 1c 	call	0x3842	; 0x3842 <ReadU_20ms>

    if (U_1 > 3911)           /* MOSFET */
    5f60:	88 34       	cpi	r24, 0x48	; 72
    5f62:	9f 40       	sbci	r25, 0x0F	; 15
    5f64:	28 f0       	brcs	.+10     	; 0x5f70 <CheckDepletionModeFET+0x10c>
    {
      /* n channel depletion-mode MOSFET */ 
      Check.Type = TYPE_N_CHANNEL | TYPE_DEPLETION | TYPE_MOSFET;
    5f66:	89 e1       	ldi	r24, 0x19	; 25
    5f68:	80 93 07 01 	sts	0x0107, r24	; 0x800107 <__data_end+0x1>
      #ifdef SW_SYMBOLS
      Check.Symbol = SYMBOL_MOSFET_DEP_N;    /* set symbol ID */
    5f6c:	84 e0       	ldi	r24, 0x04	; 4
    5f6e:	06 c0       	rjmp	.+12     	; 0x5f7c <CheckDepletionModeFET+0x118>

      Flag = 2;               /* signal match */
    }
    else                      /* JFET */
    {
      if (Flag == 0)          /* not a BJT */
    5f70:	b1 10       	cpse	r11, r1
    5f72:	09 c0       	rjmp	.+18     	; 0x5f86 <CheckDepletionModeFET+0x122>
      {
        /* n channel JFET (depletion-mode only) */
        Check.Type = TYPE_N_CHANNEL | TYPE_DEPLETION | TYPE_JFET;
    5f74:	89 e2       	ldi	r24, 0x29	; 41
    5f76:	80 93 07 01 	sts	0x0107, r24	; 0x800107 <__data_end+0x1>
        #ifdef SW_SYMBOLS
        Check.Symbol = SYMBOL_JFET_N;        /* set symbol ID */
    5f7a:	86 e0       	ldi	r24, 0x06	; 6
    5f7c:	80 93 0f 01 	sts	0x010F, r24	; 0x80010f <__data_end+0x9>

  /* get source voltage when gate is pulled up */
  /* set probes: Gnd -- Rl -- probe-2 / probe-1 -- Vcc / probe-3 -- Rh -- Vcc */
  R_PORT = Probes.Rh_3;                 /* pull up gate via Rh */
  U_2 = ReadU_20ms(Probes.Ch_2);        /* voltage at source */
  Diff_1 = U_2 - U_1;                   /* source voltage difference */
    5f80:	cc 19       	sub	r28, r12
    5f82:	dd 09       	sbc	r29, r13
    5f84:	63 c0       	rjmp	.+198    	; 0x604c <CheckDepletionModeFET+0x1e8>
    Flag = 0;                 /* reset control flag */

    /* get source voltage when gate is pulled up */
    /* should create a slightly positive V_GS via voltage drop across Rl at source */
    /* set probes: Gnd -- probe-2 / probe-1 -- Rl -- Vcc / probe-3 -- Rh -- Vcc */
    ADC_PORT = 0;                       /* set ADC port to Gnd */
    5f86:	18 b8       	out	0x08, r1	; 8
    ADC_DDR = Probes.Pin_2;             /* pull down drain directly */
    5f88:	80 91 d8 01 	lds	r24, 0x01D8	; 0x8001d8 <Probes+0xd>
    5f8c:	87 b9       	out	0x07, r24	; 7
    R_DDR = Probes.Rl_1 | Probes.Rh_3;  /* enable Rl for probe-1 & Rh for probe-3 */
    5f8e:	90 91 d1 01 	lds	r25, 0x01D1	; 0x8001d1 <Probes+0x6>
    5f92:	80 91 d6 01 	lds	r24, 0x01D6	; 0x8001d6 <Probes+0xb>
    5f96:	89 2b       	or	r24, r25
    5f98:	84 b9       	out	0x04, r24	; 4
    R_PORT = Probes.Rl_1 | Probes.Rh_3; /* pull up source via Rl / pull up gate via Rh */
    5f9a:	85 b9       	out	0x05, r24	; 5
    U_1 = ReadU_20ms(Probes.Ch_1);      /* get voltage at source */
    5f9c:	80 91 da 01 	lds	r24, 0x01DA	; 0x8001da <Probes+0xf>
    5fa0:	0e 94 21 1c 	call	0x3842	; 0x3842 <ReadU_20ms>
    5fa4:	8c 01       	movw	r16, r24

    /* get source voltage when gate is pulled down */
    /* set probes: Gnd -- probe-2 / probe-1 -- Rl -- Vcc / probe-3 -- Rh -- Gnd */
    R_PORT = Probes.Rl_1;               /* pull down gate via Rh */
    5fa6:	80 91 d1 01 	lds	r24, 0x01D1	; 0x8001d1 <Probes+0x6>
    5faa:	85 b9       	out	0x05, r24	; 5
    U_2 = ReadU_20ms(Probes.Ch_1);      /* get voltage at source */
    5fac:	80 91 da 01 	lds	r24, 0x01DA	; 0x8001da <Probes+0xf>
    5fb0:	0e 94 21 1c 	call	0x3842	; 0x3842 <ReadU_20ms>
    Diff_1 = U_1 - U_2;                 /* source voltage difference */
    5fb4:	e8 01       	movw	r28, r16
    5fb6:	c8 1b       	sub	r28, r24
    5fb8:	d9 0b       	sbc	r29, r25
     *  If the source voltage is higher (less current), when the gate is driven
     *  by a positive voltage vs. connected to ground, we got a depletion-mode
     *  p-channel FET.
     */

    if (U_1 > (U_2 + Offset))      /* exceeds offset */
    5fba:	8e 0d       	add	r24, r14
    5fbc:	9f 1d       	adc	r25, r15
    5fbe:	80 17       	cp	r24, r16
    5fc0:	91 07       	cpc	r25, r17
    5fc2:	08 f0       	brcs	.+2      	; 0x5fc6 <CheckDepletionModeFET+0x162>
    5fc4:	ef c0       	rjmp	.+478    	; 0x61a4 <CheckDepletionModeFET+0x340>
       *  - PNP
       */

      /* get base voltage when base is pulled down by Rl */
      /* set probes: Gnd -- Rl -- probe-3 / probe-2 -- Vcc / probe-1 -- HiZ */
      R_DDR = Probes.Rl_3;                   /* switch to Rl */
    5fc6:	80 91 d3 01 	lds	r24, 0x01D3	; 0x8001d3 <Probes+0x8>
    5fca:	84 b9       	out	0x04, r24	; 4
      R_PORT = 0;                            /* pull down base by Rl */
    5fcc:	15 b8       	out	0x05, r1	; 5
      ADC_DDR = Probes.Pin_2;
    5fce:	80 91 d8 01 	lds	r24, 0x01D8	; 0x8001d8 <Probes+0xd>
    5fd2:	87 b9       	out	0x07, r24	; 7
      ADC_PORT = Probes.Pin_2;               /* pull up emitter directly */
    5fd4:	88 b9       	out	0x08, r24	; 8
      U_1 = ReadU_20ms(Probes.Ch_3);         /* get voltage at base */
    5fd6:	80 91 dc 01 	lds	r24, 0x01DC	; 0x8001dc <Probes+0x11>
    5fda:	0e 94 21 1c 	call	0x3842	; 0x3842 <ReadU_20ms>
    5fde:	7c 01       	movw	r14, r24
      ADC_PORT = 0;
    5fe0:	18 b8       	out	0x08, r1	; 8

      /* we simulate: probe-1 = D / probe-2 = S / probe-3 = G */

      /* get source voltage when gate is pulled up */
      /* set probes: Gnd -- probe-1 / probe-2 -- Rl -- Vcc / probe-3 -- Rh -- Vcc */
      ADC_DDR = Probes.Pin_1;             /* pull down drain directly */
    5fe2:	80 91 d7 01 	lds	r24, 0x01D7	; 0x8001d7 <Probes+0xc>
    5fe6:	87 b9       	out	0x07, r24	; 7
      R_DDR = Probes.Rl_2 | Probes.Rh_3;  /* enable Rl for source & Rh for gate */
    5fe8:	90 91 d2 01 	lds	r25, 0x01D2	; 0x8001d2 <Probes+0x7>
    5fec:	80 91 d6 01 	lds	r24, 0x01D6	; 0x8001d6 <Probes+0xb>
    5ff0:	89 2b       	or	r24, r25
    5ff2:	84 b9       	out	0x04, r24	; 4
      R_PORT = Probes.Rl_2 | Probes.Rh_3; /* pull up source via Rl / pull up gate via Rh */
    5ff4:	85 b9       	out	0x05, r24	; 5
      U_1 = ReadU_20ms(Probes.Ch_2);      /* get voltage at source */
    5ff6:	80 91 db 01 	lds	r24, 0x01DB	; 0x8001db <Probes+0x10>
    5ffa:	0e 94 21 1c 	call	0x3842	; 0x3842 <ReadU_20ms>
    5ffe:	8c 01       	movw	r16, r24

      /* get source voltage when gate is pulled down */
      /* set probes: Gnd -- probe-1 / probe-2 -- Rl -- Vcc / probe-3 -- Rh -- Gnd */
      R_PORT = Probes.Rl_2;               /* pull down gate via Rh */
    6000:	80 91 d2 01 	lds	r24, 0x01D2	; 0x8001d2 <Probes+0x7>
    6004:	85 b9       	out	0x05, r24	; 5
      U_2 = ReadU_20ms(Probes.Ch_2);      /* get voltage at source */
    6006:	80 91 db 01 	lds	r24, 0x01DB	; 0x8001db <Probes+0x10>
    600a:	0e 94 21 1c 	call	0x3842	; 0x3842 <ReadU_20ms>
      Diff_2 = U_1 - U_2;                 /* source voltage difference */
    600e:	08 1b       	sub	r16, r24
    6010:	19 0b       	sbc	r17, r25
      /*
       *  Compare gate voltages to distinguish JFET from MOSFET
       */

      /* set probes: probe-1 -- Vcc / probe-2 -- Rl -- Gnd / probe-3 -- Rh -- Gnd */
      R_PORT = 0;                       /* pull down drain via Rl & gate via Rh */
    6012:	15 b8       	out	0x05, r1	; 5
      ADC_PORT = Probes.Pin_1;          /* pull up source directly */
    6014:	80 91 d7 01 	lds	r24, 0x01D7	; 0x8001d7 <Probes+0xc>
    6018:	88 b9       	out	0x08, r24	; 8
      ADC_DDR = Probes.Pin_1;           /* enable pull up for source */
    601a:	87 b9       	out	0x07, r24	; 7
      /* gate is still pulled down via Rh */
      U_1 = ReadU_20ms(Probes.Ch_3);    /* get voltage at gate */
    601c:	80 91 dc 01 	lds	r24, 0x01DC	; 0x8001dc <Probes+0x11>
    6020:	0e 94 21 1c 	call	0x3842	; 0x3842 <ReadU_20ms>

      if (U_1 < 977)               /* MOSFET */
    6024:	81 3d       	cpi	r24, 0xD1	; 209
    6026:	93 40       	sbci	r25, 0x03	; 3
    6028:	28 f4       	brcc	.+10     	; 0x6034 <CheckDepletionModeFET+0x1d0>
      {
        /* p-channel depletion-mode MOSFET */ 
        Check.Type =  TYPE_P_CHANNEL | TYPE_DEPLETION | TYPE_MOSFET;
    602a:	8a e1       	ldi	r24, 0x1A	; 26
    602c:	80 93 07 01 	sts	0x0107, r24	; 0x800107 <__data_end+0x1>
        #ifdef SW_SYMBOLS
        Check.Symbol = SYMBOL_MOSFET_DEP_P;  /* set symbol ID */
    6030:	85 e0       	ldi	r24, 0x05	; 5
    6032:	0a c0       	rjmp	.+20     	; 0x6048 <CheckDepletionModeFET+0x1e4>

        Flag = 2;             /* signal match */
      }
      else                         /* JFET */
      {
        if (Flag == 0)        /* not a BJT */
    6034:	8d ec       	ldi	r24, 0xCD	; 205
    6036:	e8 16       	cp	r14, r24
    6038:	80 e1       	ldi	r24, 0x10	; 16
    603a:	f8 06       	cpc	r15, r24
    603c:	08 f0       	brcs	.+2      	; 0x6040 <CheckDepletionModeFET+0x1dc>
    603e:	b2 c0       	rjmp	.+356    	; 0x61a4 <CheckDepletionModeFET+0x340>
        {
          /* p-channel JFET (depletion-mode only) */
          Check.Type = TYPE_P_CHANNEL | TYPE_DEPLETION | TYPE_JFET;
    6040:	8a e2       	ldi	r24, 0x2A	; 42
    6042:	80 93 07 01 	sts	0x0107, r24	; 0x800107 <__data_end+0x1>
          #ifdef SW_SYMBOLS
          Check.Symbol = SYMBOL_JFET_P;      /* set symbol ID */
    6046:	87 e0       	ldi	r24, 0x07	; 7
    6048:	80 93 0f 01 	sts	0x010F, r24	; 0x80010f <__data_end+0x9>
   */

  if (Flag == 2)         /* found depletion-mode FET */
  {
    /* common stuff */
    Check.Found = COMP_FET;        /* it's a FET */
    604c:	8f e1       	ldi	r24, 0x1F	; 31
    604e:	80 93 06 01 	sts	0x0106, r24	; 0x800106 <__data_end>
    Check.Done |= DONE_SEMI;       /* transistor detection done */
    6052:	80 91 08 01 	lds	r24, 0x0108	; 0x800108 <__data_end+0x2>
    6056:	81 60       	ori	r24, 0x01	; 1
    6058:	80 93 08 01 	sts	0x0108, r24	; 0x800108 <__data_end+0x2>
    Semi.A = Probes.ID_3;          /* gate pin */
    605c:	40 91 cd 01 	lds	r20, 0x01CD	; 0x8001cd <Probes+0x2>
    6060:	40 93 af 01 	sts	0x01AF, r20	; 0x8001af <Semi>
    6064:	80 91 cb 01 	lds	r24, 0x01CB	; 0x8001cb <Probes>
    6068:	90 91 cc 01 	lds	r25, 0x01CC	; 0x8001cc <Probes+0x1>
    /*
     *  drain & source pinout
     *  - larger voltage difference wins
     */

    if (Diff_1 > Diff_2)      /* drain and source as assumed */
    606c:	0c 17       	cp	r16, r28
    606e:	1d 07       	cpc	r17, r29
    6070:	28 f4       	brcc	.+10     	; 0x607c <CheckDepletionModeFET+0x218>
    {
      Semi.B = Probes.ID_1;        /* drain pin */
    6072:	80 93 b0 01 	sts	0x01B0, r24	; 0x8001b0 <Semi+0x1>
      Semi.C = Probes.ID_2;        /* source pin */
    6076:	90 93 b1 01 	sts	0x01B1, r25	; 0x8001b1 <Semi+0x2>
    607a:	04 c0       	rjmp	.+8      	; 0x6084 <CheckDepletionModeFET+0x220>
    }
    else                      /* drain and source reversed */
    {
      Semi.B = Probes.ID_2;        /* drain pin */
    607c:	90 93 b0 01 	sts	0x01B0, r25	; 0x8001b0 <Semi+0x1>
      Semi.C = Probes.ID_1;        /* source pin */
    6080:	80 93 b1 01 	sts	0x01B1, r24	; 0x8001b1 <Semi+0x2>
     *  drain & source symmetry
     *  - if both voltage differences are about the same we got a
     *    symmetrical FET
     */

    U_2 = Diff_1 / 50;             /* 2% of Diff_1 */
    6084:	ce 01       	movw	r24, r28
    6086:	62 e3       	ldi	r22, 0x32	; 50
    6088:	70 e0       	ldi	r23, 0x00	; 0
    608a:	0e 94 87 3e 	call	0x7d0e	; 0x7d0e <__udivmodhi4>
    U_1 = Diff_1 - U_2;            /* 98% */
    U_2 += Diff_1;                 /* 102% */
    if ((Diff_2 >= U_1) && (Diff_2 <= U_2))   /* within +/- 2% */
    608e:	ce 01       	movw	r24, r28
    6090:	86 1b       	sub	r24, r22
    6092:	97 0b       	sbc	r25, r23
    6094:	08 17       	cp	r16, r24
    6096:	19 07       	cpc	r17, r25
    6098:	50 f0       	brcs	.+20     	; 0x60ae <CheckDepletionModeFET+0x24a>
    609a:	6c 0f       	add	r22, r28
    609c:	7d 1f       	adc	r23, r29
    609e:	60 17       	cp	r22, r16
    60a0:	71 07       	cpc	r23, r17
    60a2:	28 f0       	brcs	.+10     	; 0x60ae <CheckDepletionModeFET+0x24a>
    {
      Check.Type |= TYPE_SYMMETRICAL; 
    60a4:	80 91 07 01 	lds	r24, 0x0107	; 0x800107 <__data_end+0x1>
    60a8:	80 64       	ori	r24, 0x40	; 64
    60aa:	80 93 07 01 	sts	0x0107, r24	; 0x800107 <__data_end+0x1>

    /* 
     *  I_DSS (V_GS = 0V)
     */

    UpdateProbes(Semi.B, Semi.C, Semi.A);    /* drain, source, gate */
    60ae:	60 91 b1 01 	lds	r22, 0x01B1	; 0x8001b1 <Semi+0x2>
    60b2:	80 91 b0 01 	lds	r24, 0x01B0	; 0x8001b0 <Semi+0x1>
    60b6:	0e 94 2a 1c 	call	0x3854	; 0x3854 <UpdateProbes>
    ADC_DDR = Probes.Pin_2 | Probes.Pin_3 ;  /* enable direct pull of source & gate */
    60ba:	90 91 d8 01 	lds	r25, 0x01D8	; 0x8001d8 <Probes+0xd>
    60be:	80 91 d9 01 	lds	r24, 0x01D9	; 0x8001d9 <Probes+0xe>
    60c2:	89 2b       	or	r24, r25
    60c4:	87 b9       	out	0x07, r24	; 7
    R_DDR = Probes.Rl_1;                     /* enable Rl for drain */
    60c6:	90 91 d1 01 	lds	r25, 0x01D1	; 0x8001d1 <Probes+0x6>
    60ca:	94 b9       	out	0x04, r25	; 4

    if (Check.Type & TYPE_N_CHANNEL)    /* n-channel */
    60cc:	20 91 07 01 	lds	r18, 0x0107	; 0x800107 <__data_end+0x1>
    60d0:	20 ff       	sbrs	r18, 0
    60d2:	13 c0       	rjmp	.+38     	; 0x60fa <CheckDepletionModeFET+0x296>
    {
      /* low-side switching */
      /* set probes: Gnd -- probe-2 / probe-1 -- Rl -- Vcc / probe-3 -- Gnd */
      ADC_PORT = 0;                     /* pull down source and gate directly */
    60d4:	18 b8       	out	0x08, r1	; 8
      R_PORT = Probes.Rl_1;             /* pull up drain via Rl */
    60d6:	95 b9       	out	0x05, r25	; 5
      U_1 = Cfg.Vcc - ReadU_20ms(Probes.Ch_1);    /* voltage at drain */
    60d8:	c0 91 a8 01 	lds	r28, 0x01A8	; 0x8001a8 <Cfg+0x8>
    60dc:	d0 91 a9 01 	lds	r29, 0x01A9	; 0x8001a9 <Cfg+0x9>
    60e0:	80 91 da 01 	lds	r24, 0x01DA	; 0x8001da <Probes+0xf>
    60e4:	0e 94 21 1c 	call	0x3842	; 0x3842 <ReadU_20ms>
    60e8:	9e 01       	movw	r18, r28
    60ea:	28 1b       	sub	r18, r24
    60ec:	39 0b       	sbc	r19, r25
    60ee:	c9 01       	movw	r24, r18
      U_2 = (R_LOW * 10) + NV.RiH;      /* current sense resistor (0.1 Ohms) */
    60f0:	40 91 df 01 	lds	r20, 0x01DF	; 0x8001df <NV+0x2>
    60f4:	50 91 e0 01 	lds	r21, 0x01E0	; 0x8001e0 <NV+0x3>
    60f8:	0a c0       	rjmp	.+20     	; 0x610e <CheckDepletionModeFET+0x2aa>
    }
    else                                /* p-channel */
    {
      /* high-side switching */
      /* set probes: Gnd -- Rl -- probe-1 / probe-2 -- Vcc / probe-3 -- Vcc */
      ADC_PORT = Probes.Pin_2 | Probes.Pin_3;   /* pull up source & gate directly */
    60fa:	88 b9       	out	0x08, r24	; 8
      R_PORT = 0;                       /* pull down drain via Rl */
    60fc:	15 b8       	out	0x05, r1	; 5
      U_1 = ReadU_20ms(Probes.Ch_1);    /* voltage at drain */
    60fe:	80 91 da 01 	lds	r24, 0x01DA	; 0x8001da <Probes+0xf>
    6102:	0e 94 21 1c 	call	0x3842	; 0x3842 <ReadU_20ms>
      U_2 = (R_LOW * 10) + NV.RiL;      /* current sense resistor (0.1 Ohms) */
    6106:	40 91 dd 01 	lds	r20, 0x01DD	; 0x8001dd <NV>
    610a:	50 91 de 01 	lds	r21, 0x01DE	; 0x8001de <NV+0x1>
    610e:	40 57       	subi	r20, 0x70	; 112
    6110:	55 4e       	sbci	r21, 0xE5	; 229
    }

    /* I = U / R_sense */
    Semi.I_value = (uint32_t)U_1 * 10000;    /* U (0.1 V) */
    Semi.I_value /= U_2;                     /* I = U / R (A) */
    6112:	9c 01       	movw	r18, r24
    6114:	a0 e1       	ldi	r26, 0x10	; 16
    6116:	b7 e2       	ldi	r27, 0x27	; 39
    6118:	0e 94 f6 3e 	call	0x7dec	; 0x7dec <__umulhisi3>
    611c:	9a 01       	movw	r18, r20
    611e:	40 e0       	ldi	r20, 0x00	; 0
    6120:	50 e0       	ldi	r21, 0x00	; 0
    6122:	0e 94 af 3e 	call	0x7d5e	; 0x7d5e <__udivmodsi4>
    6126:	20 93 c1 01 	sts	0x01C1, r18	; 0x8001c1 <Semi+0x12>
    612a:	30 93 c2 01 	sts	0x01C2, r19	; 0x8001c2 <Semi+0x13>
    612e:	40 93 c3 01 	sts	0x01C3, r20	; 0x8001c3 <Semi+0x14>
    6132:	50 93 c4 01 	sts	0x01C4, r21	; 0x8001c4 <Semi+0x15>
    Semi.I_scale = -6;                       /* A */
    6136:	8a ef       	ldi	r24, 0xFA	; 250
    6138:	80 93 c5 01 	sts	0x01C5, r24	; 0x8001c5 <Semi+0x16>
     *  V_GS(off)
     *  - based on idea from Pieter-Tjerk de Boer (PA3FWM)
     */

    /* keep probes as above: probe-1 drain / probe-2 source / probe-3 gate */
    R_DDR = Probes.Rh_2 | Probes.Rh_3;       /* enable Rh for source and gate */
    613c:	90 91 d5 01 	lds	r25, 0x01D5	; 0x8001d5 <Probes+0xa>
    6140:	80 91 d6 01 	lds	r24, 0x01D6	; 0x8001d6 <Probes+0xb>
    6144:	89 2b       	or	r24, r25
    6146:	84 b9       	out	0x04, r24	; 4
    ADC_DDR = Probes.Pin_1;                  /* pull drain directly */
    6148:	90 91 d7 01 	lds	r25, 0x01D7	; 0x8001d7 <Probes+0xc>
    614c:	97 b9       	out	0x07, r25	; 7

    if (Check.Type & TYPE_N_CHANNEL)    /* n-channel */
    614e:	20 91 07 01 	lds	r18, 0x0107	; 0x800107 <__data_end+0x1>
    6152:	20 ff       	sbrs	r18, 0
    6154:	03 c0       	rjmp	.+6      	; 0x615c <CheckDepletionModeFET+0x2f8>
    {
      /* set probes: probe-1 -- Vcc / Gnd -- Rh -- probe-2 / Gnd -- Rh -- probe-3 */
      R_PORT = 0;                            /* pull down source and gate via Rh */
    6156:	15 b8       	out	0x05, r1	; 5
      ADC_PORT = Probes.Pin_1;               /* pull up drain directly */
    6158:	98 b9       	out	0x08, r25	; 8
    615a:	02 c0       	rjmp	.+4      	; 0x6160 <CheckDepletionModeFET+0x2fc>
    }
    else                                /* p-channel */
    {
      /* set probes: Gnd -- probe-1 / probe-2 -- Rh -- Vcc / probe-3 -- Rh -- Vcc */
      R_PORT = Probes.Rh_2 | Probes.Rh_3;    /* pull up source and gate via Rh */
    615c:	85 b9       	out	0x05, r24	; 5
      ADC_PORT = 0;                          /* pull down drain directly */
    615e:	18 b8       	out	0x08, r1	; 8
    }

    /* get voltages at source and gate */
    wait10ms();                         /* setting time */
    6160:	0e 94 79 3c 	call	0x78f2	; 0x78f2 <wait10ms>
    U_1 = ReadU(Probes.Ch_2);           /* voltage at source */
    6164:	80 91 db 01 	lds	r24, 0x01DB	; 0x8001db <Probes+0x10>
    6168:	0e 94 b7 1b 	call	0x376e	; 0x376e <ReadU>
    616c:	ec 01       	movw	r28, r24
    U_2 = ReadU(Probes.Ch_3);           /* voltage at gate */
    616e:	80 91 dc 01 	lds	r24, 0x01DC	; 0x8001dc <Probes+0x11>
    6172:	0e 94 b7 1b 	call	0x376e	; 0x376e <ReadU>

    /* U_GS(off) = U_G - U_S */
    Semi.U_3 = U_2 - U_1;               /* U_G - U_S (mV) */
    6176:	8c 1b       	sub	r24, r28
    6178:	9d 0b       	sbc	r25, r29
    617a:	90 93 b8 01 	sts	0x01B8, r25	; 0x8001b8 <Semi+0x9>
    617e:	80 93 b7 01 	sts	0x01B7, r24	; 0x8001b7 <Semi+0x8>

    if (Check.Type & TYPE_N_CHANNEL)    /* n-channel */
    6182:	20 91 07 01 	lds	r18, 0x0107	; 0x800107 <__data_end+0x1>
    6186:	20 ff       	sbrs	r18, 0
    6188:	0a c0       	rjmp	.+20     	; 0x619e <CheckDepletionModeFET+0x33a>
    {
      /* U_GS(off) should be negative and not exceed -4.8V (too close to Vcc) */
      if ((Semi.U_3 > 0) || (Semi.U_3 < -4800))
    618a:	80 54       	subi	r24, 0x40	; 64
    618c:	9d 4e       	sbci	r25, 0xED	; 237
    618e:	81 3c       	cpi	r24, 0xC1	; 193
    6190:	92 41       	sbci	r25, 0x12	; 18
    6192:	40 f0       	brcs	.+16     	; 0x61a4 <CheckDepletionModeFET+0x340>
      {
        Semi.U_3 = 0;                   /* invalid */
    6194:	10 92 b8 01 	sts	0x01B8, r1	; 0x8001b8 <Semi+0x9>
    6198:	10 92 b7 01 	sts	0x01B7, r1	; 0x8001b7 <Semi+0x8>
    619c:	03 c0       	rjmp	.+6      	; 0x61a4 <CheckDepletionModeFET+0x340>
      }
    }    
    else                                /* p-channel */
    {
      /* U_GS(off) should be positive and not exceed 4.8V (too close to Vcc) */
      if ((Semi.U_3 < 0) || (Semi.U_3 > 4800))
    619e:	81 3c       	cpi	r24, 0xC1	; 193
    61a0:	92 41       	sbci	r25, 0x12	; 18
    61a2:	c0 f7       	brcc	.-16     	; 0x6194 <CheckDepletionModeFET+0x330>
      {
        Semi.U_3 = 0;                   /* invalid */
      }
    }
  }
}
    61a4:	cd b7       	in	r28, 0x3d	; 61
    61a6:	de b7       	in	r29, 0x3e	; 62
    61a8:	e9 e0       	ldi	r30, 0x09	; 9
    61aa:	0c 94 3c 3f 	jmp	0x7e78	; 0x7e78 <__epilogue_restores__+0x12>

000061ae <CheckThyristorTriac>:
 *  - 1 if component was found
 *  - 0 if component wasn't found
 */

uint8_t CheckThyristorTriac(void)
{
    61ae:	ef 92       	push	r14
    61b0:	ff 92       	push	r15
    61b2:	0f 93       	push	r16
    61b4:	1f 93       	push	r17
    61b6:	cf 93       	push	r28
    61b8:	df 93       	push	r29
   *  - SCR: probe-1 = A / probe-2 = C / probe-3 = G
   *  - TRIAC: probe-1 = MT2 / probe-2 = MT1 / probe-3 = G
   */

  /* V_GT (gate trigger voltage) */
  U_1 = ReadU(Probes.Ch_3);             /* voltage at gate */
    61ba:	80 91 dc 01 	lds	r24, 0x01DC	; 0x8001dc <Probes+0x11>
    61be:	0e 94 b7 1b 	call	0x376e	; 0x376e <ReadU>
    61c2:	8c 01       	movw	r16, r24
  U_2 = ReadU(Probes.Ch_2);             /* voltage at cathode */
    61c4:	80 91 db 01 	lds	r24, 0x01DB	; 0x8001db <Probes+0x10>
    61c8:	0e 94 b7 1b 	call	0x376e	; 0x376e <ReadU>
    61cc:	7c 01       	movw	r14, r24
  V_GT = U_1 - U_2;                     /* = Ug - Uc */

  /* discharge gate and check load current */
  PullProbe(Probes.Rl_3, PULL_10MS | PULL_DOWN);    /* discharge gate */
    61ce:	60 e1       	ldi	r22, 0x10	; 16
    61d0:	80 91 d3 01 	lds	r24, 0x01D3	; 0x8001d3 <Probes+0x8>
    61d4:	0e 94 be 1d 	call	0x3b7c	; 0x3b7c <PullProbe>
  U_1 = ReadU_5ms(Probes.Ch_1);         /* get voltage at anode */
    61d8:	80 91 da 01 	lds	r24, 0x01DA	; 0x8001da <Probes+0xf>
    61dc:	0e 94 18 1c 	call	0x3830	; 0x3830 <ReadU_5ms>
    61e0:	ec 01       	movw	r28, r24

  /* simulate short loss of current and check load current again */ 
  R_PORT = 0;                           /* pull down anode */
    61e2:	15 b8       	out	0x05, r1	; 5
  wait5ms();
    61e4:	0e 94 7a 3c 	call	0x78f4	; 0x78f4 <wait5ms>
  R_PORT = Probes.Rl_1;                 /* and pull up anode again */
    61e8:	80 91 d1 01 	lds	r24, 0x01D1	; 0x8001d1 <Probes+0x6>
    61ec:	85 b9       	out	0x05, r24	; 5
  U_2 = ReadU_5ms(Probes.Ch_1);         /* get voltage at anode (below Rl) */
    61ee:	80 91 da 01 	lds	r24, 0x01DA	; 0x8001da <Probes+0xf>
    61f2:	0e 94 18 1c 	call	0x3830	; 0x3830 <ReadU_5ms>

  /* voltages at anode match behaviour of Thyristor or TRIAC */
  if ((U_1 < 1600) && (U_2 > 4400))
    61f6:	c0 34       	cpi	r28, 0x40	; 64
    61f8:	d6 40       	sbci	r29, 0x06	; 6
    61fa:	08 f0       	brcs	.+2      	; 0x61fe <CheckThyristorTriac+0x50>
    61fc:	5f c0       	rjmp	.+190    	; 0x62bc <CheckThyristorTriac+0x10e>
    61fe:	81 33       	cpi	r24, 0x31	; 49
    6200:	91 41       	sbci	r25, 0x11	; 17
    6202:	08 f4       	brcc	.+2      	; 0x6206 <CheckThyristorTriac+0x58>
    6204:	5b c0       	rjmp	.+182    	; 0x62bc <CheckThyristorTriac+0x10e>
     *  A Thyrister shouldn't conduct but a TRIAC should (Q3 operation mode).
     */

    /* reverse Anode and Cathode (MT2 and MT1) */
    /* set probes: Gnd -- probe-1 / probe-2 -- Rl -- Vcc  */
    R_DDR = 0;                          /* disable all probe resistors */
    6206:	14 b8       	out	0x04, r1	; 4
    R_PORT = 0;
    6208:	15 b8       	out	0x05, r1	; 5
    ADC_PORT = Probes.Pin_2;            /* pull up Cathode directly */
    620a:	80 91 d8 01 	lds	r24, 0x01D8	; 0x8001d8 <Probes+0xd>
    620e:	88 b9       	out	0x08, r24	; 8
    wait5ms();
    6210:	0e 94 7a 3c 	call	0x78f4	; 0x78f4 <wait5ms>
    R_DDR = Probes.Rl_1;                /* pull down Anode via Rl */ 
    6214:	80 91 d1 01 	lds	r24, 0x01D1	; 0x8001d1 <Probes+0x6>
    6218:	84 b9       	out	0x04, r24	; 4
    /* probe-3 = gate is in HiZ mode */

    /* check if DUT doesn't conduct */
    U_1 = ReadU_5ms(Probes.Ch_1);       /* get voltage at Anode */
    621a:	80 91 da 01 	lds	r24, 0x01DA	; 0x8001da <Probes+0xf>
    621e:	0e 94 18 1c 	call	0x3830	; 0x3830 <ReadU_5ms>

    if (U_1 <= 244)      /* voltage at Anode is low (no current) */
    6222:	85 3f       	cpi	r24, 0xF5	; 245
    6224:	91 05       	cpc	r25, r1
    6226:	08 f0       	brcs	.+2      	; 0x622a <CheckThyristorTriac+0x7c>
    6228:	49 c0       	rjmp	.+146    	; 0x62bc <CheckThyristorTriac+0x10e>
    {
      /* trigger the gate with a negative current (TRIAC: Q3) */
      PullProbe(Probes.Rl_3, PULL_10MS | PULL_DOWN);
    622a:	60 e1       	ldi	r22, 0x10	; 16
    622c:	80 91 d3 01 	lds	r24, 0x01D3	; 0x8001d3 <Probes+0x8>
    6230:	0e 94 be 1d 	call	0x3b7c	; 0x3b7c <PullProbe>

      /* check for conduction */
      U_1 = ReadU_5ms(Probes.Ch_1);     /* get voltage at Anode */
    6234:	80 91 da 01 	lds	r24, 0x01DA	; 0x8001da <Probes+0xf>
    6238:	0e 94 18 1c 	call	0x3830	; 0x3830 <ReadU_5ms>
    623c:	ec 01       	movw	r28, r24

      if (U_1 < 733)         /* no current -> Thyristor */
    623e:	cd 3d       	cpi	r28, 0xDD	; 221
    6240:	82 e0       	ldi	r24, 0x02	; 2
    6242:	d8 07       	cpc	r29, r24
    6244:	60 f4       	brcc	.+24     	; 0x625e <CheckThyristorTriac+0xb0>
      {
        Check.Found = COMP_THYRISTOR;   /* we found a Thyristor */
    6246:	82 e2       	ldi	r24, 0x22	; 34
    6248:	80 93 06 01 	sts	0x0106, r24	; 0x800106 <__data_end>
        Check.Done |= DONE_SEMI;        /* detected component */
    624c:	80 91 08 01 	lds	r24, 0x0108	; 0x800108 <__data_end+0x2>
    6250:	81 60       	ori	r24, 0x01	; 1
    6252:	80 93 08 01 	sts	0x0108, r24	; 0x800108 <__data_end+0x2>
        #ifdef SW_SYMBOLS
        Check.Symbol = SYMBOL_SCR;      /* set symbol ID */
    6256:	8a e0       	ldi	r24, 0x0A	; 10
    6258:	80 93 0f 01 	sts	0x010F, r24	; 0x80010f <__data_end+0x9>
    625c:	31 c0       	rjmp	.+98     	; 0x62c0 <CheckThyristorTriac+0x112>
         *  To verify the TRIAC we stop the current flow for a moment and check
         *  the voltage at MT2 again. The TRIAC shouldn't conduct anymore.
         */

        /* drop load current for a moment */
        R_PORT = Probes.Rl_1;           /* pull up MT2 via Rl */
    625e:	80 91 d1 01 	lds	r24, 0x01D1	; 0x8001d1 <Probes+0x6>
    6262:	85 b9       	out	0x05, r24	; 5
        wait5ms();
    6264:	0e 94 7a 3c 	call	0x78f4	; 0x78f4 <wait5ms>
        R_PORT = 0;                     /* and pull down MT2 via Rl */
    6268:	15 b8       	out	0x05, r1	; 5

        /* and check load current again */
        U_2 = ReadU_5ms(Probes.Ch_1);   /* get voltage at MT2 */
    626a:	80 91 da 01 	lds	r24, 0x01DA	; 0x8001da <Probes+0xf>
    626e:	0e 94 18 1c 	call	0x3830	; 0x3830 <ReadU_5ms>

        if (U_2 <= 244)       /* no current */
    6272:	85 3f       	cpi	r24, 0xF5	; 245
    6274:	91 05       	cpc	r25, r1
    6276:	10 f5       	brcc	.+68     	; 0x62bc <CheckThyristorTriac+0x10e>
        {
          if (Check.Found == COMP_TRIAC)     /* second test run */
    6278:	80 91 06 01 	lds	r24, 0x0106	; 0x800106 <__data_end>
    627c:	81 32       	cpi	r24, 0x21	; 33
    627e:	29 f4       	brne	.+10     	; 0x628a <CheckThyristorTriac+0xdc>
          {
            Check.Done |= DONE_SEMI;         /* no more tests needed */
    6280:	80 91 08 01 	lds	r24, 0x0108	; 0x800108 <__data_end+0x2>
    6284:	81 60       	ori	r24, 0x01	; 1
    6286:	80 93 08 01 	sts	0x0108, r24	; 0x800108 <__data_end+0x2>
          }

          Check.Found = COMP_TRIAC;     /* found TRIAC */
    628a:	81 e2       	ldi	r24, 0x21	; 33
    628c:	80 93 06 01 	sts	0x0106, r24	; 0x800106 <__data_end>
          #ifdef SW_SYMBOLS
          Check.Symbol = SYMBOL_TRIAC;  /* set symbol ID */
    6290:	8b e0       	ldi	r24, 0x0B	; 11
    6292:	80 93 0f 01 	sts	0x010F, r24	; 0x80010f <__data_end+0x9>
           *  usually have different trigger currents for different operation
           *  quadrants and that some don't support Q4. So we perform up to two test
           *  runs and prefer the one with the higher voltage at MT2.
           */

          if (U_1 > (uint16_t)Semi.F_1)      /* first run or higher current */
    6296:	80 91 b9 01 	lds	r24, 0x01B9	; 0x8001b9 <Semi+0xa>
    629a:	90 91 ba 01 	lds	r25, 0x01BA	; 0x8001ba <Semi+0xb>
    629e:	8c 17       	cp	r24, r28
    62a0:	9d 07       	cpc	r25, r29
    62a2:	00 f5       	brcc	.+64     	; 0x62e4 <CheckThyristorTriac+0x136>
          {
            Semi.F_1 = U_1;        /* update reference value */
    62a4:	ce 01       	movw	r24, r28
    62a6:	a0 e0       	ldi	r26, 0x00	; 0
    62a8:	b0 e0       	ldi	r27, 0x00	; 0
    62aa:	80 93 b9 01 	sts	0x01B9, r24	; 0x8001b9 <Semi+0xa>
    62ae:	90 93 ba 01 	sts	0x01BA, r25	; 0x8001ba <Semi+0xb>
    62b2:	a0 93 bb 01 	sts	0x01BB, r26	; 0x8001bb <Semi+0xc>
    62b6:	b0 93 bc 01 	sts	0x01BC, r27	; 0x8001bc <Semi+0xd>
    62ba:	02 c0       	rjmp	.+4      	; 0x62c0 <CheckThyristorTriac+0x112>
 *  - 0 if component wasn't found
 */

uint8_t CheckThyristorTriac(void)
{
  uint8_t           Flag = 0;      /* return value */
    62bc:	80 e0       	ldi	r24, 0x00	; 0
    62be:	13 c0       	rjmp	.+38     	; 0x62e6 <CheckThyristorTriac+0x138>
  }

  if (Flag == 2)         /* save data and signal success */
  {
    /* save data */
    Semi.A = Probes.ID_3;     /* Gate pin */
    62c0:	80 91 cd 01 	lds	r24, 0x01CD	; 0x8001cd <Probes+0x2>
    62c4:	80 93 af 01 	sts	0x01AF, r24	; 0x8001af <Semi>
    Semi.B = Probes.ID_1;     /* Anode/MT2 pin */
    62c8:	80 91 cb 01 	lds	r24, 0x01CB	; 0x8001cb <Probes>
    62cc:	80 93 b0 01 	sts	0x01B0, r24	; 0x8001b0 <Semi+0x1>
    Semi.C = Probes.ID_2;     /* Cathode/MT1 pin */
    62d0:	80 91 cc 01 	lds	r24, 0x01CC	; 0x8001cc <Probes+0x1>
    62d4:	80 93 b1 01 	sts	0x01B1, r24	; 0x8001b1 <Semi+0x2>
    Semi.U_1 = V_GT;          /* gate trigger voltage (in mV) */
    62d8:	0e 19       	sub	r16, r14
    62da:	1f 09       	sbc	r17, r15
    62dc:	10 93 b4 01 	sts	0x01B4, r17	; 0x8001b4 <Semi+0x5>
    62e0:	00 93 b3 01 	sts	0x01B3, r16	; 0x8001b3 <Semi+0x4>

    Flag = 1;                 /* signal success */
    62e4:	81 e0       	ldi	r24, 0x01	; 1
  }

  return Flag;
}
    62e6:	cd b7       	in	r28, 0x3d	; 61
    62e8:	de b7       	in	r29, 0x3e	; 62
    62ea:	e6 e0       	ldi	r30, 0x06	; 6
    62ec:	0c 94 3f 3f 	jmp	0x7e7e	; 0x7e7e <__epilogue_restores__+0x18>

000062f0 <CheckPUT>:
/*
 *  check for PUT (Programmable Unijunction Transistor)
 */

void CheckPUT(void)
{
    62f0:	ef 92       	push	r14
    62f2:	ff 92       	push	r15
    62f4:	0f 93       	push	r16
    62f6:	1f 93       	push	r17
    62f8:	cf 93       	push	r28
    62fa:	df 93       	push	r29
   *  TRIAC will pass this test too, but PUT won't pass TRIAC check
   *  todo: if Check.Found == TRIAC -> return?
   */

  /* get Uf */
  U_2 = ReadU(Probes.Ch_1);          /* voltage at Anode */
    62fc:	80 91 da 01 	lds	r24, 0x01DA	; 0x8001da <Probes+0xf>
    6300:	0e 94 b7 1b 	call	0x376e	; 0x376e <ReadU>
    6304:	ec 01       	movw	r28, r24
  U_3 = U_2;
  U_1 = ReadU(Probes.Ch_2);          /* voltage at Cathode */
    6306:	80 91 db 01 	lds	r24, 0x01DB	; 0x8001db <Probes+0x10>
    630a:	0e 94 b7 1b 	call	0x376e	; 0x376e <ReadU>
    630e:	7c 01       	movw	r14, r24
  U_2 -= U_1;                        /* Uf = U_A - U_C */

  /* get offset voltage V_T */
  U_1 = ReadU(Probes.Ch_3);          /* voltage at Gate */  
    6310:	80 91 dc 01 	lds	r24, 0x01DC	; 0x8001dc <Probes+0x11>
    6314:	0e 94 b7 1b 	call	0x376e	; 0x376e <ReadU>
    6318:	8c 01       	movw	r16, r24
   *  If this is a PUT, it should stop conduction when we pull up
   *  the gate carefully.
   */

  /* set probes: Gnd -- Rl -- probe-2 / probe-1 -- Vcc / probe-3 -- Rh -- Vcc */
  ADC_DDR = 0;                          /* set HiZ */
    631a:	17 b8       	out	0x07, r1	; 7
  ADC_PORT = Probes.Pin_1;              /* pull up Anode directly */
    631c:	80 91 d7 01 	lds	r24, 0x01D7	; 0x8001d7 <Probes+0xc>
    6320:	88 b9       	out	0x08, r24	; 8
  R_PORT = Probes.Rh_3;
    6322:	80 91 d6 01 	lds	r24, 0x01D6	; 0x8001d6 <Probes+0xb>
    6326:	85 b9       	out	0x05, r24	; 5
  R_DDR = Probes.Rl_2 | Probes.Rh_3;    /* pull up Gate, pull down Cathode */
    6328:	90 91 d2 01 	lds	r25, 0x01D2	; 0x8001d2 <Probes+0x7>
    632c:	89 2b       	or	r24, r25
    632e:	84 b9       	out	0x04, r24	; 4
  MilliSleep(50);                       /* wait */
    6330:	82 e3       	ldi	r24, 0x32	; 50
    6332:	90 e0       	ldi	r25, 0x00	; 0
    6334:	0e 94 2e 17 	call	0x2e5c	; 0x2e5c <MilliSleep>
  ADC_DDR = Probes.Pin_1;               /* enable pull-up for Anode */
    6338:	80 91 d7 01 	lds	r24, 0x01D7	; 0x8001d7 <Probes+0xc>
    633c:	87 b9       	out	0x07, r24	; 7
  U_1 = ReadU(Probes.Ch_2);             /* get voltage at Rl */
    633e:	80 91 db 01 	lds	r24, 0x01DB	; 0x8001db <Probes+0x10>
    6342:	0e 94 b7 1b 	call	0x376e	; 0x376e <ReadU>

  if (U_1 < 10)             /* no conduction */
    6346:	0a 97       	sbiw	r24, 0x0a	; 10
    6348:	f8 f4       	brcc	.+62     	; 0x6388 <CheckPUT+0x98>
  {
    Check.AltFound = COMP_PUT;     /* found PUT */
    634a:	83 e2       	ldi	r24, 0x23	; 35
    634c:	80 93 09 01 	sts	0x0109, r24	; 0x800109 <__data_end+0x3>
    /* we don't set Comp.Done in case we'll find some other transistor */

    #ifdef SW_SYMBOLS
    Check.AltSymbol = SYMBOL_PUT;  /* set symbol ID */
    6350:	8c e0       	ldi	r24, 0x0C	; 12
    6352:	80 93 10 01 	sts	0x0110, r24	; 0x800110 <__data_end+0xa>
    #endif
    
    /* save data */
    AltSemi.A = Probes.ID_3;       /* Gate pin */
    6356:	80 91 cd 01 	lds	r24, 0x01CD	; 0x8001cd <Probes+0x2>
    635a:	80 93 3c 01 	sts	0x013C, r24	; 0x80013c <AltSemi>
    AltSemi.B = Probes.ID_1;       /* Anode */
    635e:	80 91 cb 01 	lds	r24, 0x01CB	; 0x8001cb <Probes>
    6362:	80 93 3d 01 	sts	0x013D, r24	; 0x80013d <AltSemi+0x1>
    AltSemi.C = Probes.ID_2;       /* Cathode */
    6366:	80 91 cc 01 	lds	r24, 0x01CC	; 0x8001cc <Probes+0x1>
    636a:	80 93 3e 01 	sts	0x013E, r24	; 0x80013e <AltSemi+0x2>
    AltSemi.U_1 = U_2;             /* U_f */
    636e:	ce 01       	movw	r24, r28
    6370:	8e 19       	sub	r24, r14
    6372:	9f 09       	sbc	r25, r15
    6374:	90 93 40 01 	sts	0x0140, r25	; 0x800140 <AltSemi+0x4>
    6378:	80 93 3f 01 	sts	0x013F, r24	; 0x80013f <AltSemi+0x3>
    AltSemi.U_2 = U_3;             /* V_T */
    637c:	c0 1b       	sub	r28, r16
    637e:	d1 0b       	sbc	r29, r17
    6380:	d0 93 42 01 	sts	0x0142, r29	; 0x800142 <AltSemi+0x6>
    6384:	c0 93 41 01 	sts	0x0141, r28	; 0x800141 <AltSemi+0x5>
  }
}
    6388:	cd b7       	in	r28, 0x3d	; 61
    638a:	de b7       	in	r29, 0x3e	; 62
    638c:	e6 e0       	ldi	r30, 0x06	; 6
    638e:	0c 94 3f 3f 	jmp	0x7e7e	; 0x7e7e <__epilogue_restores__+0x18>

00006392 <CheckUJT>:
/*
 *  check for UJT (Unijunction Transistor)
 */

void CheckUJT(void)
{
    6392:	ef 92       	push	r14
    6394:	0f 93       	push	r16
    6396:	1f 93       	push	r17
    6398:	cf 93       	push	r28
    639a:	df 93       	push	r29
  /*
   *  Measure R_BB 
   *  - At this point we shouldn't have found any resistors.
   */

  if (Check.Resistors == 0)        /* */
    639c:	80 91 0a 01 	lds	r24, 0x010A	; 0x80010a <__data_end+0x4>
    63a0:	81 11       	cpse	r24, r1
    63a2:	7a c0       	rjmp	.+244    	; 0x6498 <CheckUJT+0x106>
  {
    CheckResistor();               /* measure R_BB */
    63a4:	0e 94 fe 22 	call	0x45fc	; 0x45fc <CheckResistor>

    if (Check.Resistors == 1)      /* got resistance */
    63a8:	80 91 0a 01 	lds	r24, 0x010A	; 0x80010a <__data_end+0x4>
    63ac:	81 30       	cpi	r24, 0x01	; 1
    63ae:	09 f0       	breq	.+2      	; 0x63b2 <CheckUJT+0x20>
    63b0:	73 c0       	rjmp	.+230    	; 0x6498 <CheckUJT+0x106>
    {
      /* check for 4 - 12kOhms */
      if (CmpValue(Resistors[0].Value, Resistors[0].Scale, 3000, 0) == 1)
    63b2:	60 91 14 01 	lds	r22, 0x0114	; 0x800114 <Resistors+0x3>
    63b6:	70 91 15 01 	lds	r23, 0x0115	; 0x800115 <Resistors+0x4>
    63ba:	80 91 16 01 	lds	r24, 0x0116	; 0x800116 <Resistors+0x5>
    63be:	90 91 17 01 	lds	r25, 0x0117	; 0x800117 <Resistors+0x6>
    63c2:	e1 2c       	mov	r14, r1
    63c4:	08 eb       	ldi	r16, 0xB8	; 184
    63c6:	1b e0       	ldi	r17, 0x0B	; 11
    63c8:	20 e0       	ldi	r18, 0x00	; 0
    63ca:	30 e0       	ldi	r19, 0x00	; 0
    63cc:	40 91 13 01 	lds	r20, 0x0113	; 0x800113 <Resistors+0x2>
    63d0:	0e 94 fd 12 	call	0x25fa	; 0x25fa <CmpValue>
    63d4:	81 30       	cpi	r24, 0x01	; 1
    63d6:	99 f4       	brne	.+38     	; 0x63fe <CheckUJT+0x6c>
      {
        if (CmpValue(Resistors[0].Value, Resistors[0].Scale, 15000, 0) == -1)
    63d8:	60 91 14 01 	lds	r22, 0x0114	; 0x800114 <Resistors+0x3>
    63dc:	70 91 15 01 	lds	r23, 0x0115	; 0x800115 <Resistors+0x4>
    63e0:	80 91 16 01 	lds	r24, 0x0116	; 0x800116 <Resistors+0x5>
    63e4:	90 91 17 01 	lds	r25, 0x0117	; 0x800117 <Resistors+0x6>
    63e8:	08 e9       	ldi	r16, 0x98	; 152
    63ea:	1a e3       	ldi	r17, 0x3A	; 58
    63ec:	20 e0       	ldi	r18, 0x00	; 0
    63ee:	30 e0       	ldi	r19, 0x00	; 0
    63f0:	40 91 13 01 	lds	r20, 0x0113	; 0x800113 <Resistors+0x2>
    63f4:	0e 94 fd 12 	call	0x25fa	; 0x25fa <CmpValue>
 *  check for UJT (Unijunction Transistor)
 */

void CheckUJT(void)
{
  uint8_t           Flag = 0;      /* control flag */
    63f8:	91 e0       	ldi	r25, 0x01	; 1
    63fa:	8f 3f       	cpi	r24, 0xFF	; 255
    63fc:	09 f0       	breq	.+2      	; 0x6400 <CheckUJT+0x6e>
    63fe:	90 e0       	ldi	r25, 0x00	; 0
        {
          Flag = 1;      /* more checks required */
        }
      }

      Check.Resistors = 0;         /* reset counter */
    6400:	10 92 0a 01 	sts	0x010A, r1	; 0x80010a <__data_end+0x4>

  /*
   *  Check if we can switch the UJT.
   */

  if (Flag)
    6404:	99 23       	and	r25, r25
    6406:	09 f4       	brne	.+2      	; 0x640a <CheckUJT+0x78>
    6408:	47 c0       	rjmp	.+142    	; 0x6498 <CheckUJT+0x106>
  {
    /* switched off, only R_BB */
    /* set probes: Gnd -- Rl -- probe-2 / probe-1 -- Vcc / probe-3 -- HiZ */
    R_PORT = 0;
    640a:	15 b8       	out	0x05, r1	; 5
    R_DDR = Probes.Rl_2;                /* pull down B1 via Rl */
    640c:	80 91 d2 01 	lds	r24, 0x01D2	; 0x8001d2 <Probes+0x7>
    6410:	84 b9       	out	0x04, r24	; 4
    ADC_PORT = Probes.Pin_1;
    6412:	80 91 d7 01 	lds	r24, 0x01D7	; 0x8001d7 <Probes+0xc>
    6416:	88 b9       	out	0x08, r24	; 8
    ADC_DDR = Probes.Pin_1;             /* pull up B2 directly */
    6418:	87 b9       	out	0x07, r24	; 7
    U_1 = ReadU_5ms(Probes.Ch_2);       /* voltage at B1 */
    641a:	80 91 db 01 	lds	r24, 0x01DB	; 0x8001db <Probes+0x10>
    641e:	0e 94 18 1c 	call	0x3830	; 0x3830 <ReadU_5ms>
    6422:	ec 01       	movw	r28, r24

    /* switched on */
    /* set probes: Gnd -- Rl -- probe-2 / probe-1 -- Vcc / probe-3 -- Rl - Vcc */
    R_PORT = Probes.Rl_3;
    6424:	80 91 d3 01 	lds	r24, 0x01D3	; 0x8001d3 <Probes+0x8>
    6428:	85 b9       	out	0x05, r24	; 5
    R_DDR = Probes.Rl_2 | Probes.Rl_3;  /* and pull up E via Rl */
    642a:	90 91 d2 01 	lds	r25, 0x01D2	; 0x8001d2 <Probes+0x7>
    642e:	89 2b       	or	r24, r25
    6430:	84 b9       	out	0x04, r24	; 4
    U_2 = ReadU_5ms(Probes.Ch_2);       /* voltage at B1 */
    6432:	80 91 db 01 	lds	r24, 0x01DB	; 0x8001db <Probes+0x10>
    6436:	0e 94 18 1c 	call	0x3830	; 0x3830 <ReadU_5ms>

    /* compare currents (voltage drop across Rl) */
    if (U_2 > U_1)            /* I_on > I_off */
    643a:	c8 17       	cp	r28, r24
    643c:	d9 07       	cpc	r29, r25
    643e:	60 f5       	brcc	.+88     	; 0x6498 <CheckUJT+0x106>
    {
      U_3 = U_2 - U_1;        /* get difference */
      if (U_3 > 1000)         /* more than 1V (1.4mA) */
    6440:	9c 01       	movw	r18, r24
    6442:	2c 1b       	sub	r18, r28
    6444:	3d 0b       	sbc	r19, r29
    6446:	29 3e       	cpi	r18, 0xE9	; 233
    6448:	33 40       	sbci	r19, 0x03	; 3
    644a:	30 f1       	brcs	.+76     	; 0x6498 <CheckUJT+0x106>
        /*
         *  This seems to be an UJT, but we need a second test run with
         *  reversed B1-B2 to find the proper pinout.  
         */

        if (Check.AltFound == COMP_UJT) /* second test run */
    644c:	20 91 09 01 	lds	r18, 0x0109	; 0x800109 <__data_end+0x3>
    6450:	24 32       	cpi	r18, 0x24	; 36
    6452:	61 f4       	brne	.+24     	; 0x646c <CheckUJT+0xda>
        {
          Check.Done |= DONE_ALTSEMI;   /* no more tests needed */
    6454:	20 91 08 01 	lds	r18, 0x0108	; 0x800108 <__data_end+0x2>
    6458:	22 60       	ori	r18, 0x02	; 2
    645a:	20 93 08 01 	sts	0x0108, r18	; 0x800108 <__data_end+0x2>

          /* compare voltage drops for B1/B2 detection */
          if (AltSemi.U_1 > U_2)        /* larger voltage wins */
    645e:	20 91 3f 01 	lds	r18, 0x013F	; 0x80013f <AltSemi+0x3>
    6462:	30 91 40 01 	lds	r19, 0x0140	; 0x800140 <AltSemi+0x4>
    6466:	82 17       	cp	r24, r18
    6468:	93 07       	cpc	r25, r19
    646a:	b0 f0       	brcs	.+44     	; 0x6498 <CheckUJT+0x106>
          }
        }

        if (Flag)             /* update data */
        {
          Check.AltFound = COMP_UJT;         /* it's an UJT */
    646c:	24 e2       	ldi	r18, 0x24	; 36
    646e:	20 93 09 01 	sts	0x0109, r18	; 0x800109 <__data_end+0x3>
          #ifdef SW_SYMBOLS
          Check.AltSymbol = SYMBOL_UJT;      /* set symbol ID */
    6472:	2d e0       	ldi	r18, 0x0D	; 13
    6474:	20 93 10 01 	sts	0x0110, r18	; 0x800110 <__data_end+0xa>
          #endif

          /* save data */
          AltSemi.A = Probes.ID_3;      /* Emitter */
    6478:	20 91 cd 01 	lds	r18, 0x01CD	; 0x8001cd <Probes+0x2>
    647c:	20 93 3c 01 	sts	0x013C, r18	; 0x80013c <AltSemi>
          AltSemi.B = Probes.ID_1;      /* B2 */
    6480:	20 91 cb 01 	lds	r18, 0x01CB	; 0x8001cb <Probes>
    6484:	20 93 3d 01 	sts	0x013D, r18	; 0x80013d <AltSemi+0x1>
          AltSemi.C = Probes.ID_2;      /* B1 */
    6488:	20 91 cc 01 	lds	r18, 0x01CC	; 0x8001cc <Probes+0x1>
    648c:	20 93 3e 01 	sts	0x013E, r18	; 0x80013e <AltSemi+0x2>
          AltSemi.U_1 = U_2;            /* voltage drop when switched on */
    6490:	90 93 40 01 	sts	0x0140, r25	; 0x800140 <AltSemi+0x4>
    6494:	80 93 3f 01 	sts	0x013F, r24	; 0x80013f <AltSemi+0x3>
          /* R_BB is stored in Resistors[0] */
        }
      }
    }
  }
}
    6498:	df 91       	pop	r29
    649a:	cf 91       	pop	r28
    649c:	1f 91       	pop	r17
    649e:	0f 91       	pop	r16
    64a0:	ef 90       	pop	r14
    64a2:	08 95       	ret

000064a4 <MeasureInductance>:
 *  - 1 if inductance is too high (not implemented)
 *  - 0 on any problem
 */

uint8_t MeasureInductance(uint32_t *Time, uint8_t Mode)
{
    64a4:	0f 93       	push	r16
    64a6:	1f 93       	push	r17
    64a8:	cf 93       	push	r28
    64aa:	df 93       	push	r29
  uint16_t          Ticks_L;       /* timer counter */
  uint16_t          Ticks_H;       /* timer overflow counter */
  uint32_t          Counter;       /* counter */

  /* sanity check */
  if (Time == NULL) return 0;
    64ac:	00 97       	sbiw	r24, 0x00	; 0
    64ae:	11 f4       	brne	.+4      	; 0x64b4 <MeasureInductance+0x10>
    64b0:	80 e0       	ldi	r24, 0x00	; 0
    64b2:	cf c0       	rjmp	.+414    	; 0x6652 <MeasureInductance+0x1ae>
    64b4:	16 2f       	mov	r17, r22
    64b6:	ec 01       	movw	r28, r24

  DischargeProbes();                    /* try to discharge probes */
    64b8:	0e 94 2d 1d 	call	0x3a5a	; 0x3a5a <DischargeProbes>
  if (Check.Found == COMP_ERROR) return 0;
    64bc:	80 91 06 01 	lds	r24, 0x0106	; 0x800106 <__data_end>
    64c0:	81 30       	cpi	r24, 0x01	; 1
    64c2:	b1 f3       	breq	.-20     	; 0x64b0 <MeasureInductance+0xc>
  /*
   *  init hardware
   */

  /* set probes: Gnd -- (Rl) -- probe-2 / Gnd -- probe-1 */
  R_PORT = 0;                           /* set resistor port to low */
    64c4:	15 b8       	out	0x05, r1	; 5
  ADC_PORT = 0;                         /* set ADC port to low */
    64c6:	18 b8       	out	0x08, r1	; 8
    64c8:	90 91 d7 01 	lds	r25, 0x01D7	; 0x8001d7 <Probes+0xc>

  if (Mode & MODE_LOW_CURRENT)     /* low current */
    64cc:	01 2f       	mov	r16, r17
    64ce:	01 70       	andi	r16, 0x01	; 1
    64d0:	10 ff       	sbrs	r17, 0
    64d2:	05 c0       	rjmp	.+10     	; 0x64de <MeasureInductance+0x3a>
  {
    /* set probes: Gnd -- Rl -- probe-2 / Gnd -- probe-1 */
    R_DDR = Probes.Rl_2;                /* pull down probe-2 via Rl */
    64d4:	80 91 d2 01 	lds	r24, 0x01D2	; 0x8001d2 <Probes+0x7>
    64d8:	84 b9       	out	0x04, r24	; 4
    ADC_DDR = Probes.Pin_1;             /* pull down probe-1 directly */
    64da:	97 b9       	out	0x07, r25	; 7
    64dc:	05 c0       	rjmp	.+10     	; 0x64e8 <MeasureInductance+0x44>
  }
  else                             /* high current */
  {
    /* set probes: Gnd -- probe-2 / Gnd -- probe-1 */
    R_DDR = 0;                          /* disable probe resistors */
    64de:	14 b8       	out	0x04, r1	; 4
    /* pull down probe-1 and probe-2 directly */
    ADC_DDR = Probes.Pin_1 | Probes.Pin_2;
    64e0:	80 91 d8 01 	lds	r24, 0x01D8	; 0x8001d8 <Probes+0xd>
    64e4:	89 2b       	or	r24, r25
    64e6:	87 b9       	out	0x07, r24	; 7
  }

  /* set up analog comparator */
  ADCSRA = ADC_CLOCK_DIV;               /* disable ADC, but keep clock dividers */
    64e8:	86 e0       	ldi	r24, 0x06	; 6
    64ea:	80 93 7a 00 	sts	0x007A, r24	; 0x80007a <__DATA_REGION_ORIGIN__+0x1a>
  ADCSRB = (1 << ACME);                 /* use ADC multiplexer as negative input */
    64ee:	80 e4       	ldi	r24, 0x40	; 64
    64f0:	80 93 7b 00 	sts	0x007B, r24	; 0x80007b <__DATA_REGION_ORIGIN__+0x1b>
  ADMUX = ADC_REF_BANDGAP | Probes.Ch_2;     /* switch ADC multiplexer to probe-2 */
    64f4:	80 91 db 01 	lds	r24, 0x01DB	; 0x8001db <Probes+0x10>
    64f8:	80 6c       	ori	r24, 0xC0	; 192
    64fa:	80 93 7c 00 	sts	0x007C, r24	; 0x80007c <__DATA_REGION_ORIGIN__+0x1c>
                                        /* and set AREF to bandgap reference */
  ACSR = (1 << ACBG) | (1 << ACIC);     /* use bandgap as positive input, trigger timer1 */
    64fe:	84 e4       	ldi	r24, 0x44	; 68
    6500:	80 bf       	out	0x30, r24	; 48
  #ifndef ADC_LARGE_BUFFER_CAP
    /* buffer cap: 1nF or none at all */
    wait1ms();                          /* time for voltage stabilization */
    6502:	0e 94 7e 3c 	call	0x78fc	; 0x78fc <wait1ms>
  #else
    /* buffer cap: 100nF */
    wait10ms();                         /* time for voltage stabilization */
  #endif
  wdt_reset();                          /* reset watchdog */
    6506:	a8 95       	wdr
  /*
   *  set up timer
   */

  Ticks_H = 0;                          /* reset timer overflow counter */
  TCCR1A = 0;                           /* set default mode */
    6508:	10 92 80 00 	sts	0x0080, r1	; 0x800080 <__DATA_REGION_ORIGIN__+0x20>
  TCCR1B = 0;                           /* set more timer modes */
    650c:	10 92 81 00 	sts	0x0081, r1	; 0x800081 <__DATA_REGION_ORIGIN__+0x21>
  /* timer stopped, falling edge detection, noise canceler disabled */
  TCNT1 = 0;                            /* set Counter1 to 0 */
    6510:	10 92 85 00 	sts	0x0085, r1	; 0x800085 <__DATA_REGION_ORIGIN__+0x25>
    6514:	10 92 84 00 	sts	0x0084, r1	; 0x800084 <__DATA_REGION_ORIGIN__+0x24>
  /* clear all flags (input capture, compare A & B, overflow */
  TIFR1 = (1 << ICF1) | (1 << OCF1B) | (1 << OCF1A) | (1 << TOV1);
    6518:	87 e2       	ldi	r24, 0x27	; 39
    651a:	86 bb       	out	0x16, r24	; 22
    651c:	90 91 d7 01 	lds	r25, 0x01D7	; 0x8001d7 <Probes+0xc>

  if (Mode & MODE_DELAYED_START)        /* delayed start */
    6520:	e1 2f       	mov	r30, r17
    6522:	e4 70       	andi	r30, 0x04	; 4
    6524:	12 ff       	sbrs	r17, 2
    6526:	0e c0       	rjmp	.+28     	; 0x6544 <MeasureInductance+0xa0>
  {
    Test = MCU_CYCLES_PER_US;           /* MCU cycles per s */

    /* change probes: Gnd -- (Rl) -- probe-2 / probe-1 -- Vcc */
    ADC_PORT = Probes.Pin_1;            /* pull up probe-1 directly */
    6528:	98 b9       	out	0x08, r25	; 8
    652a:	88 e0       	ldi	r24, 0x08	; 8
     */

    while (Test > 0)
    {
      Test--;
      asm volatile("nop");              /* 1 MCU cycle */
    652c:	00 00       	nop
    652e:	81 50       	subi	r24, 0x01	; 1
     *  - a loop run needs 4 cycles, the last loop run just 3
     *  - cycles burnt: <MCU cycles per s> * 4 - 1
     *    time delay: 4s - 1 MCU cycle
     */

    while (Test > 0)
    6530:	e9 f7       	brne	.-6      	; 0x652c <MeasureInductance+0x88>
    {
      Test--;
      asm volatile("nop");              /* 1 MCU cycle */
    }

    TCCR1B |= (1 << CS10);              /* start timer (1/1 clock divider) */
    6532:	80 91 81 00 	lds	r24, 0x0081	; 0x800081 <__DATA_REGION_ORIGIN__+0x21>
    6536:	81 60       	ori	r24, 0x01	; 1
    6538:	80 93 81 00 	sts	0x0081, r24	; 0x800081 <__DATA_REGION_ORIGIN__+0x21>
  if (Mode & MODE_DELAYED_START)        /* delayed start */
  {
    Test = MCU_CYCLES_PER_US;           /* MCU cycles per s */

    /* change probes: Gnd -- (Rl) -- probe-2 / probe-1 -- Vcc */
    ADC_PORT = Probes.Pin_1;            /* pull up probe-1 directly */
    653c:	80 e0       	ldi	r24, 0x00	; 0
    653e:	90 e0       	ldi	r25, 0x00	; 0

    /* detect timer overflow by checking the overflow flag */
    if (Test & (1 << TOV1))
    {
      /* happens at 65.536ms for 1MHz or 8.192ms for 8MHz */
      TIFR1 = (1 << TOV1);              /* reset flag */
    6540:	31 e0       	ldi	r19, 0x01	; 1
    6542:	09 c0       	rjmp	.+18     	; 0x6556 <MeasureInductance+0xb2>

    TCCR1B |= (1 << CS10);              /* start timer (1/1 clock divider) */
  }
  else                                  /* immediate start */
  {
    TCCR1B |= (1 << CS10);              /* start timer (1/1 clock divider) */
    6544:	80 91 81 00 	lds	r24, 0x0081	; 0x800081 <__DATA_REGION_ORIGIN__+0x21>
    6548:	81 60       	ori	r24, 0x01	; 1
    654a:	80 93 81 00 	sts	0x0081, r24	; 0x800081 <__DATA_REGION_ORIGIN__+0x21>
    /* change probes: Gnd -- Rl -- probe-2 / probe-1 -- Vcc */
    ADC_PORT = Probes.Pin_1;            /* pull up probe-1 directly */
    654e:	98 b9       	out	0x08, r25	; 8
    6550:	f5 cf       	rjmp	.-22     	; 0x653c <MeasureInductance+0x98>

    /* end loop if input capture flag is set (= same voltage) */
    if (Test & (1 << ICF1)) break;

    /* detect timer overflow by checking the overflow flag */
    if (Test & (1 << TOV1))
    6552:	20 fd       	sbrc	r18, 0
    6554:	04 c0       	rjmp	.+8      	; 0x655e <MeasureInductance+0xba>
   *  - detect timer overflows
   */

  while (1)
  {
    Test = TIFR1;                       /* get timer1 flags */
    6556:	26 b3       	in	r18, 0x16	; 22

    /* end loop if input capture flag is set (= same voltage) */
    if (Test & (1 << ICF1)) break;
    6558:	25 ff       	sbrs	r18, 5
    655a:	fb cf       	rjmp	.-10     	; 0x6552 <MeasureInductance+0xae>
    655c:	07 c0       	rjmp	.+14     	; 0x656c <MeasureInductance+0xc8>

    /* detect timer overflow by checking the overflow flag */
    if (Test & (1 << TOV1))
    {
      /* happens at 65.536ms for 1MHz or 8.192ms for 8MHz */
      TIFR1 = (1 << TOV1);              /* reset flag */
    655e:	36 bb       	out	0x16, r19	; 22
      Ticks_H++;                        /* increase overflow counter */
    6560:	01 96       	adiw	r24, 0x01	; 1

      /* if it takes too long (0.26s) */
      if (Ticks_H == (CPU_FREQ / 250000))
    6562:	80 32       	cpi	r24, 0x20	; 32
    6564:	91 05       	cpc	r25, r1
    6566:	b9 f7       	brne	.-18     	; 0x6556 <MeasureInductance+0xb2>
      {
        Flag = 0;             /* signal timeout */
    6568:	10 e0       	ldi	r17, 0x00	; 0
    656a:	01 c0       	rjmp	.+2      	; 0x656e <MeasureInductance+0xca>
 *  - 0 on any problem
 */

uint8_t MeasureInductance(uint32_t *Time, uint8_t Mode)
{
  uint8_t           Flag = 3;      /* return value */
    656c:	13 e0       	ldi	r17, 0x03	; 3
      }
    }
  }

  /* stop counter */
  TCCR1B = 0;                           /* stop timer */
    656e:	10 92 81 00 	sts	0x0081, r1	; 0x800081 <__DATA_REGION_ORIGIN__+0x21>
  TIFR1 = (1 << ICF1);                  /* reset Input Capture flag */
    6572:	30 e2       	ldi	r19, 0x20	; 32
    6574:	36 bb       	out	0x16, r19	; 22

  Ticks_L = ICR1;                       /* get counter value */
    6576:	40 91 86 00 	lds	r20, 0x0086	; 0x800086 <__DATA_REGION_ORIGIN__+0x26>
    657a:	50 91 87 00 	lds	r21, 0x0087	; 0x800087 <__DATA_REGION_ORIGIN__+0x27>

  /* prepare cut off: Gnd -- Rl -- probe-2 / probe-1 -- Rl -- Gnd */
  R_DDR = Probes.Rl_2 | Probes.Rl_1;  
    657e:	60 91 d2 01 	lds	r22, 0x01D2	; 0x8001d2 <Probes+0x7>
    6582:	30 91 d1 01 	lds	r19, 0x01D1	; 0x8001d1 <Probes+0x6>
    6586:	36 2b       	or	r19, r22
    6588:	34 b9       	out	0x04, r19	; 4

  /* stop current flow */
  ADC_DDR = 0;
    658a:	17 b8       	out	0x07, r1	; 7

  /* catch missed timer overflow */
  if ((TCNT1 > Ticks_L) && (Test & (1 << TOV1)))
    658c:	60 91 84 00 	lds	r22, 0x0084	; 0x800084 <__DATA_REGION_ORIGIN__+0x24>
    6590:	70 91 85 00 	lds	r23, 0x0085	; 0x800085 <__DATA_REGION_ORIGIN__+0x25>
    6594:	46 17       	cp	r20, r22
    6596:	57 07       	cpc	r21, r23
    6598:	28 f4       	brcc	.+10     	; 0x65a4 <MeasureInductance+0x100>
    659a:	20 ff       	sbrs	r18, 0
    659c:	03 c0       	rjmp	.+6      	; 0x65a4 <MeasureInductance+0x100>
  {
    TIFR1 = (1 << TOV1);                /* reset overflow flag */
    659e:	21 e0       	ldi	r18, 0x01	; 1
    65a0:	26 bb       	out	0x16, r18	; 22
    Ticks_H++;                          /* increase overflow counter */
    65a2:	01 96       	adiw	r24, 0x01	; 1
  }

  /* enable ADC again */
  ADCSRA = (1 << ADEN) | (1 << ADIF) | ADC_CLOCK_DIV;
    65a4:	26 e9       	ldi	r18, 0x96	; 150
    65a6:	20 93 7a 00 	sts	0x007A, r18	; 0x80007a <__DATA_REGION_ORIGIN__+0x1a>
  ADCSRB &= ~(1 << ACME);     /* disable ADC multiplexer as negative input */
    65aa:	20 91 7b 00 	lds	r18, 0x007B	; 0x80007b <__DATA_REGION_ORIGIN__+0x1b>
    65ae:	2f 7b       	andi	r18, 0xBF	; 191
    65b0:	20 93 7b 00 	sts	0x007B, r18	; 0x80007b <__DATA_REGION_ORIGIN__+0x1b>

  /*
   *  process counters
   */

  if (Flag)                   /* got valid measurement */
    65b4:	11 23       	and	r17, r17
    65b6:	09 f4       	brne	.+2      	; 0x65ba <MeasureInductance+0x116>
    65b8:	48 c0       	rjmp	.+144    	; 0x664a <MeasureInductance+0x1a6>
  {
    /* combine both counter values */
    Counter = (uint32_t)Ticks_L;             /* lower 16 bits */
    65ba:	60 e0       	ldi	r22, 0x00	; 0
    65bc:	70 e0       	ldi	r23, 0x00	; 0
    Counter |= (uint32_t)Ticks_H << 16;      /* upper 16 bits */
    65be:	a0 e0       	ldi	r26, 0x00	; 0
    65c0:	b0 e0       	ldi	r27, 0x00	; 0
    65c2:	dc 01       	movw	r26, r24
    65c4:	99 27       	eor	r25, r25
    65c6:	88 27       	eor	r24, r24
    65c8:	48 2b       	or	r20, r24
    65ca:	59 2b       	or	r21, r25
    65cc:	6a 2b       	or	r22, r26
    65ce:	7b 2b       	or	r23, r27
     */

    Offset = 3;               /* processing overhead */

    /* start offset */
    if (Mode & MODE_DELAYED_START)      /* delayed start */
    65d0:	ee 23       	and	r30, r30
    65d2:	31 f0       	breq	.+12     	; 0x65e0 <MeasureInductance+0x13c>
    {
      /* add MCU cycles for delayed start */
      Counter += (MCU_CYCLES_PER_US * 4) - 1;
    65d4:	41 5e       	subi	r20, 0xE1	; 225
    65d6:	5f 4f       	sbci	r21, 0xFF	; 255
    65d8:	6f 4f       	sbci	r22, 0xFF	; 255
    65da:	7f 4f       	sbci	r23, 0xFF	; 255

    /*
     *  offset handling
     */

    Offset = 3;               /* processing overhead */
    65dc:	83 e0       	ldi	r24, 0x03	; 3
    65de:	01 c0       	rjmp	.+2      	; 0x65e2 <MeasureInductance+0x13e>
      /* add MCU cycles for delayed start */
      Counter += (MCU_CYCLES_PER_US * 4) - 1;
    }
    else                                /* immediate start */
    {
      Offset++;               /* timer started one cycle too early */
    65e0:	84 e0       	ldi	r24, 0x04	; 4
    }

    /* method and MCU clock specific offset */
    if (Mode & MODE_LOW_CURRENT)        /* low current check */
    65e2:	01 11       	cpse	r16, r1
    {
      /* based on MCU clock */
      #if CPU_FREQ >= 16000000
        Offset += 3;
      #else
        Offset += 1;
    65e4:	8f 5f       	subi	r24, 0xFF	; 255
    {
      Offset += 1;
    }
    #endif

    if (Counter > Offset) Counter -= Offset;    /* subtract offset */
    65e6:	90 e0       	ldi	r25, 0x00	; 0
    65e8:	a0 e0       	ldi	r26, 0x00	; 0
    65ea:	b0 e0       	ldi	r27, 0x00	; 0
    65ec:	84 17       	cp	r24, r20
    65ee:	95 07       	cpc	r25, r21
    65f0:	a6 07       	cpc	r26, r22
    65f2:	b7 07       	cpc	r27, r23
    65f4:	38 f4       	brcc	.+14     	; 0x6604 <MeasureInductance+0x160>
    65f6:	9a 01       	movw	r18, r20
    65f8:	ab 01       	movw	r20, r22
    65fa:	28 1b       	sub	r18, r24
    65fc:	39 0b       	sbc	r19, r25
    65fe:	4a 0b       	sbc	r20, r26
    6600:	5b 0b       	sbc	r21, r27
    6602:	03 c0       	rjmp	.+6      	; 0x660a <MeasureInductance+0x166>
    else Counter = 0;                           /* prevent underflow */
    6604:	20 e0       	ldi	r18, 0x00	; 0
    6606:	30 e0       	ldi	r19, 0x00	; 0
    6608:	a9 01       	movw	r20, r18
    /*
     *  time handling
     */

    /* convert counter (MCU cycles) to time (in ns) */
    Counter *= (10000 / MCU_CYCLES_PER_US);     /* convert to 0.1 ns */
    660a:	a2 ee       	ldi	r26, 0xE2	; 226
    660c:	b4 e0       	ldi	r27, 0x04	; 4
    660e:	0e 94 0c 3f 	call	0x7e18	; 0x7e18 <__muluhisi3>
    Counter += 5;                               /* for rounding */
    6612:	6b 5f       	subi	r22, 0xFB	; 251
    6614:	7f 4f       	sbci	r23, 0xFF	; 255
    6616:	8f 4f       	sbci	r24, 0xFF	; 255
    6618:	9f 4f       	sbci	r25, 0xFF	; 255
    Counter /= 10;                              /* scale to ns */
    661a:	2a e0       	ldi	r18, 0x0A	; 10
    661c:	30 e0       	ldi	r19, 0x00	; 0
    661e:	40 e0       	ldi	r20, 0x00	; 0
    6620:	50 e0       	ldi	r21, 0x00	; 0
    6622:	0e 94 af 3e 	call	0x7d5e	; 0x7d5e <__udivmodsi4>
    *Time = Counter;               /* save time */
    6626:	28 83       	st	Y, r18
    6628:	39 83       	std	Y+1, r19	; 0x01
    662a:	4a 83       	std	Y+2, r20	; 0x02
    662c:	5b 83       	std	Y+3, r21	; 0x03

    /* check for lower limit */
    if (Mode & MODE_LOW_CURRENT)   /* low current mode */
    662e:	00 23       	and	r16, r16
    6630:	31 f0       	breq	.+12     	; 0x663e <MeasureInductance+0x19a>
    {
      if (Counter < 1250)          /* time < 1.25s */
    6632:	22 3e       	cpi	r18, 0xE2	; 226
    6634:	34 40       	sbci	r19, 0x04	; 4
    6636:	41 05       	cpc	r20, r1
    6638:	51 05       	cpc	r21, r1
    663a:	30 f0       	brcs	.+12     	; 0x6648 <MeasureInductance+0x1a4>
    663c:	06 c0       	rjmp	.+12     	; 0x664a <MeasureInductance+0x1a6>
        Flag = 2;                  /* signal "inductance too low" */
      }
    }
    else                           /* high current mode */
    {
      if (Counter <= 100)          /* time <= 100ns */
    663e:	25 36       	cpi	r18, 0x65	; 101
    6640:	31 05       	cpc	r19, r1
    6642:	41 05       	cpc	r20, r1
    6644:	51 05       	cpc	r21, r1
    6646:	08 f4       	brcc	.+2      	; 0x664a <MeasureInductance+0x1a6>
    /* check for lower limit */
    if (Mode & MODE_LOW_CURRENT)   /* low current mode */
    {
      if (Counter < 1250)          /* time < 1.25s */
      {
        Flag = 2;                  /* signal "inductance too low" */
    6648:	12 e0       	ldi	r17, 0x02	; 2
      }
    }
  }

  /* update reference source for next ADC run */
  Cfg.Ref = ADC_REF_BANDGAP;       /* we've used the bandgap reference */
    664a:	80 ec       	ldi	r24, 0xC0	; 192
    664c:	80 93 a5 01 	sts	0x01A5, r24	; 0x8001a5 <Cfg+0x5>
    6650:	81 2f       	mov	r24, r17

  return Flag;
}
    6652:	df 91       	pop	r29
    6654:	cf 91       	pop	r28
    6656:	1f 91       	pop	r17
    6658:	0f 91       	pop	r16
    665a:	08 95       	ret

0000665c <MeasureInductor>:
 *  - 1 on success
 *  - 0 on any error
 */

uint8_t MeasureInductor(Resistor_Type *Resistor)
{
    665c:	a4 e0       	ldi	r26, 0x04	; 4
    665e:	b0 e0       	ldi	r27, 0x00	; 0
    6660:	e4 e3       	ldi	r30, 0x34	; 52
    6662:	f3 e3       	ldi	r31, 0x33	; 51
    6664:	0c 94 19 3f 	jmp	0x7e32	; 0x7e32 <__prologue_saves__+0x4>
  int16_t           Offset = 0;    /* offset for U_ref */
  uint32_t          Value;         /* value */
  uint32_t          Time1;         /* time #1 */

  /* reset data */
  Inductor.Scale = 0;
    6668:	10 92 e8 01 	sts	0x01E8, r1	; 0x8001e8 <Inductor>
  Inductor.Value = 0;
    666c:	10 92 e9 01 	sts	0x01E9, r1	; 0x8001e9 <Inductor+0x1>
    6670:	10 92 ea 01 	sts	0x01EA, r1	; 0x8001ea <Inductor+0x2>
    6674:	10 92 eb 01 	sts	0x01EB, r1	; 0x8001eb <Inductor+0x3>
    6678:	10 92 ec 01 	sts	0x01EC, r1	; 0x8001ec <Inductor+0x4>

  /* sanity check */
  if (Resistor == NULL) return Test;
    667c:	00 97       	sbiw	r24, 0x00	; 0
    667e:	09 f4       	brne	.+2      	; 0x6682 <MeasureInductor+0x26>
    6680:	17 c1       	rjmp	.+558    	; 0x68b0 <MeasureInductor+0x254>
    6682:	6c 01       	movw	r12, r24

  /* limit resistance to 2k (feasibilty & prevent variable overflow) */ 
  if (CmpValue(Resistor->Value, Resistor->Scale, 2000, 0) >= 0) return Test;
    6684:	fc 01       	movw	r30, r24
    6686:	63 81       	ldd	r22, Z+3	; 0x03
    6688:	74 81       	ldd	r23, Z+4	; 0x04
    668a:	85 81       	ldd	r24, Z+5	; 0x05
    668c:	96 81       	ldd	r25, Z+6	; 0x06
    668e:	e1 2c       	mov	r14, r1
    6690:	00 ed       	ldi	r16, 0xD0	; 208
    6692:	17 e0       	ldi	r17, 0x07	; 7
    6694:	20 e0       	ldi	r18, 0x00	; 0
    6696:	30 e0       	ldi	r19, 0x00	; 0
    6698:	42 81       	ldd	r20, Z+2	; 0x02
    669a:	0e 94 fd 12 	call	0x25fa	; 0x25fa <CmpValue>
    669e:	87 ff       	sbrs	r24, 7
    66a0:	07 c1       	rjmp	.+526    	; 0x68b0 <MeasureInductor+0x254>
   *  - run in low current mode to check for high inductance
   *  - run in high current mode to check for low inductance, when high
   *    current mode failed and DUT's resistance is low
   */

  UpdateProbes(Resistor->A, Resistor->B, 0);      /* update probes */
    66a2:	40 e0       	ldi	r20, 0x00	; 0
    66a4:	f6 01       	movw	r30, r12
    66a6:	61 81       	ldd	r22, Z+1	; 0x01
    66a8:	80 81       	ld	r24, Z
    66aa:	0e 94 2a 1c 	call	0x3854	; 0x3854 <UpdateProbes>
   *  low current & delayed start
   *  - to catch large inductance with capacitive effect
   */

  Mode = MODE_LOW_CURRENT | MODE_DELAYED_START;
  Test = MeasureInductance(&Time1, Mode);
    66ae:	65 e0       	ldi	r22, 0x05	; 5
    66b0:	ce 01       	movw	r24, r28
    66b2:	01 96       	adiw	r24, 0x01	; 1
    66b4:	0e 94 52 32 	call	0x64a4	; 0x64a4 <MeasureInductance>
  if (Test == 3)              /* valid measurement */
    66b8:	83 30       	cpi	r24, 0x03	; 3
    66ba:	59 f4       	brne	.+22     	; 0x66d2 <MeasureInductor+0x76>
  {
    /* a valid time should be larger than the delay (4s) */
    if (Time1 <= 5000)         /* <= 5s */
    66bc:	89 81       	ldd	r24, Y+1	; 0x01
    66be:	9a 81       	ldd	r25, Y+2	; 0x02
    66c0:	ab 81       	ldd	r26, Y+3	; 0x03
    66c2:	bc 81       	ldd	r27, Y+4	; 0x04
    66c4:	89 38       	cpi	r24, 0x89	; 137
    66c6:	93 41       	sbci	r25, 0x13	; 19
    66c8:	a1 05       	cpc	r26, r1
    66ca:	b1 05       	cpc	r27, r1
    66cc:	20 f0       	brcs	.+8      	; 0x66d6 <MeasureInductor+0x7a>
  /*
   *  low current & delayed start
   *  - to catch large inductance with capacitive effect
   */

  Mode = MODE_LOW_CURRENT | MODE_DELAYED_START;
    66ce:	15 e0       	ldi	r17, 0x05	; 5
    66d0:	23 c0       	rjmp	.+70     	; 0x6718 <MeasureInductor+0xbc>
  /*
   *  low current & immediate start
   *  - to check for high inductance
   */

  if (Test == 0)               /* no valid measurement yet */
    66d2:	81 11       	cpse	r24, r1
    66d4:	ed c0       	rjmp	.+474    	; 0x68b0 <MeasureInductor+0x254>
  {
    Mode = MODE_LOW_CURRENT;
    Test = MeasureInductance(&Time1, Mode);
    66d6:	61 e0       	ldi	r22, 0x01	; 1
    66d8:	ce 01       	movw	r24, r28
    66da:	01 96       	adiw	r24, 0x01	; 1
    66dc:	0e 94 52 32 	call	0x64a4	; 0x64a4 <MeasureInductance>

    if (Test == 2)             /* inductance too low */
    66e0:	82 30       	cpi	r24, 0x02	; 2
    66e2:	b1 f4       	brne	.+44     	; 0x6710 <MeasureInductor+0xb4>
       *  high current & immediate start
       *  - to check for low inductance
       */

      /* if resistance < 40 Ohms we may run the high current test */
      if (CmpValue(Resistor->Value, Resistor->Scale, 40, 0) < 0)
    66e4:	f6 01       	movw	r30, r12
    66e6:	63 81       	ldd	r22, Z+3	; 0x03
    66e8:	74 81       	ldd	r23, Z+4	; 0x04
    66ea:	85 81       	ldd	r24, Z+5	; 0x05
    66ec:	96 81       	ldd	r25, Z+6	; 0x06
    66ee:	e1 2c       	mov	r14, r1
    66f0:	08 e2       	ldi	r16, 0x28	; 40
    66f2:	10 e0       	ldi	r17, 0x00	; 0
    66f4:	20 e0       	ldi	r18, 0x00	; 0
    66f6:	30 e0       	ldi	r19, 0x00	; 0
    66f8:	42 81       	ldd	r20, Z+2	; 0x02
    66fa:	0e 94 fd 12 	call	0x25fa	; 0x25fa <CmpValue>
    66fe:	87 ff       	sbrs	r24, 7
    6700:	d7 c0       	rjmp	.+430    	; 0x68b0 <MeasureInductor+0x254>
      {
        Mode = MODE_HIGH_CURRENT;
        Test = MeasureInductance(&Time1, Mode);
    6702:	62 e0       	ldi	r22, 0x02	; 2
    6704:	ce 01       	movw	r24, r28
    6706:	01 96       	adiw	r24, 0x01	; 1
    6708:	0e 94 52 32 	call	0x64a4	; 0x64a4 <MeasureInductance>
       */

      /* if resistance < 40 Ohms we may run the high current test */
      if (CmpValue(Resistor->Value, Resistor->Scale, 40, 0) < 0)
      {
        Mode = MODE_HIGH_CURRENT;
    670c:	12 e0       	ldi	r17, 0x02	; 2
    670e:	01 c0       	rjmp	.+2      	; 0x6712 <MeasureInductor+0xb6>
   *  - to check for high inductance
   */

  if (Test == 0)               /* no valid measurement yet */
  {
    Mode = MODE_LOW_CURRENT;
    6710:	11 e0       	ldi	r17, 0x01	; 1
        Test = MeasureInductance(&Time1, Mode);
      }
    }
  }

  if (Test != 3) Test = 0;         /* all measurements failed */
    6712:	83 30       	cpi	r24, 0x03	; 3
    6714:	09 f0       	breq	.+2      	; 0x6718 <MeasureInductor+0xbc>
    6716:	cc c0       	rjmp	.+408    	; 0x68b0 <MeasureInductor+0x254>
    /*
     *  resistance
     */

    /* total resistance (in 0.1 Ohms) */
    R_total = RescaleValue(Resistor->Value, Resistor->Scale, -1);  /* R_L */
    6718:	f6 01       	movw	r30, r12
    671a:	63 81       	ldd	r22, Z+3	; 0x03
    671c:	74 81       	ldd	r23, Z+4	; 0x04
    671e:	85 81       	ldd	r24, Z+5	; 0x05
    6720:	96 81       	ldd	r25, Z+6	; 0x06
    6722:	2f ef       	ldi	r18, 0xFF	; 255
    6724:	42 81       	ldd	r20, Z+2	; 0x02
    6726:	0e 94 74 13 	call	0x26e8	; 0x26e8 <RescaleValue>
    672a:	6b 01       	movw	r12, r22
    672c:	7c 01       	movw	r14, r24
    uint8_t            n;
    /* get index number for probe pair */
    n = GetOffsetIndex(Probes.ID_1, Probes.ID_2);
    Factor = NV.RZero[n];          /* probe leads (0.01 Ohms) */
    #else
    Factor = NV.RZero;             /* probe leads (0.01 Ohms) */
    672e:	80 91 e1 01 	lds	r24, 0x01E1	; 0x8001e1 <NV+0x4>
    6732:	90 91 e2 01 	lds	r25, 0x01E2	; 0x8001e2 <NV+0x5>
    #endif

    Factor += 5;                   /* for rounding */
    6736:	05 96       	adiw	r24, 0x05	; 5
    Factor /= 10;                  /* scale to 0.1 Ohms */
    R_total += NV.RiH + NV.RiL + Factor;
    6738:	e0 91 dd 01 	lds	r30, 0x01DD	; 0x8001dd <NV>
    673c:	f0 91 de 01 	lds	r31, 0x01DE	; 0x8001de <NV+0x1>
    6740:	60 91 df 01 	lds	r22, 0x01DF	; 0x8001df <NV+0x2>
    6744:	70 91 e0 01 	lds	r23, 0x01E0	; 0x8001e0 <NV+0x3>
    6748:	9f 01       	movw	r18, r30
    674a:	26 0f       	add	r18, r22
    674c:	37 1f       	adc	r19, r23
    674e:	6a e0       	ldi	r22, 0x0A	; 10
    6750:	70 e0       	ldi	r23, 0x00	; 0
    6752:	0e 94 87 3e 	call	0x7d0e	; 0x7d0e <__udivmodhi4>
    6756:	62 0f       	add	r22, r18
    6758:	73 1f       	adc	r23, r19
    675a:	6c 0d       	add	r22, r12
    675c:	7d 1d       	adc	r23, r13

    Factor = NV.RiL;          /* shunt resistance (in 0.1 Ohms) */

    if (Mode & MODE_LOW_CURRENT)   /* low current measurement mode */
    675e:	10 ff       	sbrs	r17, 0
    6760:	16 c0       	rjmp	.+44     	; 0x678e <MeasureInductor+0x132>
    {
      /* add R_l */
      R_total += (R_LOW * 10);
    6762:	60 57       	subi	r22, 0x70	; 112
    6764:	75 4e       	sbci	r23, 0xE5	; 229
      Factor += (R_LOW * 10);
    6766:	e0 57       	subi	r30, 0x70	; 112
    6768:	f5 4e       	sbci	r31, 0xE5	; 229
       *  - negative/lower offset -> higher L
       */

      #if CPU_FREQ == 8000000
      /* 8 MHz */
      if (Time1 < 6000)       /* < 6s / < 18mH */
    676a:	89 81       	ldd	r24, Y+1	; 0x01
    676c:	9a 81       	ldd	r25, Y+2	; 0x02
    676e:	ab 81       	ldd	r26, Y+3	; 0x03
    6770:	bc 81       	ldd	r27, Y+4	; 0x04
    6772:	80 37       	cpi	r24, 0x70	; 112
    6774:	27 e1       	ldi	r18, 0x17	; 23
    6776:	92 07       	cpc	r25, r18
    6778:	a1 05       	cpc	r26, r1
    677a:	b1 05       	cpc	r27, r1
    677c:	a0 f0       	brcs	.+40     	; 0x67a6 <MeasureInductor+0x14a>
      {
        Offset = 38;
      }
      else if (Time1 < 9500) /* 6-9.5s / 18-27mH */
    677e:	8c 31       	cpi	r24, 0x1C	; 28
    6780:	95 42       	sbci	r25, 0x25	; 37
    6782:	a1 05       	cpc	r26, r1
    6784:	b1 05       	cpc	r27, r1
    6786:	90 f0       	brcs	.+36     	; 0x67ac <MeasureInductor+0x150>
      {
        Offset = -10;
      }
      else                    /* > 9.5s / > 27mH */
      {
        Offset = 20;
    6788:	24 e1       	ldi	r18, 0x14	; 20
    678a:	30 e0       	ldi	r19, 0x00	; 0
    678c:	14 c0       	rjmp	.+40     	; 0x67b6 <MeasureInductor+0x15a>
       *  compensation offset for U_ref
       *  - positive/larger offset -> lower L
       *  - negative/lower offset -> higher L
       */

      Temp = (uint16_t)Time1;      /* time < 50s expected */
    678e:	89 81       	ldd	r24, Y+1	; 0x01
    6790:	9a 81       	ldd	r25, Y+2	; 0x02

      #if CPU_FREQ == 8000000
      /* 8 MHz */
      if (Temp < 1500)        /* < 1.5s / < 100H */
    6792:	8c 3d       	cpi	r24, 0xDC	; 220
    6794:	25 e0       	ldi	r18, 0x05	; 5
    6796:	92 07       	cpc	r25, r18
    6798:	48 f0       	brcs	.+18     	; 0x67ac <MeasureInductor+0x150>
      {
        Offset = -10;
      }
      else if (Temp < 5000)   /* 1.5-5s / 100-330H */
    679a:	88 38       	cpi	r24, 0x88	; 136
    679c:	93 41       	sbci	r25, 0x13	; 19
    679e:	48 f0       	brcs	.+18     	; 0x67b2 <MeasureInductor+0x156>
      {
        Offset = -5; 
      }
      else                    /* > 5s / > 330H */
      {
        Offset = -50;
    67a0:	2e ec       	ldi	r18, 0xCE	; 206
    67a2:	3f ef       	ldi	r19, 0xFF	; 255
    67a4:	08 c0       	rjmp	.+16     	; 0x67b6 <MeasureInductor+0x15a>

      #if CPU_FREQ == 8000000
      /* 8 MHz */
      if (Time1 < 6000)       /* < 6s / < 18mH */
      {
        Offset = 38;
    67a6:	26 e2       	ldi	r18, 0x26	; 38
    67a8:	30 e0       	ldi	r19, 0x00	; 0
    67aa:	05 c0       	rjmp	.+10     	; 0x67b6 <MeasureInductor+0x15a>

      #if CPU_FREQ == 8000000
      /* 8 MHz */
      if (Temp < 1500)        /* < 1.5s / < 100H */
      {
        Offset = -10;
    67ac:	26 ef       	ldi	r18, 0xF6	; 246
    67ae:	3f ef       	ldi	r19, 0xFF	; 255
    67b0:	02 c0       	rjmp	.+4      	; 0x67b6 <MeasureInductor+0x15a>
      }
      else if (Temp < 5000)   /* 1.5-5s / 100-330H */
      {
        Offset = -5; 
    67b2:	2b ef       	ldi	r18, 0xFB	; 251
    67b4:	3f ef       	ldi	r19, 0xFF	; 255
     *  ratio and factor
     *  - ratio = ((U_ref * R_total) / (5V * R_shunt)) * 10^3
     */

    /* calculate ratio */
    Value = Cfg.Bandgap + NV.CompOffset;          /* = U_ref (in mV) */
    67b6:	40 91 e5 01 	lds	r20, 0x01E5	; 0x8001e5 <NV+0x8>
    67ba:	80 91 a6 01 	lds	r24, 0x01A6	; 0x8001a6 <Cfg+0x6>
    67be:	90 91 a7 01 	lds	r25, 0x01A7	; 0x8001a7 <Cfg+0x7>
    67c2:	84 0f       	add	r24, r20
    67c4:	91 1d       	adc	r25, r1
    67c6:	47 fd       	sbrc	r20, 7
    67c8:	9a 95       	dec	r25
    Value += Offset;                              /* +/- offset */
    67ca:	89 01       	movw	r16, r18
    67cc:	33 0f       	add	r19, r19
    67ce:	22 0b       	sbc	r18, r18
    67d0:	33 0b       	sbc	r19, r19
    67d2:	a9 01       	movw	r20, r18
    67d4:	98 01       	movw	r18, r16
    67d6:	28 0f       	add	r18, r24
    67d8:	39 1f       	adc	r19, r25
    67da:	41 1d       	adc	r20, r1
    67dc:	51 1d       	adc	r21, r1
    Value *= R_total;                             /* * R_total (in 0.1 Ohms) */
    67de:	6b 01       	movw	r12, r22
    67e0:	e1 2c       	mov	r14, r1
    67e2:	f1 2c       	mov	r15, r1
    67e4:	c7 01       	movw	r24, r14
    67e6:	b6 01       	movw	r22, r12
    67e8:	0e 94 5d 3e 	call	0x7cba	; 0x7cba <__mulsi3>
    Value /= Factor;                              /* / R_shunt (in 0.1 Ohms) */
    67ec:	9f 01       	movw	r18, r30
    67ee:	40 e0       	ldi	r20, 0x00	; 0
    67f0:	50 e0       	ldi	r21, 0x00	; 0
    67f2:	0e 94 af 3e 	call	0x7d5e	; 0x7d5e <__udivmodsi4>
    Value /= 5;                                   /* / 5000mV, * 10^3 */

    /* get ratio based factor */
    Factor = GetFactor((uint16_t)Value, TABLE_INDUCTOR);
    67f6:	ca 01       	movw	r24, r20
    67f8:	b9 01       	movw	r22, r18
    67fa:	25 e0       	ldi	r18, 0x05	; 5
    67fc:	30 e0       	ldi	r19, 0x00	; 0
    67fe:	40 e0       	ldi	r20, 0x00	; 0
    6800:	50 e0       	ldi	r21, 0x00	; 0
    6802:	0e 94 af 3e 	call	0x7d5e	; 0x7d5e <__udivmodsi4>
    6806:	63 e0       	ldi	r22, 0x03	; 3
    6808:	c9 01       	movw	r24, r18
    680a:	0e 94 da 1d 	call	0x3bb4	; 0x3bb4 <GetFactor>
    680e:	5c 01       	movw	r10, r24
    *  calculate inductance
    *  L = t_stop * R_total * factor
    */

    Scale = -9;               /* nH by default */
    Value = Time1;            /* t_stop (in ns) */
    6810:	29 81       	ldd	r18, Y+1	; 0x01
    6812:	3a 81       	ldd	r19, Y+2	; 0x02
    6814:	4b 81       	ldd	r20, Y+3	; 0x03
    6816:	5c 81       	ldd	r21, Y+4	; 0x04
   /*
    *  calculate inductance
    *  L = t_stop * R_total * factor
    */

    Scale = -9;               /* nH by default */
    6818:	17 ef       	ldi	r17, 0xF7	; 247
    Value = Time1;            /* t_stop (in ns) */

    while (Value > 100000)    /* re-scale to prevent overflow */
    {
      Value += 5;             /* for automagic rounding */
      Value /= 10;            /* scale down by 10^1 */
    681a:	9a e0       	ldi	r25, 0x0A	; 10
    681c:	49 2e       	mov	r4, r25
    681e:	51 2c       	mov	r5, r1
    6820:	61 2c       	mov	r6, r1
    6822:	71 2c       	mov	r7, r1
    */

    Scale = -9;               /* nH by default */
    Value = Time1;            /* t_stop (in ns) */

    while (Value > 100000)    /* re-scale to prevent overflow */
    6824:	21 3a       	cpi	r18, 0xA1	; 161
    6826:	86 e8       	ldi	r24, 0x86	; 134
    6828:	38 07       	cpc	r19, r24
    682a:	81 e0       	ldi	r24, 0x01	; 1
    682c:	48 07       	cpc	r20, r24
    682e:	51 05       	cpc	r21, r1
    6830:	60 f0       	brcs	.+24     	; 0x684a <MeasureInductor+0x1ee>
    {
      Value += 5;             /* for automagic rounding */
    6832:	ca 01       	movw	r24, r20
    6834:	b9 01       	movw	r22, r18
    6836:	6b 5f       	subi	r22, 0xFB	; 251
    6838:	7f 4f       	sbci	r23, 0xFF	; 255
    683a:	8f 4f       	sbci	r24, 0xFF	; 255
    683c:	9f 4f       	sbci	r25, 0xFF	; 255
      Value /= 10;            /* scale down by 10^1 */
    683e:	a3 01       	movw	r20, r6
    6840:	92 01       	movw	r18, r4
    6842:	0e 94 af 3e 	call	0x7d5e	; 0x7d5e <__udivmodsi4>
      Scale++;                /* increase exponent by 1 */
    6846:	1f 5f       	subi	r17, 0xFF	; 255
    6848:	ed cf       	rjmp	.-38     	; 0x6824 <MeasureInductor+0x1c8>
    }

    Value *= Factor;          /* * factor (in 10^-3) */
    684a:	d5 01       	movw	r26, r10
    684c:	0e 94 0c 3f 	call	0x7e18	; 0x7e18 <__muluhisi3>
    6850:	9b 01       	movw	r18, r22
    6852:	ac 01       	movw	r20, r24

    while (Value > 100000)    /* re-scale to prevent overflow */
    {
      Value += 5;             /* for automagic rounding */
      Value /= 10;            /* scale down by 10^1 */
    6854:	8a e0       	ldi	r24, 0x0A	; 10
    6856:	88 2e       	mov	r8, r24
    6858:	91 2c       	mov	r9, r1
    685a:	a1 2c       	mov	r10, r1
    685c:	b1 2c       	mov	r11, r1
      Scale++;                /* increase exponent by 1 */
    }

    Value *= Factor;          /* * factor (in 10^-3) */

    while (Value > 100000)    /* re-scale to prevent overflow */
    685e:	21 3a       	cpi	r18, 0xA1	; 161
    6860:	e6 e8       	ldi	r30, 0x86	; 134
    6862:	3e 07       	cpc	r19, r30
    6864:	e1 e0       	ldi	r30, 0x01	; 1
    6866:	4e 07       	cpc	r20, r30
    6868:	51 05       	cpc	r21, r1
    686a:	60 f0       	brcs	.+24     	; 0x6884 <MeasureInductor+0x228>
    {
      Value += 5;             /* for automagic rounding */
    686c:	ca 01       	movw	r24, r20
    686e:	b9 01       	movw	r22, r18
    6870:	6b 5f       	subi	r22, 0xFB	; 251
    6872:	7f 4f       	sbci	r23, 0xFF	; 255
    6874:	8f 4f       	sbci	r24, 0xFF	; 255
    6876:	9f 4f       	sbci	r25, 0xFF	; 255
      Value /= 10;            /* scale down by 10^1 */
    6878:	a5 01       	movw	r20, r10
    687a:	94 01       	movw	r18, r8
    687c:	0e 94 af 3e 	call	0x7d5e	; 0x7d5e <__udivmodsi4>
      Scale++;                /* increase exponent by 1 */
    6880:	1f 5f       	subi	r17, 0xFF	; 255
    6882:	ed cf       	rjmp	.-38     	; 0x685e <MeasureInductor+0x202>
    }

    Value *= R_total;         /* * R_total (in 0.1 Ohms) */
    6884:	c7 01       	movw	r24, r14
    6886:	b6 01       	movw	r22, r12
    6888:	0e 94 5d 3e 	call	0x7cba	; 0x7cba <__mulsi3>
    Value /= 10000;           /* /10 for 1 Ohms, /1000 for factor */

    /* update data */
    Inductor.Scale = Scale;
    688c:	10 93 e8 01 	sts	0x01E8, r17	; 0x8001e8 <Inductor>
    Inductor.Value = Value;
    6890:	20 e1       	ldi	r18, 0x10	; 16
    6892:	37 e2       	ldi	r19, 0x27	; 39
    6894:	40 e0       	ldi	r20, 0x00	; 0
    6896:	50 e0       	ldi	r21, 0x00	; 0
    6898:	0e 94 af 3e 	call	0x7d5e	; 0x7d5e <__udivmodsi4>
    689c:	20 93 e9 01 	sts	0x01E9, r18	; 0x8001e9 <Inductor+0x1>
    68a0:	30 93 ea 01 	sts	0x01EA, r19	; 0x8001ea <Inductor+0x2>
    68a4:	40 93 eb 01 	sts	0x01EB, r20	; 0x8001eb <Inductor+0x3>
    68a8:	50 93 ec 01 	sts	0x01EC, r21	; 0x8001ec <Inductor+0x4>
    Test = 1;                 /* signal success */
    68ac:	81 e0       	ldi	r24, 0x01	; 1
    68ae:	01 c0       	rjmp	.+2      	; 0x68b2 <MeasureInductor+0x256>
   /*
    *  calculate inductance
    *  L = t_stop * R_total * factor
    */

    Scale = -9;               /* nH by default */
    68b0:	80 e0       	ldi	r24, 0x00	; 0
    Inductor.Value = Value;
    Test = 1;                 /* signal success */
  }

  return Test;
}
    68b2:	24 96       	adiw	r28, 0x04	; 4
    68b4:	e0 e1       	ldi	r30, 0x10	; 16
    68b6:	0c 94 35 3f 	jmp	0x7e6a	; 0x7e6a <__epilogue_restores__+0x4>

000068ba <ProbePinout>:
 *    PROBES_ESR  ESR measurement
 *    PROBES_RCL  monitoring RCL
 */

void ProbePinout(uint8_t Mode)
{
    68ba:	cf 93       	push	r28
    68bc:	c8 2f       	mov	r28, r24
  uint8_t           ID_1 = 0;      /* character for probe #1 */
  uint8_t           ID_2 = 0;      /* character for probe #2 */
  uint8_t           ID_3 = 0;      /* character for probe #3 */

  LCD_ClearLine2();                /* info goes to line #2 */
    68be:	0e 94 8f 20 	call	0x411e	; 0x411e <LCD_ClearLine2>

  if (Mode == PROBES_PWM)          /* PWM signal */
    68c2:	cc 23       	and	r28, r28
    68c4:	41 f0       	breq	.+16     	; 0x68d6 <ProbePinout+0x1c>
    ID_1 = '-';
    ID_2 = 's';
    ID_3 = '-';
  }
  #ifdef SW_ESR_TOOL
  else if (Mode == PROBES_ESR)     /* ESR measurement */
    68c6:	c1 30       	cpi	r28, 0x01	; 1
    68c8:	51 f0       	breq	.+20     	; 0x68de <ProbePinout+0x24>
    ID_2 = 0;
    ID_3 = '-';
  }
  #endif
  #if defined (SW_MONITOR_R) || defined (SW_MONITOR_C) || defined (SW_MONITOR_L) || defined(SW_MONITOR_RCL) || defined(SW_MONITOR_RL)
  else if (Mode == PROBES_RCL)     /* monitoring RCL */
    68ca:	c2 30       	cpi	r28, 0x02	; 2
    68cc:	61 f4       	brne	.+24     	; 0x68e6 <ProbePinout+0x2c>
  {
    /* probe #1: * / probe #3: * */
    ID_1 = '*';
    ID_2 = 0;
    ID_3 = '*';
    68ce:	4a e2       	ldi	r20, 0x2A	; 42
  #if defined (SW_MONITOR_R) || defined (SW_MONITOR_C) || defined (SW_MONITOR_L) || defined(SW_MONITOR_RCL) || defined(SW_MONITOR_RL)
  else if (Mode == PROBES_RCL)     /* monitoring RCL */
  {
    /* probe #1: * / probe #3: * */
    ID_1 = '*';
    ID_2 = 0;
    68d0:	60 e0       	ldi	r22, 0x00	; 0
  #endif
  #if defined (SW_MONITOR_R) || defined (SW_MONITOR_C) || defined (SW_MONITOR_L) || defined(SW_MONITOR_RCL) || defined(SW_MONITOR_RL)
  else if (Mode == PROBES_RCL)     /* monitoring RCL */
  {
    /* probe #1: * / probe #3: * */
    ID_1 = '*';
    68d2:	8a e2       	ldi	r24, 0x2A	; 42
    68d4:	0b c0       	rjmp	.+22     	; 0x68ec <ProbePinout+0x32>
  if (Mode == PROBES_PWM)          /* PWM signal */
  {
    /* probe #1: Gnd / probe #2: signal / probe #3: Gnd */
    ID_1 = '-';
    ID_2 = 's';
    ID_3 = '-';
    68d6:	4d e2       	ldi	r20, 0x2D	; 45

  if (Mode == PROBES_PWM)          /* PWM signal */
  {
    /* probe #1: Gnd / probe #2: signal / probe #3: Gnd */
    ID_1 = '-';
    ID_2 = 's';
    68d8:	63 e7       	ldi	r22, 0x73	; 115
  LCD_ClearLine2();                /* info goes to line #2 */

  if (Mode == PROBES_PWM)          /* PWM signal */
  {
    /* probe #1: Gnd / probe #2: signal / probe #3: Gnd */
    ID_1 = '-';
    68da:	8d e2       	ldi	r24, 0x2D	; 45
    68dc:	07 c0       	rjmp	.+14     	; 0x68ec <ProbePinout+0x32>
  else if (Mode == PROBES_ESR)     /* ESR measurement */
  {
    /* probe #1: + / probe #3: - */
    ID_1 = '+';
    ID_2 = 0;
    ID_3 = '-';
    68de:	4d e2       	ldi	r20, 0x2D	; 45
  #ifdef SW_ESR_TOOL
  else if (Mode == PROBES_ESR)     /* ESR measurement */
  {
    /* probe #1: + / probe #3: - */
    ID_1 = '+';
    ID_2 = 0;
    68e0:	60 e0       	ldi	r22, 0x00	; 0
  }
  #ifdef SW_ESR_TOOL
  else if (Mode == PROBES_ESR)     /* ESR measurement */
  {
    /* probe #1: + / probe #3: - */
    ID_1 = '+';
    68e2:	8b e2       	ldi	r24, 0x2B	; 43
    68e4:	03 c0       	rjmp	.+6      	; 0x68ec <ProbePinout+0x32>

void ProbePinout(uint8_t Mode)
{
  uint8_t           ID_1 = 0;      /* character for probe #1 */
  uint8_t           ID_2 = 0;      /* character for probe #2 */
  uint8_t           ID_3 = 0;      /* character for probe #3 */
    68e6:	40 e0       	ldi	r20, 0x00	; 0
 */

void ProbePinout(uint8_t Mode)
{
  uint8_t           ID_1 = 0;      /* character for probe #1 */
  uint8_t           ID_2 = 0;      /* character for probe #2 */
    68e8:	60 e0       	ldi	r22, 0x00	; 0
 *    PROBES_RCL  monitoring RCL
 */

void ProbePinout(uint8_t Mode)
{
  uint8_t           ID_1 = 0;      /* character for probe #1 */
    68ea:	80 e0       	ldi	r24, 0x00	; 0
    ID_2 = 0;
    ID_3 = '*';
  }
  #endif

  Show_SimplePinout(ID_1, ID_2, ID_3);  /* display pinout */
    68ec:	0e 94 b3 0b 	call	0x1766	; 0x1766 <Show_SimplePinout>

  /* wait for any key press or 5s */
  TestKey(5000, CHECK_BAT);
    68f0:	60 e1       	ldi	r22, 0x10	; 16
    68f2:	88 e8       	ldi	r24, 0x88	; 136
    68f4:	93 e1       	ldi	r25, 0x13	; 19
    68f6:	0e 94 0b 14 	call	0x2816	; 0x2816 <TestKey>
  LCD_ClearLine2();                /* clear line #2 */
    68fa:	0e 94 8f 20 	call	0x411e	; 0x411e <LCD_ClearLine2>
}
    68fe:	cf 91       	pop	r28
    6900:	08 95       	ret

00006902 <Zener_Tool>:
 *  - uses dedicated analog input (TP_ZENER) with 10:1 voltage divider
 *  - test push button enables boost converter
 */

void Zener_Tool(void)
{
    6902:	cf 92       	push	r12
    6904:	df 92       	push	r13
    6906:	ef 92       	push	r14
    6908:	ff 92       	push	r15
    690a:	1f 93       	push	r17
    690c:	cf 93       	push	r28
    690e:	df 93       	push	r29
  #else
    #define SCALE   -1        /* 100mV resolution */
  #endif

  /* show info */
  LCD_Clear();
    6910:	0e 94 31 3b 	call	0x7662	; 0x7662 <LCD_Clear>
  Display_EEString(Zener_str);     /* display: Zener */
    6914:	89 e0       	ldi	r24, 0x09	; 9
    6916:	92 e0       	ldi	r25, 0x02	; 2
    6918:	0e 94 43 20 	call	0x4086	; 0x4086 <Display_EEString>
  Display_NextLine();
    691c:	0e 94 0b 20 	call	0x4016	; 0x4016 <Display_NextLine>
  Display_Char('-');               /* display "no value" */
    6920:	8d e2       	ldi	r24, 0x2D	; 45
    6922:	0e 94 8a 3b 	call	0x7714	; 0x7714 <LCD_Char>
{
  uint8_t                Run = 1;            /* control flag */
  uint8_t                Counter;            /* length of key press */
  uint8_t                Counter2 = 0;       /* time between two key presses */
  uint16_t               U1;                 /* current voltage */
  uint16_t               Min = UINT16_MAX;   /* minimal voltage */
    6926:	ee 24       	eor	r14, r14
    6928:	ea 94       	dec	r14
    692a:	fe 2c       	mov	r15, r14

void Zener_Tool(void)
{
  uint8_t                Run = 1;            /* control flag */
  uint8_t                Counter;            /* length of key press */
  uint8_t                Counter2 = 0;       /* time between two key presses */
    692c:	d0 e0       	ldi	r29, 0x00	; 0
 *  - test push button enables boost converter
 */

void Zener_Tool(void)
{
  uint8_t                Run = 1;            /* control flag */
    692e:	11 e0       	ldi	r17, 0x01	; 1
    /*
     *  manage timing
     */

    Counter = 0;              /* reset key press time */
    MilliSleep(30);           /* delay by 30ms */
    6930:	8e e1       	ldi	r24, 0x1E	; 30
    6932:	90 e0       	ldi	r25, 0x00	; 0
    6934:	0e 94 2e 17 	call	0x2e5c	; 0x2e5c <MilliSleep>
    Counter2++;               /* increase delay time counter */
    6938:	df 5f       	subi	r29, 0xFF	; 255
    if (Counter2 > 200)       /* prevent overflow & timer (about 6s) */
    693a:	d9 3c       	cpi	r29, 0xC9	; 201
    693c:	18 f0       	brcs	.+6      	; 0x6944 <Zener_Tool+0x42>
    {
      Counter2 = 10;          /* reset counter (above delay for quick key presses) */
      #ifndef BAT_NONE
      CheckBattery();         /* and check battery */
    693e:	0e 94 b9 12 	call	0x2572	; 0x2572 <CheckBattery>
    Counter = 0;              /* reset key press time */
    MilliSleep(30);           /* delay by 30ms */
    Counter2++;               /* increase delay time counter */
    if (Counter2 > 200)       /* prevent overflow & timer (about 6s) */
    {
      Counter2 = 10;          /* reset counter (above delay for quick key presses) */
    6942:	da e0       	ldi	r29, 0x0A	; 10
      /* timing */
      MilliSleep(30);              /* delay next run / also debounce by 30ms */
      Counter++;                   /* increase key press time counter */
      if (Counter > 100)           /* prevent overflow & timer (about 3s) */
      {
        Counter = 12;              /* reset counter (above time for short key press) */
    6944:	c0 e0       	ldi	r28, 0x00	; 0
     *  key press triggers measurement
     *  - also enables boost converter via hardware
     *  - two short key presses exit tool
     */

    while (!(BUTTON_PIN & (1 << TEST_BUTTON)))    /* as long as key is pressed */
    6946:	4f 99       	sbic	0x09, 7	; 9
    6948:	2a c0       	rjmp	.+84     	; 0x699e <Zener_Tool+0x9c>
    {
      /* get voltage (10:1 voltage divider) */
      U1 = ReadU(TP_ZENER);        /* read voltage (in mV) */
    694a:	83 e0       	ldi	r24, 0x03	; 3
    694c:	0e 94 b7 1b 	call	0x376e	; 0x376e <ReadU>
    6950:	6c 01       	movw	r12, r24
      #ifndef ZENER_HIGH_RES
      U1 /= 10;                    /* scale to 100mV */
      #endif

      /* display voltage */
      if (Counter % 8 == 0)        /* every 8 loop runs (240ms) */
    6952:	8c 2f       	mov	r24, r28
    6954:	87 70       	andi	r24, 0x07	; 7
    6956:	19 f0       	breq	.+6      	; 0x695e <Zener_Tool+0x5c>
      /* data hold */
      if (Counter == 0)            /* first loop run */
      {
        Min = UINT16_MAX;          /* reset minimum to default */
      }
      else if (Counter >= 10)      /* ensure stable voltage */
    6958:	ca 30       	cpi	r28, 0x0A	; 10
    695a:	90 f4       	brcc	.+36     	; 0x6980 <Zener_Tool+0x7e>
    695c:	15 c0       	rjmp	.+42     	; 0x6988 <Zener_Tool+0x86>
      #endif

      /* display voltage */
      if (Counter % 8 == 0)        /* every 8 loop runs (240ms) */
      {
        LCD_ClearLine2();               /* clear line #2 */
    695e:	0e 94 8f 20 	call	0x411e	; 0x411e <LCD_ClearLine2>
        Display_Value(U1, SCALE, 'V');  /* display current voltage */
    6962:	c6 01       	movw	r24, r12
    6964:	a0 e0       	ldi	r26, 0x00	; 0
    6966:	b0 e0       	ldi	r27, 0x00	; 0
    6968:	26 e5       	ldi	r18, 0x56	; 86
    696a:	4e ef       	ldi	r20, 0xFE	; 254
    696c:	bc 01       	movw	r22, r24
    696e:	cd 01       	movw	r24, r26
    6970:	0e 94 fa 20 	call	0x41f4	; 0x41f4 <Display_Value>
      }

      /* data hold */
      if (Counter == 0)            /* first loop run */
    6974:	c1 11       	cpse	r28, r1
    6976:	f0 cf       	rjmp	.-32     	; 0x6958 <Zener_Tool+0x56>
      {
        Min = UINT16_MAX;          /* reset minimum to default */
    6978:	ee 24       	eor	r14, r14
    697a:	ea 94       	dec	r14
    697c:	fe 2c       	mov	r15, r14
    697e:	04 c0       	rjmp	.+8      	; 0x6988 <Zener_Tool+0x86>
    6980:	ce 14       	cp	r12, r14
    6982:	df 04       	cpc	r13, r15
    6984:	08 f4       	brcc	.+2      	; 0x6988 <Zener_Tool+0x86>
    6986:	76 01       	movw	r14, r12
      {
        if (U1 < Min) Min = U1;    /* update minimum */
      }

      /* timing */
      MilliSleep(30);              /* delay next run / also debounce by 30ms */
    6988:	8e e1       	ldi	r24, 0x1E	; 30
    698a:	90 e0       	ldi	r25, 0x00	; 0
    698c:	0e 94 2e 17 	call	0x2e5c	; 0x2e5c <MilliSleep>
      Counter++;                   /* increase key press time counter */
    6990:	cf 5f       	subi	r28, 0xFF	; 255
      if (Counter > 100)           /* prevent overflow & timer (about 3s) */
    6992:	c5 36       	cpi	r28, 0x65	; 101
    6994:	c0 f2       	brcs	.-80     	; 0x6946 <Zener_Tool+0x44>
      {
        Counter = 12;              /* reset counter (above time for short key press) */
        #ifndef BAT_NONE
        CheckBattery();            /* and check battery */
    6996:	0e 94 b9 12 	call	0x2572	; 0x2572 <CheckBattery>
      /* timing */
      MilliSleep(30);              /* delay next run / also debounce by 30ms */
      Counter++;                   /* increase key press time counter */
      if (Counter > 100)           /* prevent overflow & timer (about 3s) */
      {
        Counter = 12;              /* reset counter (above time for short key press) */
    699a:	cc e0       	ldi	r28, 0x0C	; 12
    699c:	d4 cf       	rjmp	.-88     	; 0x6946 <Zener_Tool+0x44>

    /*
     *  user interface logic
     */

    if (Counter > 0)                         /* key was pressed */
    699e:	cc 23       	and	r28, r28
    69a0:	39 f2       	breq	.-114    	; 0x6930 <Zener_Tool+0x2e>
    {
      /* detect two quick key presses */
      if (Run == 2)                          /* flag for short key press set */
    69a2:	12 30       	cpi	r17, 0x02	; 2
    69a4:	29 f4       	brne	.+10     	; 0x69b0 <Zener_Tool+0xae>
        {
          Run = 0;                           /* end loop */
        }
        else                                 /* long delay between key presses */
        {
          Run = 1;                           /* reset flag */
    69a6:	11 e0       	ldi	r17, 0x01	; 1
    69a8:	d9 30       	cpi	r29, 0x09	; 9
    69aa:	28 f4       	brcc	.+10     	; 0x69b6 <Zener_Tool+0xb4>
    69ac:	10 e0       	ldi	r17, 0x00	; 0
    69ae:	03 c0       	rjmp	.+6      	; 0x69b6 <Zener_Tool+0xb4>
        }
      }
      else                                   /* flag not set */
      {
        if (Counter <= 10)                   /* short key press <= 300ms */
    69b0:	cb 30       	cpi	r28, 0x0B	; 11
    69b2:	08 f4       	brcc	.+2      	; 0x69b6 <Zener_Tool+0xb4>
        {
          Run = 2;                           /* set flag */
    69b4:	12 e0       	ldi	r17, 0x02	; 2
        }
      }

      /* display hold value */
      LCD_ClearLine2();
    69b6:	0e 94 8f 20 	call	0x411e	; 0x411e <LCD_ClearLine2>

      if (Min != UINT16_MAX)       /* got updated value */
    69ba:	8f ef       	ldi	r24, 0xFF	; 255
    69bc:	e8 16       	cp	r14, r24
    69be:	f8 06       	cpc	r15, r24
    69c0:	81 f0       	breq	.+32     	; 0x69e2 <Zener_Tool+0xe0>
      {
        Display_Value(Min, SCALE, 'V');    /* display minimal voltage */
    69c2:	c7 01       	movw	r24, r14
    69c4:	a0 e0       	ldi	r26, 0x00	; 0
    69c6:	b0 e0       	ldi	r27, 0x00	; 0
    69c8:	26 e5       	ldi	r18, 0x56	; 86
    69ca:	4e ef       	ldi	r20, 0xFE	; 254
    69cc:	bc 01       	movw	r22, r24
    69ce:	cd 01       	movw	r24, r26
    69d0:	0e 94 fa 20 	call	0x41f4	; 0x41f4 <Display_Value>
        Display_Space();
    69d4:	0e 94 6e 20 	call	0x40dc	; 0x40dc <Display_Space>
        Display_EEString(Min_str);         /* display: Min */
    69d8:	85 e0       	ldi	r24, 0x05	; 5
    69da:	92 e0       	ldi	r25, 0x02	; 2
    69dc:	0e 94 43 20 	call	0x4086	; 0x4086 <Display_EEString>
    69e0:	03 c0       	rjmp	.+6      	; 0x69e8 <Zener_Tool+0xe6>
      }
      else                         /* unchanged default */
      {
        Display_Char('-');                 /* display "no value" */
    69e2:	8d e2       	ldi	r24, 0x2D	; 45
    69e4:	0e 94 8a 3b 	call	0x7714	; 0x7714 <LCD_Char>

  /*
   *  processing loop
   */

  while (Run > 0)
    69e8:	11 23       	and	r17, r17
    69ea:	11 f0       	breq	.+4      	; 0x69f0 <Zener_Tool+0xee>
    69ec:	d0 e0       	ldi	r29, 0x00	; 0
    69ee:	a0 cf       	rjmp	.-192    	; 0x6930 <Zener_Tool+0x2e>
    }
  }

  /* clean up */
  #undef SCALE
}
    69f0:	df 91       	pop	r29
    69f2:	cf 91       	pop	r28
    69f4:	1f 91       	pop	r17
    69f6:	ff 90       	pop	r15
    69f8:	ef 90       	pop	r14
    69fa:	df 90       	pop	r13
    69fc:	cf 90       	pop	r12
    69fe:	08 95       	ret

00006a00 <ESR_Tool>:
  uint8_t           Run = 1;       /* control flag */
  uint8_t           Test;          /* temp. value */
  Capacitor_Type    *Cap;          /* pointer to cap */
  uint16_t          ESR;           /* ESR (in 0.01 Ohms) */

  Check.Diodes = 0;                /* disable diode check in cap measurement */
    6a00:	10 92 0b 01 	sts	0x010B, r1	; 0x80010b <__data_end+0x5>
                                   /* ADC_PORT should be 0 */
  ADC_DDR = (1 << TP_REF);         /* disable relay */
  #endif

  /* show tool info */
  LCD_Clear();
    6a04:	0e 94 31 3b 	call	0x7662	; 0x7662 <LCD_Clear>
  Display_EEString(ESR_str);       /* display: ESR */
    6a08:	83 e1       	ldi	r24, 0x13	; 19
    6a0a:	91 e0       	ldi	r25, 0x01	; 1
    6a0c:	0e 94 43 20 	call	0x4086	; 0x4086 <Display_EEString>
  ProbePinout(PROBES_ESR);         /* show probes used */
    6a10:	81 e0       	ldi	r24, 0x01	; 1
    6a12:	0e 94 5d 34 	call	0x68ba	; 0x68ba <ProbePinout>
  Display_Char('-');               /* display "no value" */
    6a16:	8d e2       	ldi	r24, 0x2D	; 45
    6a18:	0e 94 8a 3b 	call	0x7714	; 0x7714 <LCD_Char>
     *  short or long key press -> measure
     *  two short key presses -> exit tool
     */

    /* wait for user feedback */
    Test = TestKey(0, CURSOR_BLINK | CHECK_KEY_TWICE | CHECK_BAT);
    6a1c:	6a e1       	ldi	r22, 0x1A	; 26
    6a1e:	80 e0       	ldi	r24, 0x00	; 0
    6a20:	90 e0       	ldi	r25, 0x00	; 0
    6a22:	0e 94 0b 14 	call	0x2816	; 0x2816 <TestKey>

    if (Test == KEY_TWICE)              /* two short key presses */
    6a26:	83 30       	cpi	r24, 0x03	; 3
    6a28:	09 f4       	brne	.+2      	; 0x6a2c <ESR_Tool+0x2c>
    6a2a:	08 95       	ret
      /* discharge relay: remove short circuit */
                                        /* ADC_PORT should be 0 */
      ADC_DDR = 0;                      /* enable relay (via extrenal reference) */
      #endif

      LCD_ClearLine2();                 /* update line #2 */
    6a2c:	0e 94 8f 20 	call	0x411e	; 0x411e <LCD_ClearLine2>
      Display_EEString(Probing_str);    /* display: probing... */
    6a30:	8f ed       	ldi	r24, 0xDF	; 223
    6a32:	92 e0       	ldi	r25, 0x02	; 2
    6a34:	0e 94 43 20 	call	0x4086	; 0x4086 <Display_EEString>
      MeasureCap(PROBE_1, PROBE_3, 0);  /* probe-1 = Vcc, probe-3 = Gnd */
    6a38:	40 e0       	ldi	r20, 0x00	; 0
    6a3a:	62 e0       	ldi	r22, 0x02	; 2
    6a3c:	80 e0       	ldi	r24, 0x00	; 0
    6a3e:	0e 94 80 29 	call	0x5300	; 0x5300 <MeasureCap>
      LCD_ClearLine2();                 /* update line #2 */
    6a42:	0e 94 8f 20 	call	0x411e	; 0x411e <LCD_ClearLine2>
      
      if (Check.Found == COMP_CAPACITOR)     /* found capacitor */
    6a46:	80 91 06 01 	lds	r24, 0x0106	; 0x800106 <__data_end>
    6a4a:	8b 30       	cpi	r24, 0x0B	; 11
    6a4c:	21 f7       	brne	.-56     	; 0x6a16 <ESR_Tool+0x16>
      {
        /* show capacitance */
        Display_Value(Cap->Value, Cap->Scale, 'F');
    6a4e:	60 91 52 01 	lds	r22, 0x0152	; 0x800152 <Caps+0x3>
    6a52:	70 91 53 01 	lds	r23, 0x0153	; 0x800153 <Caps+0x4>
    6a56:	80 91 54 01 	lds	r24, 0x0154	; 0x800154 <Caps+0x5>
    6a5a:	90 91 55 01 	lds	r25, 0x0155	; 0x800155 <Caps+0x6>
    6a5e:	26 e4       	ldi	r18, 0x46	; 70
    6a60:	40 91 51 01 	lds	r20, 0x0151	; 0x800151 <Caps+0x2>
    6a64:	0e 94 fa 20 	call	0x41f4	; 0x41f4 <Display_Value>

        /* show ESR */
        Display_Space();
    6a68:	0e 94 6e 20 	call	0x40dc	; 0x40dc <Display_Space>
        ESR = MeasureESR(Cap);
    6a6c:	8f e4       	ldi	r24, 0x4F	; 79
    6a6e:	91 e0       	ldi	r25, 0x01	; 1
    6a70:	0e 94 ae 25 	call	0x4b5c	; 0x4b5c <MeasureESR>
        if (ESR < UINT16_MAX)           /* got valid ESR */
    6a74:	8f 3f       	cpi	r24, 0xFF	; 255
    6a76:	2f ef       	ldi	r18, 0xFF	; 255
    6a78:	92 07       	cpc	r25, r18
    6a7a:	69 f2       	breq	.-102    	; 0x6a16 <ESR_Tool+0x16>
        {
          Display_Value(ESR, -2, LCD_CHAR_OMEGA);
    6a7c:	bc 01       	movw	r22, r24
    6a7e:	80 e0       	ldi	r24, 0x00	; 0
    6a80:	90 e0       	ldi	r25, 0x00	; 0
    6a82:	24 e0       	ldi	r18, 0x04	; 4
    6a84:	4e ef       	ldi	r20, 0xFE	; 254
    6a86:	0e 94 fa 20 	call	0x41f4	; 0x41f4 <Display_Value>
    6a8a:	c8 cf       	rjmp	.-112    	; 0x6a1c <ESR_Tool+0x1c>

00006a8c <Cap_Leakage>:
 *  - uses probe #1 (pos) and probe #3 (neg)
 *  - requires display with more than 2 lines
 */

void Cap_Leakage(void)
{
    6a8c:	a0 e0       	ldi	r26, 0x00	; 0
    6a8e:	b0 e0       	ldi	r27, 0x00	; 0
    6a90:	ec e4       	ldi	r30, 0x4C	; 76
    6a92:	f5 e3       	ldi	r31, 0x35	; 53
    6a94:	0c 94 21 3f 	jmp	0x7e42	; 0x7e42 <__prologue_saves__+0x14>
  #define MODE_HIGH           1         /* charge cap: high current */
  #define MODE_LOW            2         /* charge cap: low current */
  #define MODE_DISCHARGE      3         /* discharge cap */

  /* show info */
  LCD_Clear();                          /* clear display */
    6a98:	0e 94 31 3b 	call	0x7662	; 0x7662 <LCD_Clear>
  Display_EEString(CapLeak_str);        /* display: cap leakage */
    6a9c:	87 ee       	ldi	r24, 0xE7	; 231
    6a9e:	91 e0       	ldi	r25, 0x01	; 1
    6aa0:	0e 94 43 20 	call	0x4086	; 0x4086 <Display_EEString>

  /* set start values */
  Flag = RUN_FLAG | CHANGED_MODE;
  Mode = MODE_NONE;

  UpdateProbes(PROBE_1, 0, PROBE_3);    /* update register bits and probes */
    6aa4:	42 e0       	ldi	r20, 0x02	; 2
    6aa6:	60 e0       	ldi	r22, 0x00	; 0
    6aa8:	80 e0       	ldi	r24, 0x00	; 0
    6aaa:	0e 94 2a 1c 	call	0x3854	; 0x3854 <UpdateProbes>
void Cap_Leakage(void)
{
  uint8_t           Flag;               /* loop control flag */
  uint8_t           Test = 0;           /* user feedback */
  uint8_t           Mode;               /* mode */
  uint16_t          U1 = 0;             /* voltage #1 */
    6aae:	00 e0       	ldi	r16, 0x00	; 0
    6ab0:	10 e0       	ldi	r17, 0x00	; 0
  LCD_Clear();                          /* clear display */
  Display_EEString(CapLeak_str);        /* display: cap leakage */

  /* set start values */
  Flag = RUN_FLAG | CHANGED_MODE;
  Mode = MODE_NONE;
    6ab2:	c0 e0       	ldi	r28, 0x00	; 0
  /* show info */
  LCD_Clear();                          /* clear display */
  Display_EEString(CapLeak_str);        /* display: cap leakage */

  /* set start values */
  Flag = RUN_FLAG | CHANGED_MODE;
    6ab4:	d5 e0       	ldi	r29, 0x05	; 5
          {
            /* calculate current: I = U / R */
            Value = U1;                        /* in mV */
            Value *= 10000;                    /* scale to 0.1 V */
            Value /= (R_HIGH / 1000);          /* 0.1 V / kOhms = 0.1 nA */
            Display_Value(Value, -10, 'A');    /* display current */
    6ab6:	86 ed       	ldi	r24, 0xD6	; 214
    6ab8:	c8 2e       	mov	r12, r24
    6aba:	dd 24       	eor	r13, r13
    6abc:	d3 94       	inc	r13
    6abe:	e1 2c       	mov	r14, r1
    6ac0:	f1 2c       	mov	r15, r1
  {
    /*
     *  display mode and set probes
     */

    if (Flag & CHANGED_MODE)       /* mode has changed */
    6ac2:	8d 2f       	mov	r24, r29
    6ac4:	84 70       	andi	r24, 0x04	; 4
    6ac6:	09 f4       	brne	.+2      	; 0x6aca <Cap_Leakage+0x3e>
    6ac8:	cd c0       	rjmp	.+410    	; 0x6c64 <Cap_Leakage+0x1d8>
    {
      LCD_ClearLine2();            /* clear line #2 */
    6aca:	0e 94 8f 20 	call	0x411e	; 0x411e <LCD_ClearLine2>

      switch (Mode)                /* based on mode */
    6ace:	c1 30       	cpi	r28, 0x01	; 1
    6ad0:	e1 f0       	breq	.+56     	; 0x6b0a <Cap_Leakage+0x7e>
    6ad2:	88 f0       	brcs	.+34     	; 0x6af6 <Cap_Leakage+0x6a>
    6ad4:	c2 30       	cpi	r28, 0x02	; 2
    6ad6:	59 f1       	breq	.+86     	; 0x6b2e <Cap_Leakage+0xa2>
    6ad8:	c3 30       	cpi	r28, 0x03	; 3
    6ada:	a9 f5       	brne	.+106    	; 0x6b46 <Cap_Leakage+0xba>
          /* simply switch pull-down resistor Rl to Rh */
          R_DDR = Probes.Rh_3;          /* select Rh for probe-3 */
          break;

        case MODE_DISCHARGE:       /* discharge cap */
          Display_EEString(CapDischarge_str);
    6adc:	8c ec       	ldi	r24, 0xCC	; 204
    6ade:	91 e0       	ldi	r25, 0x01	; 1
    6ae0:	0e 94 43 20 	call	0x4086	; 0x4086 <Display_EEString>
          /* set probes: probe-3 -- Gnd / probe-1 -- Rl -- Gnd */
          ADC_DDR = 0;                  /* set to HiZ */
    6ae4:	17 b8       	out	0x07, r1	; 7
          R_DDR = Probes.Rl_1;          /* select Rl for probe-1 */
    6ae6:	80 91 d1 01 	lds	r24, 0x01D1	; 0x8001d1 <Probes+0x6>
    6aea:	84 b9       	out	0x04, r24	; 4
          /* R_PORT set to 0 already: pull down probe-1 via Rl */
          ADC_DDR = Probes.Pin_3;       /* set probe-3 to output */
    6aec:	80 91 d9 01 	lds	r24, 0x01D9	; 0x8001d9 <Probes+0xe>
    6af0:	87 b9       	out	0x07, r24	; 7
          ADC_PORT = 0;                 /* pull down probe-3 directly */
    6af2:	18 b8       	out	0x08, r1	; 8
          break;
    6af4:	ba c0       	rjmp	.+372    	; 0x6c6a <Cap_Leakage+0x1de>

      switch (Mode)                /* based on mode */
      {
        case MODE_NONE:            /* display pinout */
          /* probe-1: Vcc / probe-3: Gnd */
          Show_SimplePinout('+', 0, '-');
    6af6:	4d e2       	ldi	r20, 0x2D	; 45
    6af8:	60 e0       	ldi	r22, 0x00	; 0
    6afa:	8b e2       	ldi	r24, 0x2B	; 43
    6afc:	0e 94 b3 0b 	call	0x1766	; 0x1766 <Show_SimplePinout>
          LCD_ClearLine(3);             /* clear line #3 */
    6b00:	83 e0       	ldi	r24, 0x03	; 3
    6b02:	0e 94 ca 3a 	call	0x7594	; 0x7594 <LCD_ClearLine>
          ADC_DDR = Probes.Pin_3;       /* set probe-3 to output */
          ADC_PORT = 0;                 /* pull down probe-3 directly */
          break;
      }

      Flag &= ~CHANGED_MODE;       /* clear flag */
    6b06:	d1 e0       	ldi	r29, 0x01	; 1
    6b08:	94 c0       	rjmp	.+296    	; 0x6c32 <Cap_Leakage+0x1a6>
          Show_SimplePinout('+', 0, '-');
          LCD_ClearLine(3);             /* clear line #3 */
          break;

        case MODE_HIGH:            /* charge cap with high current (Rl) */
          Display_EEString_Space(CapCharge_str);
    6b0a:	8e ed       	ldi	r24, 0xDE	; 222
    6b0c:	91 e0       	ldi	r25, 0x01	; 1
    6b0e:	0e 94 72 20 	call	0x40e4	; 0x40e4 <Display_EEString_Space>
          Display_EEString(CapHigh_str);
    6b12:	8b ed       	ldi	r24, 0xDB	; 219
    6b14:	91 e0       	ldi	r25, 0x01	; 1
    6b16:	0e 94 43 20 	call	0x4086	; 0x4086 <Display_EEString>

          /* set probes: probe-3 -- Rl -- Gnd / probe-1 -- Vcc */
          ADC_DDR = 0;                  /* set to HiZ */
    6b1a:	17 b8       	out	0x07, r1	; 7
          R_DDR = Probes.Rl_3;          /* select Rl for probe-3 */
    6b1c:	80 91 d3 01 	lds	r24, 0x01D3	; 0x8001d3 <Probes+0x8>
    6b20:	84 b9       	out	0x04, r24	; 4
          R_PORT = 0;                   /* pull down probe-3 via Rl */
    6b22:	15 b8       	out	0x05, r1	; 5
          ADC_PORT = Probes.Pin_1;      /* pull up probe-1 directly */
    6b24:	80 91 d7 01 	lds	r24, 0x01D7	; 0x8001d7 <Probes+0xc>
    6b28:	88 b9       	out	0x08, r24	; 8
          ADC_DDR = Probes.Pin_1;       /* enable pull-up of probe-1 */
    6b2a:	87 b9       	out	0x07, r24	; 7
          break;
    6b2c:	9e c0       	rjmp	.+316    	; 0x6c6a <Cap_Leakage+0x1de>

        case MODE_LOW:             /* charge cap with low current (Rh) */
          /* max. charge current I = 5V/Rh = 10.6A */
          Display_EEString_Space(CapCharge_str);
    6b2e:	8e ed       	ldi	r24, 0xDE	; 222
    6b30:	91 e0       	ldi	r25, 0x01	; 1
    6b32:	0e 94 72 20 	call	0x40e4	; 0x40e4 <Display_EEString_Space>
          Display_EEString(CapLow_str);
    6b36:	88 ed       	ldi	r24, 0xD8	; 216
    6b38:	91 e0       	ldi	r25, 0x01	; 1
    6b3a:	0e 94 43 20 	call	0x4086	; 0x4086 <Display_EEString>

          /* set probes: probe-3 -- Rh -- Gnd / probe-1 -- Vcc */
          /* simply switch pull-down resistor Rl to Rh */
          R_DDR = Probes.Rh_3;          /* select Rh for probe-3 */
    6b3e:	80 91 d6 01 	lds	r24, 0x01D6	; 0x8001d6 <Probes+0xb>
    6b42:	84 b9       	out	0x04, r24	; 4
          break;
    6b44:	92 c0       	rjmp	.+292    	; 0x6c6a <Cap_Leakage+0x1de>
          ADC_DDR = Probes.Pin_3;       /* set probe-3 to output */
          ADC_PORT = 0;                 /* pull down probe-3 directly */
          break;
      }

      Flag &= ~CHANGED_MODE;       /* clear flag */
    6b46:	d1 e0       	ldi	r29, 0x01	; 1

    /*
     *  manage modes
     */

    if (Mode != MODE_NONE)
    6b48:	cc 23       	and	r28, r28
    6b4a:	09 f4       	brne	.+2      	; 0x6b4e <Cap_Leakage+0xc2>
    6b4c:	72 c0       	rjmp	.+228    	; 0x6c32 <Cap_Leakage+0x1a6>
    {
      LCD_ClearLine(3);            /* clear line #3 */
    6b4e:	83 e0       	ldi	r24, 0x03	; 3
    6b50:	0e 94 ca 3a 	call	0x7594	; 0x7594 <LCD_ClearLine>
      LCD_CharPos(1, 3);           /* move to line #3 */
    6b54:	63 e0       	ldi	r22, 0x03	; 3
    6b56:	81 e0       	ldi	r24, 0x01	; 1
    6b58:	0e 94 9f 3a 	call	0x753e	; 0x753e <LCD_CharPos>

      switch (Mode)                /* based on mode */
    6b5c:	c2 30       	cpi	r28, 0x02	; 2
    6b5e:	39 f1       	breq	.+78     	; 0x6bae <Cap_Leakage+0x122>
    6b60:	c3 30       	cpi	r28, 0x03	; 3
    6b62:	09 f4       	brne	.+2      	; 0x6b66 <Cap_Leakage+0xda>
    6b64:	40 c0       	rjmp	.+128    	; 0x6be6 <Cap_Leakage+0x15a>
    6b66:	c1 30       	cpi	r28, 0x01	; 1
    6b68:	09 f0       	breq	.+2      	; 0x6b6c <Cap_Leakage+0xe0>
    6b6a:	4e c0       	rjmp	.+156    	; 0x6c08 <Cap_Leakage+0x17c>
      {
        case MODE_HIGH:            /* charge cap with high current (Rl) */
          /* voltage across Rl and RiL at probe-3 */
          U1 = ReadU(Probes.Ch_3);           /* read voltage at probe-3 */
    6b6c:	80 91 dc 01 	lds	r24, 0x01DC	; 0x8001dc <Probes+0x11>
    6b70:	0e 94 b7 1b 	call	0x376e	; 0x376e <ReadU>
    6b74:	8c 01       	movw	r16, r24

          /* calculate current: I = U / R (ignore R_Zero) */
          Value = U1;                        /* U across Rl and RiL in mV */
          Value *= 100000;                   /* scale to 0.01 V */
    6b76:	dc 01       	movw	r26, r24
    6b78:	20 ea       	ldi	r18, 0xA0	; 160
    6b7a:	36 e8       	ldi	r19, 0x86	; 134
    6b7c:	41 e0       	ldi	r20, 0x01	; 1
    6b7e:	50 e0       	ldi	r21, 0x00	; 0
    6b80:	0e 94 0c 3f 	call	0x7e18	; 0x7e18 <__muluhisi3>
          Value /= ((R_LOW * 10) + NV.RiL);  /* 0.01 V / 0.1 Ohms = 0.1 A */
          Display_Value(Value, -7, 'A');     /* display current */
    6b84:	20 91 dd 01 	lds	r18, 0x01DD	; 0x8001dd <NV>
    6b88:	30 91 de 01 	lds	r19, 0x01DE	; 0x8001de <NV+0x1>
    6b8c:	20 57       	subi	r18, 0x70	; 112
    6b8e:	35 4e       	sbci	r19, 0xE5	; 229
    6b90:	40 e0       	ldi	r20, 0x00	; 0
    6b92:	50 e0       	ldi	r21, 0x00	; 0
    6b94:	0e 94 af 3e 	call	0x7d5e	; 0x7d5e <__udivmodsi4>
    6b98:	ca 01       	movw	r24, r20
    6b9a:	b9 01       	movw	r22, r18
    6b9c:	21 e4       	ldi	r18, 0x41	; 65
    6b9e:	49 ef       	ldi	r20, 0xF9	; 249
    6ba0:	0e 94 fa 20 	call	0x41f4	; 0x41f4 <Display_Value>

          /* change to low current mode when current is quite low */
          if (U1 <= 3)                       /* I <= 4.2A */
    6ba4:	04 30       	cpi	r16, 0x04	; 4
    6ba6:	11 05       	cpc	r17, r1
    6ba8:	78 f5       	brcc	.+94     	; 0x6c08 <Cap_Leakage+0x17c>
          {
            Mode = MODE_LOW;                 /* low current mode */
    6baa:	c2 e0       	ldi	r28, 0x02	; 2
    6bac:	2c c0       	rjmp	.+88     	; 0x6c06 <Cap_Leakage+0x17a>
          }
          break;

        case MODE_LOW:             /* charge cap with low current (Rh) */
          /* voltage across Rh at probe-3 (ignore RiL) */
          U1 = ReadU(Probes.Ch_3);           /* read voltage at probe-3 */
    6bae:	80 91 dc 01 	lds	r24, 0x01DC	; 0x8001dc <Probes+0x11>
    6bb2:	0e 94 b7 1b 	call	0x376e	; 0x376e <ReadU>
    6bb6:	8c 01       	movw	r16, r24

          if (U1 > CAP_DISCHARGED)      /* minimum exceeded */
    6bb8:	83 30       	cpi	r24, 0x03	; 3
    6bba:	91 05       	cpc	r25, r1
    6bbc:	80 f0       	brcs	.+32     	; 0x6bde <Cap_Leakage+0x152>
          {
            /* calculate current: I = U / R */
            Value = U1;                        /* in mV */
            Value *= 10000;                    /* scale to 0.1 V */
    6bbe:	9c 01       	movw	r18, r24
    6bc0:	a0 e1       	ldi	r26, 0x10	; 16
    6bc2:	b7 e2       	ldi	r27, 0x27	; 39
    6bc4:	0e 94 f6 3e 	call	0x7dec	; 0x7dec <__umulhisi3>
            Value /= (R_HIGH / 1000);          /* 0.1 V / kOhms = 0.1 nA */
            Display_Value(Value, -10, 'A');    /* display current */
    6bc8:	a7 01       	movw	r20, r14
    6bca:	96 01       	movw	r18, r12
    6bcc:	0e 94 af 3e 	call	0x7d5e	; 0x7d5e <__udivmodsi4>
    6bd0:	ca 01       	movw	r24, r20
    6bd2:	b9 01       	movw	r22, r18
    6bd4:	21 e4       	ldi	r18, 0x41	; 65
    6bd6:	46 ef       	ldi	r20, 0xF6	; 246
    6bd8:	0e 94 fa 20 	call	0x41f4	; 0x41f4 <Display_Value>
    6bdc:	15 c0       	rjmp	.+42     	; 0x6c08 <Cap_Leakage+0x17c>
          }
          else                          /* in the noise floor */
          {
            Display_Char('-');
    6bde:	8d e2       	ldi	r24, 0x2D	; 45
    6be0:	0e 94 8a 3b 	call	0x7714	; 0x7714 <LCD_Char>
    6be4:	11 c0       	rjmp	.+34     	; 0x6c08 <Cap_Leakage+0x17c>
          }
          break;

        case MODE_DISCHARGE:       /* discharge cap */
          /* voltage at cap (probe-1) */
          U1 = ReadU(Probes.Ch_1);           /* read voltage at probe-1 */
    6be6:	80 91 da 01 	lds	r24, 0x01DA	; 0x8001da <Probes+0xf>
    6bea:	0e 94 b7 1b 	call	0x376e	; 0x376e <ReadU>
    6bee:	8c 01       	movw	r16, r24
          Display_Value(U1, -3, 'V');        /* display voltage */
    6bf0:	bc 01       	movw	r22, r24
    6bf2:	80 e0       	ldi	r24, 0x00	; 0
    6bf4:	90 e0       	ldi	r25, 0x00	; 0
    6bf6:	26 e5       	ldi	r18, 0x56	; 86
    6bf8:	4d ef       	ldi	r20, 0xFD	; 253
    6bfa:	0e 94 fa 20 	call	0x41f4	; 0x41f4 <Display_Value>

          /* check if cap is discharged */
          if (U1 <= CAP_DISCHARGED)          /* < threshold */
    6bfe:	03 30       	cpi	r16, 0x03	; 3
    6c00:	11 05       	cpc	r17, r1
    6c02:	10 f4       	brcc	.+4      	; 0x6c08 <Cap_Leakage+0x17c>
          {
            /* start new check cycle */
            Mode = MODE_NONE;                /* show pinout */
    6c04:	c0 e0       	ldi	r28, 0x00	; 0
            Flag |= CHANGED_MODE;            /* set flag for changed mode */
    6c06:	d5 e0       	ldi	r29, 0x05	; 5
          }
          break;
      }

      /* common display output */
      if ((Mode == MODE_HIGH) || (Mode == MODE_LOW))
    6c08:	8f ef       	ldi	r24, 0xFF	; 255
    6c0a:	8c 0f       	add	r24, r28
    6c0c:	82 30       	cpi	r24, 0x02	; 2
    6c0e:	88 f4       	brcc	.+34     	; 0x6c32 <Cap_Leakage+0x1a6>
      {
        /* display voltage across current shunt (Rl or Rh) */
        Display_Space();
    6c10:	0e 94 6e 20 	call	0x40dc	; 0x40dc <Display_Space>
        Display_Char('(');
    6c14:	88 e2       	ldi	r24, 0x28	; 40
    6c16:	0e 94 8a 3b 	call	0x7714	; 0x7714 <LCD_Char>
        Display_Value(U1, -3, 'V');          /* display voltage */
    6c1a:	c8 01       	movw	r24, r16
    6c1c:	a0 e0       	ldi	r26, 0x00	; 0
    6c1e:	b0 e0       	ldi	r27, 0x00	; 0
    6c20:	26 e5       	ldi	r18, 0x56	; 86
    6c22:	4d ef       	ldi	r20, 0xFD	; 253
    6c24:	bc 01       	movw	r22, r24
    6c26:	cd 01       	movw	r24, r26
    6c28:	0e 94 fa 20 	call	0x41f4	; 0x41f4 <Display_Value>
        Display_Char(')');
    6c2c:	89 e2       	ldi	r24, 0x29	; 41
    6c2e:	0e 94 8a 3b 	call	0x7714	; 0x7714 <LCD_Char>
     *  user feedback
     *  - short key press -> next step
     *  - two short key presses -> exit tool
     */

    if (! (Flag & CHANGED_MODE))        /* skip when mode has changed */
    6c32:	8d 2f       	mov	r24, r29
    6c34:	84 70       	andi	r24, 0x04	; 4
    6c36:	09 f0       	breq	.+2      	; 0x6c3a <Cap_Leakage+0x1ae>
    6c38:	44 cf       	rjmp	.-376    	; 0x6ac2 <Cap_Leakage+0x36>
    {
      /* wait for user feedback or timeout of 2s */
      Test = TestKey(2000, CHECK_KEY_TWICE | CHECK_BAT);
    6c3a:	68 e1       	ldi	r22, 0x18	; 24
    6c3c:	80 ed       	ldi	r24, 0xD0	; 208
    6c3e:	97 e0       	ldi	r25, 0x07	; 7
    6c40:	0e 94 0b 14 	call	0x2816	; 0x2816 <TestKey>
      /* also delay for next loop run */

      if (Test == KEY_SHORT)            /* short key press */
    6c44:	81 30       	cpi	r24, 0x01	; 1
    6c46:	39 f0       	breq	.+14     	; 0x6c56 <Cap_Leakage+0x1ca>
      {
        Test = 100;                     /* next mode */
      }
      else if (Test == KEY_TWICE)       /* two short key presses */
    6c48:	83 30       	cpi	r24, 0x03	; 3
    6c4a:	89 f0       	breq	.+34     	; 0x6c6e <Cap_Leakage+0x1e2>
      {
        Flag = 0;                       /* end processing loop */
      }
      #ifdef HW_KEYS
      else if (Test == KEY_RIGHT)       /* right key */
    6c4c:	84 30       	cpi	r24, 0x04	; 4
    6c4e:	19 f0       	breq	.+6      	; 0x6c56 <Cap_Leakage+0x1ca>
      {
        Test = 100;                     /* next mode */
      }
      #endif

      if (Test == 100)                  /* next mode */
    6c50:	84 36       	cpi	r24, 0x64	; 100
    6c52:	09 f0       	breq	.+2      	; 0x6c56 <Cap_Leakage+0x1ca>
    6c54:	36 cf       	rjmp	.-404    	; 0x6ac2 <Cap_Leakage+0x36>
      {
        /* change mode */
        if (Mode == MODE_NONE)          /* pinout mode */
    6c56:	c1 11       	cpse	r28, r1
    6c58:	02 c0       	rjmp	.+4      	; 0x6c5e <Cap_Leakage+0x1d2>
        {
          Mode = MODE_HIGH;             /* charge cap with high current */
    6c5a:	c1 e0       	ldi	r28, 0x01	; 1
    6c5c:	01 c0       	rjmp	.+2      	; 0x6c60 <Cap_Leakage+0x1d4>
          Flag |= CHANGED_MODE;         /* set flag for changed mode */
        }
        else                            /* any other mode */
        {
          Mode = MODE_DISCHARGE;        /* discharge cap */
    6c5e:	c3 e0       	ldi	r28, 0x03	; 3
          Flag |= CHANGED_MODE;         /* set flag for changed mode */
    6c60:	d5 e0       	ldi	r29, 0x05	; 5
    6c62:	2f cf       	rjmp	.-418    	; 0x6ac2 <Cap_Leakage+0x36>

    /*
     *  manage modes
     */

    if (Mode != MODE_NONE)
    6c64:	c1 11       	cpse	r28, r1
    6c66:	73 cf       	rjmp	.-282    	; 0x6b4e <Cap_Leakage+0xc2>
    6c68:	e8 cf       	rjmp	.-48     	; 0x6c3a <Cap_Leakage+0x1ae>
          ADC_DDR = Probes.Pin_3;       /* set probe-3 to output */
          ADC_PORT = 0;                 /* pull down probe-3 directly */
          break;
      }

      Flag &= ~CHANGED_MODE;       /* clear flag */
    6c6a:	d1 e0       	ldi	r29, 0x01	; 1
    6c6c:	70 cf       	rjmp	.-288    	; 0x6b4e <Cap_Leakage+0xc2>
  #undef MODE_LEAK
  #undef MODE_DISCHARGE

  #undef RUN_FLAG
  #undef CHANGED_MODE
}
    6c6e:	cd b7       	in	r28, 0x3d	; 61
    6c70:	de b7       	in	r29, 0x3e	; 62
    6c72:	e8 e0       	ldi	r30, 0x08	; 8
    6c74:	0c 94 3d 3f 	jmp	0x7e7a	; 0x7e7a <__epilogue_restores__+0x14>

00006c78 <Monitor_RCL>:
/*
 *  monitor R plus L, or C plus ESR on probes #1 and #3
 */

void Monitor_RCL(void)
{
    6c78:	ef 92       	push	r14
    6c7a:	ff 92       	push	r15
    6c7c:	0f 93       	push	r16
    6c7e:	1f 93       	push	r17
    6c80:	cf 93       	push	r28
    6c82:	df 93       	push	r29
  #if defined (SW_ESR) || defined (SW_OLD_ESR)
  uint16_t          ESR;                /* ESR (in 0.01 Ohms) */
  #endif

  /* show info */
  LCD_Clear();
    6c84:	0e 94 31 3b 	call	0x7662	; 0x7662 <LCD_Clear>
  Display_EEString(Monitor_RCL_str);    /* display: RCL monitor */
    6c88:	80 ec       	ldi	r24, 0xC0	; 192
    6c8a:	91 e0       	ldi	r25, 0x01	; 1
    6c8c:	0e 94 43 20 	call	0x4086	; 0x4086 <Display_EEString>
  ProbePinout(PROBES_RCL);              /* show probes used */
    6c90:	82 e0       	ldi	r24, 0x02	; 2
    6c92:	0e 94 5d 34 	call	0x68ba	; 0x68ba <ProbePinout>

  /* init */
  R1 = &Resistors[0];                   /* pointer to first resistor */
  Cap = &Caps[0];                       /* pointer to first cap */
  Check.Diodes = 0;                     /* reset diode counter */
    6c96:	10 92 0b 01 	sts	0x010B, r1	; 0x80010b <__data_end+0x5>
 *  monitor R plus L, or C plus ESR on probes #1 and #3
 */

void Monitor_RCL(void)
{
  uint8_t           Run = 1;            /* loop control flag */
    6c9a:	c1 e0       	ldi	r28, 0x01	; 1
    Check.Found = COMP_NONE;            /* no component */

    if (Run != COMP_CAPACITOR)          /* none, R or L */
    {
      /* increase number of samples to lower spread of measurement values */
      Cfg.Samples = 100;                /* perform 100 ADC samples */
    6c9c:	d4 e6       	ldi	r29, 0x64	; 100
      else                              /* no resistor */
      {
        Run = 1;                             /* reset to "no component" */
      }

      Cfg.Samples = ADC_SAMPLES;        /* set ADC samples back to default */
    6c9e:	89 e1       	ldi	r24, 0x19	; 25
    6ca0:	f8 2e       	mov	r15, r24
      Check.Resistors = 0;                   /* reset resistor counter */
      CheckResistor();                       /* check for resistor */

      if (Check.Resistors == 1)         /* found resistor */
      {
        Check.Found = COMP_RESISTOR;         /* is R */
    6ca2:	9a e0       	ldi	r25, 0x0A	; 10
    6ca4:	e9 2e       	mov	r14, r25
  {
    /*
     *  check for R, L and C
     */

    Check.Found = COMP_NONE;            /* no component */
    6ca6:	10 92 06 01 	sts	0x0106, r1	; 0x800106 <__data_end>

    if (Run != COMP_CAPACITOR)          /* none, R or L */
    6caa:	cb 30       	cpi	r28, 0x0B	; 11
    6cac:	01 f1       	breq	.+64     	; 0x6cee <Monitor_RCL+0x76>
    {
      /* increase number of samples to lower spread of measurement values */
      Cfg.Samples = 100;                /* perform 100 ADC samples */
    6cae:	d0 93 a3 01 	sts	0x01A3, r29	; 0x8001a3 <Cfg+0x3>

      /* measure R */
      UpdateProbes(PROBE_1, PROBE_3, 0);     /* set probes */
    6cb2:	40 e0       	ldi	r20, 0x00	; 0
    6cb4:	62 e0       	ldi	r22, 0x02	; 2
    6cb6:	80 e0       	ldi	r24, 0x00	; 0
    6cb8:	0e 94 2a 1c 	call	0x3854	; 0x3854 <UpdateProbes>
      Check.Resistors = 0;                   /* reset resistor counter */
    6cbc:	10 92 0a 01 	sts	0x010A, r1	; 0x80010a <__data_end+0x4>
      CheckResistor();                       /* check for resistor */
    6cc0:	0e 94 fe 22 	call	0x45fc	; 0x45fc <CheckResistor>

      if (Check.Resistors == 1)         /* found resistor */
    6cc4:	80 91 0a 01 	lds	r24, 0x010A	; 0x80010a <__data_end+0x4>
    6cc8:	81 30       	cpi	r24, 0x01	; 1
    6cca:	51 f4       	brne	.+20     	; 0x6ce0 <Monitor_RCL+0x68>
      {
        Check.Found = COMP_RESISTOR;         /* is R */
    6ccc:	e0 92 06 01 	sts	0x0106, r14	; 0x800106 <__data_end>

        /* measure L */
        if (MeasureInductor(R1) == 1)        /* got inductance */
    6cd0:	81 e1       	ldi	r24, 0x11	; 17
    6cd2:	91 e0       	ldi	r25, 0x01	; 1
    6cd4:	0e 94 2e 33 	call	0x665c	; 0x665c <MeasureInductor>
    6cd8:	81 30       	cpi	r24, 0x01	; 1
    6cda:	21 f0       	breq	.+8      	; 0x6ce4 <Monitor_RCL+0x6c>
        {
          Run = COMP_INDUCTOR;               /* is an inductor */
        }
        else                                 /* no inductance */
        {
          Run = COMP_RESISTOR;               /* is a resistor */
    6cdc:	ca e0       	ldi	r28, 0x0A	; 10
    6cde:	03 c0       	rjmp	.+6      	; 0x6ce6 <Monitor_RCL+0x6e>
        }
      }
      else                              /* no resistor */
      {
        Run = 1;                             /* reset to "no component" */
    6ce0:	c1 e0       	ldi	r28, 0x01	; 1
    6ce2:	01 c0       	rjmp	.+2      	; 0x6ce6 <Monitor_RCL+0x6e>
        Check.Found = COMP_RESISTOR;         /* is R */

        /* measure L */
        if (MeasureInductor(R1) == 1)        /* got inductance */
        {
          Run = COMP_INDUCTOR;               /* is an inductor */
    6ce4:	cc e0       	ldi	r28, 0x0C	; 12
      else                              /* no resistor */
      {
        Run = 1;                             /* reset to "no component" */
      }

      Cfg.Samples = ADC_SAMPLES;        /* set ADC samples back to default */
    6ce6:	f0 92 a3 01 	sts	0x01A3, r15	; 0x8001a3 <Cfg+0x3>
    }

    if (Run != COMP_INDUCTOR)           /* none, C or R */
    6cea:	cc 30       	cpi	r28, 0x0C	; 12
    6cec:	71 f0       	breq	.+28     	; 0x6d0a <Monitor_RCL+0x92>
    {
      /* measure capacitance */
      MeasureCap(PROBE_1, PROBE_3, 0);       /* measure capacitance */
    6cee:	40 e0       	ldi	r20, 0x00	; 0
    6cf0:	62 e0       	ldi	r22, 0x02	; 2
    6cf2:	80 e0       	ldi	r24, 0x00	; 0
    6cf4:	0e 94 80 29 	call	0x5300	; 0x5300 <MeasureCap>

      if (Check.Found == COMP_CAPACITOR)     /* found cap */
    6cf8:	80 91 06 01 	lds	r24, 0x0106	; 0x800106 <__data_end>
    6cfc:	8b 30       	cpi	r24, 0x0B	; 11
    6cfe:	21 f0       	breq	.+8      	; 0x6d08 <Monitor_RCL+0x90>
      {
        Run = COMP_CAPACITOR;                /* is a cap */
      }
      else if (Run != COMP_RESISTOR)         /* no cap and no resistor */
    6d00:	ca 30       	cpi	r28, 0x0A	; 10
    6d02:	19 f0       	breq	.+6      	; 0x6d0a <Monitor_RCL+0x92>
      {
        Run = 1;                             /* reset to "no component" */
    6d04:	c1 e0       	ldi	r28, 0x01	; 1
    6d06:	01 c0       	rjmp	.+2      	; 0x6d0a <Monitor_RCL+0x92>
      /* measure capacitance */
      MeasureCap(PROBE_1, PROBE_3, 0);       /* measure capacitance */

      if (Check.Found == COMP_CAPACITOR)     /* found cap */
      {
        Run = COMP_CAPACITOR;                /* is a cap */
    6d08:	cb e0       	ldi	r28, 0x0B	; 11

    /*
     *  display measurement
     */

    LCD_ClearLine2();                   /* clear line #2 */
    6d0a:	0e 94 8f 20 	call	0x411e	; 0x411e <LCD_ClearLine2>

    if (Run == 1)                       /* no component */
    6d0e:	c1 30       	cpi	r28, 0x01	; 1
    6d10:	21 f4       	brne	.+8      	; 0x6d1a <Monitor_RCL+0xa2>
    {
      Display_Char('-');                /* display: nothing */
    6d12:	8d e2       	ldi	r24, 0x2D	; 45
    6d14:	0e 94 8a 3b 	call	0x7714	; 0x7714 <LCD_Char>
    6d18:	3e c0       	rjmp	.+124    	; 0x6d96 <Monitor_RCL+0x11e>
    }
    else if (Run == COMP_CAPACITOR)     /* C */
    6d1a:	cb 30       	cpi	r28, 0x0B	; 11
    6d1c:	f1 f4       	brne	.+60     	; 0x6d5a <Monitor_RCL+0xe2>
    {
      /* display capacitance */
      Display_Value(Cap->Value, Cap->Scale, 'F');
    6d1e:	60 91 52 01 	lds	r22, 0x0152	; 0x800152 <Caps+0x3>
    6d22:	70 91 53 01 	lds	r23, 0x0153	; 0x800153 <Caps+0x4>
    6d26:	80 91 54 01 	lds	r24, 0x0154	; 0x800154 <Caps+0x5>
    6d2a:	90 91 55 01 	lds	r25, 0x0155	; 0x800155 <Caps+0x6>
    6d2e:	26 e4       	ldi	r18, 0x46	; 70
    6d30:	40 91 51 01 	lds	r20, 0x0151	; 0x800151 <Caps+0x2>
    6d34:	0e 94 fa 20 	call	0x41f4	; 0x41f4 <Display_Value>

      #if defined (SW_ESR) || defined (SW_OLD_ESR)
      /* show ESR */
      ESR = MeasureESR(Cap);                 /* measure ESR */
    6d38:	8f e4       	ldi	r24, 0x4F	; 79
    6d3a:	91 e0       	ldi	r25, 0x01	; 1
    6d3c:	0e 94 ae 25 	call	0x4b5c	; 0x4b5c <MeasureESR>
    6d40:	8c 01       	movw	r16, r24
      if (ESR < UINT16_MAX)                  /* if successfull */
    6d42:	0f 3f       	cpi	r16, 0xFF	; 255
    6d44:	8f ef       	ldi	r24, 0xFF	; 255
    6d46:	18 07       	cpc	r17, r24
    6d48:	31 f1       	breq	.+76     	; 0x6d96 <Monitor_RCL+0x11e>
      {
        Display_Space();
    6d4a:	0e 94 6e 20 	call	0x40dc	; 0x40dc <Display_Space>
        Display_Value(ESR, -2, LCD_CHAR_OMEGA);   /* display ESR */
    6d4e:	b8 01       	movw	r22, r16
    6d50:	80 e0       	ldi	r24, 0x00	; 0
    6d52:	90 e0       	ldi	r25, 0x00	; 0
    6d54:	24 e0       	ldi	r18, 0x04	; 4
    6d56:	4e ef       	ldi	r20, 0xFE	; 254
    6d58:	1c c0       	rjmp	.+56     	; 0x6d92 <Monitor_RCL+0x11a>
      #endif
    }
    else                                 /* R or L */
    {
      /* display resistance */
      Display_Value(R1->Value, R1->Scale, LCD_CHAR_OMEGA);
    6d5a:	60 91 14 01 	lds	r22, 0x0114	; 0x800114 <Resistors+0x3>
    6d5e:	70 91 15 01 	lds	r23, 0x0115	; 0x800115 <Resistors+0x4>
    6d62:	80 91 16 01 	lds	r24, 0x0116	; 0x800116 <Resistors+0x5>
    6d66:	90 91 17 01 	lds	r25, 0x0117	; 0x800117 <Resistors+0x6>
    6d6a:	24 e0       	ldi	r18, 0x04	; 4
    6d6c:	40 91 13 01 	lds	r20, 0x0113	; 0x800113 <Resistors+0x2>
    6d70:	0e 94 fa 20 	call	0x41f4	; 0x41f4 <Display_Value>

      if (Run == COMP_INDUCTOR)          /* L */
    6d74:	cc 30       	cpi	r28, 0x0C	; 12
    6d76:	79 f4       	brne	.+30     	; 0x6d96 <Monitor_RCL+0x11e>
      {
        /* display inductance */
        Display_Space();
    6d78:	0e 94 6e 20 	call	0x40dc	; 0x40dc <Display_Space>
        Display_Value(Inductor.Value, Inductor.Scale, 'H');
    6d7c:	60 91 e9 01 	lds	r22, 0x01E9	; 0x8001e9 <Inductor+0x1>
    6d80:	70 91 ea 01 	lds	r23, 0x01EA	; 0x8001ea <Inductor+0x2>
    6d84:	80 91 eb 01 	lds	r24, 0x01EB	; 0x8001eb <Inductor+0x3>
    6d88:	90 91 ec 01 	lds	r25, 0x01EC	; 0x8001ec <Inductor+0x4>
    6d8c:	28 e4       	ldi	r18, 0x48	; 72
    6d8e:	40 91 e8 01 	lds	r20, 0x01E8	; 0x8001e8 <Inductor>
    6d92:	0e 94 fa 20 	call	0x41f4	; 0x41f4 <Display_Value>
      }
    }


    /* user feedback (1s delay) */
    Test = TestKey(1000, CHECK_KEY_TWICE | CHECK_BAT | CURSOR_STEADY);
    6d96:	69 e1       	ldi	r22, 0x19	; 25
    6d98:	88 ee       	ldi	r24, 0xE8	; 232
    6d9a:	93 e0       	ldi	r25, 0x03	; 3
    6d9c:	0e 94 0b 14 	call	0x2816	; 0x2816 <TestKey>

    if (Test == KEY_TWICE)         /* two short key presses */
    6da0:	83 30       	cpi	r24, 0x03	; 3
    6da2:	09 f0       	breq	.+2      	; 0x6da6 <Monitor_RCL+0x12e>
    6da4:	80 cf       	rjmp	.-256    	; 0x6ca6 <Monitor_RCL+0x2e>
    {
      Run = 0;                     /* end processing loop */
    }
  }
}
    6da6:	cd b7       	in	r28, 0x3d	; 61
    6da8:	de b7       	in	r29, 0x3e	; 62
    6daa:	e6 e0       	ldi	r30, 0x06	; 6
    6dac:	0c 94 3f 3f 	jmp	0x7e7e	; 0x7e7e <__epilogue_restores__+0x18>

00006db0 <PWM_Tool>:
 *    display with more than 2 text lines
 *  - requires idle sleep mode to keep timer running when MCU is sleeping
 */

void PWM_Tool(void)
{
    6db0:	a0 e0       	ldi	r26, 0x00	; 0
    6db2:	b0 e0       	ldi	r27, 0x00	; 0
    6db4:	ee ed       	ldi	r30, 0xDE	; 222
    6db6:	f6 e3       	ldi	r31, 0x36	; 54
    6db8:	0c 94 17 3f 	jmp	0x7e2e	; 0x7e2e <__prologue_saves__>
   *    256        15625Hz     0.24Hz     3906.25Hz  156.25Hz
   *    1024       3906.25Hz   0.06Hz     976.5Hz    39Hz
   *  - to support a PWM ratio of 1% top should be 100 at least
   */

  ShortCircuit(0);                    /* make sure probes are not shorted */
    6dbc:	80 e0       	ldi	r24, 0x00	; 0
    6dbe:	0e 94 4d 15 	call	0x2a9a	; 0x2a9a <ShortCircuit>
  LCD_Clear();
    6dc2:	0e 94 31 3b 	call	0x7662	; 0x7662 <LCD_Clear>
  Display_EEString_Space(PWM_str);    /* display: PWM */
    6dc6:	8b e1       	ldi	r24, 0x1B	; 27
    6dc8:	92 e0       	ldi	r25, 0x02	; 2
    6dca:	0e 94 72 20 	call	0x40e4	; 0x40e4 <Display_EEString_Space>
  #ifndef HW_FIXED_SIGNAL_OUTPUT
  ProbePinout(PROBES_PWM);            /* show probes used */
    6dce:	80 e0       	ldi	r24, 0x00	; 0
    6dd0:	0e 94 5d 34 	call	0x68ba	; 0x68ba <ProbePinout>
  #endif

  #ifndef HW_FIXED_SIGNAL_OUTPUT
  /* probes 1 and 3 are signal ground, probe 2 is signal output */
  ADC_PORT = 0;                         /* pull down directly: */
    6dd4:	18 b8       	out	0x08, r1	; 8
  ADC_DDR = (1 << TP1) | (1 << TP3);    /* probe 1 & 3 */
    6dd6:	85 e0       	ldi	r24, 0x05	; 5
    6dd8:	87 b9       	out	0x07, r24	; 7
  R_DDR = (1 << R_RL_2);                /* enable Rl for probe 2 */
    6dda:	84 e0       	ldi	r24, 0x04	; 4
    6ddc:	84 b9       	out	0x04, r24	; 4
  R_PORT = 0;                           /* pull down probe 2 initially */
    6dde:	15 b8       	out	0x05, r1	; 5
   *  - phase and frequency correct PWM
   *  - top value by OCR1A
   *  - OC1B non-inverted output
   */

  TCNT1 = 0;                            /* set counter to 0 */
    6de0:	10 92 85 00 	sts	0x0085, r1	; 0x800085 <__DATA_REGION_ORIGIN__+0x25>
    6de4:	10 92 84 00 	sts	0x0084, r1	; 0x800084 <__DATA_REGION_ORIGIN__+0x24>

  /* enable OC1B pin and set timer mode */
  TCCR1A = (1 << WGM10) | (1 << COM1B1);
    6de8:	81 e2       	ldi	r24, 0x21	; 33
    6dea:	80 93 80 00 	sts	0x0080, r24	; 0x800080 <__DATA_REGION_ORIGIN__+0x20>
  TCCR1B = (1 << WGM13);
    6dee:	80 e1       	ldi	r24, 0x10	; 16
    6df0:	80 93 81 00 	sts	0x0081, r24	; 0x800081 <__DATA_REGION_ORIGIN__+0x21>
  /* start values */
  Ratio = 50;                      /* 50% PWM ratio */
  Prescaler = 1;
  Index = 0;
  Bits = (1 << CS10);              /* prescaler register bits for 1 */
  Top = (CPU_FREQ / 2000);         /* 1kHz */
    6df4:	00 ea       	ldi	r16, 0xA0	; 160
    6df6:	1f e0       	ldi	r17, 0x0F	; 15
   *  processing loop
   */

  /* start values */
  Ratio = 50;                      /* 50% PWM ratio */
  Prescaler = 1;
    6df8:	ee 24       	eor	r14, r14
    6dfa:	e3 94       	inc	r14
    6dfc:	f1 2c       	mov	r15, r1
  Index = 0;
  Bits = (1 << CS10);              /* prescaler register bits for 1 */
    6dfe:	99 24       	eor	r9, r9
    6e00:	93 94       	inc	r9
   */

  /* start values */
  Ratio = 50;                      /* 50% PWM ratio */
  Prescaler = 1;
  Index = 0;
    6e02:	b1 2c       	mov	r11, r1
  /*
   *  processing loop
   */

  /* start values */
  Ratio = 50;                      /* 50% PWM ratio */
    6e04:	a2 e3       	ldi	r26, 0x32	; 50
    6e06:	da 2e       	mov	r13, r26

void PWM_Tool(void)
{
  uint8_t           Flag;               /* loop control */
  uint8_t           Mode;               /* UI */
  uint8_t           Test = 0;           /* user feedback */
    6e08:	c1 2c       	mov	r12, r1
  Prescaler = 1;
  Index = 0;
  Bits = (1 << CS10);              /* prescaler register bits for 1 */
  Top = (CPU_FREQ / 2000);         /* 1kHz */
  Flag = RUN_FLAG | CHANGE_FREQ | CHANGE_RATIO | DISPLAY_FREQ | DISPLAY_RATIO;
  Mode = MODE_FREQ;                /* frequency mode */
    6e0a:	d1 e0       	ldi	r29, 0x01	; 1
  Ratio = 50;                      /* 50% PWM ratio */
  Prescaler = 1;
  Index = 0;
  Bits = (1 << CS10);              /* prescaler register bits for 1 */
  Top = (CPU_FREQ / 2000);         /* 1kHz */
  Flag = RUN_FLAG | CHANGE_FREQ | CHANGE_RATIO | DISPLAY_FREQ | DISPLAY_RATIO;
    6e0c:	cf e1       	ldi	r28, 0x1F	; 31
      LCD_ClearLine2();
      MarkItem(MODE_FREQ, Mode);        /* mark mode if selected */

      /* f_PWM = f_MCU / (2 * prescaler * top) */
      Value = CPU_FREQ * 50;            /* scale to 0.01Hz and /2 */
      Value /= Prescaler;
    6e0e:	41 2c       	mov	r4, r1
    6e10:	b4 e8       	ldi	r27, 0x84	; 132
    6e12:	5b 2e       	mov	r5, r27
    6e14:	b7 ed       	ldi	r27, 0xD7	; 215
    6e16:	6b 2e       	mov	r6, r27
    6e18:	b7 e1       	ldi	r27, 0x17	; 23
    6e1a:	7b 2e       	mov	r7, r27
  {
    /*
     *  change timer settings
     */

    if (Flag & CHANGE_FREQ)        /* change frequency */
    6e1c:	c1 ff       	sbrs	r28, 1
    6e1e:	48 c0       	rjmp	.+144    	; 0x6eb0 <PWM_Tool+0x100>
       */

      Step = Index;

      /* check if we should change the range */
      if (Top > 0x7FFF)            /* more than 15 bits */
    6e20:	17 ff       	sbrs	r17, 7
    6e22:	07 c0       	rjmp	.+14     	; 0x6e32 <PWM_Tool+0x82>
      {
        if (Index < (NUM_TIMER1 - 1))   /* don't exceed upper prescaler limit */
    6e24:	83 e0       	ldi	r24, 0x03	; 3
    6e26:	8b 15       	cp	r24, r11
    6e28:	08 f4       	brcc	.+2      	; 0x6e2c <PWM_Tool+0x7c>
    6e2a:	22 c1       	rjmp	.+580    	; 0x7070 <PWM_Tool+0x2c0>
        {
          Index++;                 /* increase prescaler */
    6e2c:	aa 24       	eor	r10, r10
    6e2e:	a3 94       	inc	r10
    6e30:	0a c0       	rjmp	.+20     	; 0x6e46 <PWM_Tool+0x96>
        }
      }
      else if (Top < 0x0FFF)       /* less than 12 bits */
    6e32:	0f 3f       	cpi	r16, 0xFF	; 255
    6e34:	9f e0       	ldi	r25, 0x0F	; 15
    6e36:	19 07       	cpc	r17, r25
    6e38:	08 f0       	brcs	.+2      	; 0x6e3c <PWM_Tool+0x8c>
    6e3a:	1a c1       	rjmp	.+564    	; 0x7070 <PWM_Tool+0x2c0>
      {
        if (Index > 0)             /* don't exceed lower prescaler limit */
    6e3c:	bb 20       	and	r11, r11
    6e3e:	09 f4       	brne	.+2      	; 0x6e42 <PWM_Tool+0x92>
    6e40:	17 c1       	rjmp	.+558    	; 0x7070 <PWM_Tool+0x2c0>
        {
          Index--;                 /* decrease prescaler */
    6e42:	aa 24       	eor	r10, r10
    6e44:	aa 94       	dec	r10
    6e46:	ab 0c       	add	r10, r11
        }
      }

      /* process changed range */
      if (Index != Step)           /* range has changed */
    6e48:	ab 14       	cp	r10, r11
    6e4a:	41 f1       	breq	.+80     	; 0x6e9c <PWM_Tool+0xec>
      {
        Step2 = Prescaler;         /* save old value */

        /* read new prescaler and register bits from table */
        Prescaler = DATA_read_word(&T1_Prescaler_table[Index]);
    6e4c:	8a 2c       	mov	r8, r10
    6e4e:	91 2c       	mov	r9, r1
    6e50:	c4 01       	movw	r24, r8
    6e52:	88 0f       	add	r24, r24
    6e54:	99 1f       	adc	r25, r25
    6e56:	8b 5c       	subi	r24, 0xCB	; 203
    6e58:	9f 4f       	sbci	r25, 0xFF	; 255
    6e5a:	0e 94 a2 3f 	call	0x7f44	; 0x7f44 <eeprom_read_word>
    6e5e:	1c 01       	movw	r2, r24
        Bits = DATA_read_byte(&T1_RegBits_table[Index]);
    6e60:	c4 01       	movw	r24, r8
    6e62:	80 5d       	subi	r24, 0xD0	; 208
    6e64:	9f 4f       	sbci	r25, 0xFF	; 255
    6e66:	0e 94 9a 3f 	call	0x7f34	; 0x7f34 <eeprom_read_byte>
    6e6a:	98 2e       	mov	r9, r24

        if (Index > Step)          /* larger prescaler */
    6e6c:	ba 14       	cp	r11, r10
    6e6e:	48 f4       	brcc	.+18     	; 0x6e82 <PWM_Tool+0xd2>
        {
          /* decrease top value by same factor as the prescaler increased */
          Temp = Prescaler / Step2;
          Top /= Temp;
    6e70:	c1 01       	movw	r24, r2
    6e72:	b7 01       	movw	r22, r14
    6e74:	0e 94 87 3e 	call	0x7d0e	; 0x7d0e <__udivmodhi4>
    6e78:	c8 01       	movw	r24, r16
    6e7a:	0e 94 87 3e 	call	0x7d0e	; 0x7d0e <__udivmodhi4>
    6e7e:	8b 01       	movw	r16, r22
    6e80:	0c c0       	rjmp	.+24     	; 0x6e9a <PWM_Tool+0xea>
        }
        else                       /* smaller prescaler */
        {
          /* increase top value by same factor as the prescaler decreased */
          Temp = Step2 / Prescaler;
          Top *= Temp;
    6e82:	c7 01       	movw	r24, r14
    6e84:	b1 01       	movw	r22, r2
    6e86:	0e 94 87 3e 	call	0x7d0e	; 0x7d0e <__udivmodhi4>
    6e8a:	c8 01       	movw	r24, r16
    6e8c:	86 9f       	mul	r24, r22
    6e8e:	80 01       	movw	r16, r0
    6e90:	87 9f       	mul	r24, r23
    6e92:	10 0d       	add	r17, r0
    6e94:	96 9f       	mul	r25, r22
    6e96:	10 0d       	add	r17, r0
    6e98:	11 24       	eor	r1, r1
      if (Index != Step)           /* range has changed */
      {
        Step2 = Prescaler;         /* save old value */

        /* read new prescaler and register bits from table */
        Prescaler = DATA_read_word(&T1_Prescaler_table[Index]);
    6e9a:	71 01       	movw	r14, r2
          Top *= Temp;
        }
      }

      /* set frequency */
      OCR1A = Top;                      /* set top value */
    6e9c:	10 93 89 00 	sts	0x0089, r17	; 0x800089 <__DATA_REGION_ORIGIN__+0x29>
    6ea0:	00 93 88 00 	sts	0x0088, r16	; 0x800088 <__DATA_REGION_ORIGIN__+0x28>
      TCCR1B = (1 << WGM13) | Bits;     /* (re)start timer */
    6ea4:	89 2d       	mov	r24, r9
    6ea6:	80 61       	ori	r24, 0x10	; 16
    6ea8:	80 93 81 00 	sts	0x0081, r24	; 0x800081 <__DATA_REGION_ORIGIN__+0x21>
      Flag &= ~CHANGE_FREQ;             /* clear flag */
    6eac:	cd 7f       	andi	r28, 0xFD	; 253
    6eae:	ba 2c       	mov	r11, r10
      /* a frequency change implies a ratio change */
    }


    if (Flag & CHANGE_RATIO)       /* change ratio */
    6eb0:	c2 ff       	sbrs	r28, 2
    6eb2:	10 c0       	rjmp	.+32     	; 0x6ed4 <PWM_Tool+0x124>
    {
      /* toggle = top * (ratio / 100) */
      Value = (uint32_t)Top * Ratio;
    6eb4:	2d 2d       	mov	r18, r13
    6eb6:	30 e0       	ldi	r19, 0x00	; 0
    6eb8:	d8 01       	movw	r26, r16
    6eba:	0e 94 f6 3e 	call	0x7dec	; 0x7dec <__umulhisi3>
      Value /= 100;
      OCR1B = (uint16_t)Value;          /* set compare/toggle value */
    6ebe:	24 e6       	ldi	r18, 0x64	; 100
    6ec0:	30 e0       	ldi	r19, 0x00	; 0
    6ec2:	40 e0       	ldi	r20, 0x00	; 0
    6ec4:	50 e0       	ldi	r21, 0x00	; 0
    6ec6:	0e 94 af 3e 	call	0x7d5e	; 0x7d5e <__udivmodsi4>
    6eca:	30 93 8b 00 	sts	0x008B, r19	; 0x80008b <__DATA_REGION_ORIGIN__+0x2b>
    6ece:	20 93 8a 00 	sts	0x008A, r18	; 0x80008a <__DATA_REGION_ORIGIN__+0x2a>
      Flag &= ~CHANGE_RATIO;            /* clear flag */
    6ed2:	cb 7f       	andi	r28, 0xFB	; 251

    /*
     *  update display
     */

    if (Flag & DISPLAY_FREQ)       /* display frequency */
    6ed4:	c3 ff       	sbrs	r28, 3
    6ed6:	32 c0       	rjmp	.+100    	; 0x6f3c <PWM_Tool+0x18c>
    {
      LCD_ClearLine2();
    6ed8:	0e 94 8f 20 	call	0x411e	; 0x411e <LCD_ClearLine2>
      MarkItem(MODE_FREQ, Mode);        /* mark mode if selected */
    6edc:	6d 2f       	mov	r22, r29
    6ede:	81 e0       	ldi	r24, 0x01	; 1
    6ee0:	0e 94 84 15 	call	0x2b08	; 0x2b08 <MarkItem>

      /* f_PWM = f_MCU / (2 * prescaler * top) */
      Value = CPU_FREQ * 50;            /* scale to 0.01Hz and /2 */
      Value /= Prescaler;
    6ee4:	97 01       	movw	r18, r14
    6ee6:	40 e0       	ldi	r20, 0x00	; 0
    6ee8:	50 e0       	ldi	r21, 0x00	; 0
    6eea:	c3 01       	movw	r24, r6
    6eec:	b2 01       	movw	r22, r4
    6eee:	0e 94 af 3e 	call	0x7d5e	; 0x7d5e <__udivmodsi4>
       *  optimize resolution of frequency without causing an overflow
       *  prescaler       :  1  8  64  256  1024
       *  decimal places  :  2  3   4    4     5
       */

      Temp = Prescaler;
    6ef2:	f7 01       	movw	r30, r14
      MarkItem(MODE_FREQ, Mode);        /* mark mode if selected */

      /* f_PWM = f_MCU / (2 * prescaler * top) */
      Value = CPU_FREQ * 50;            /* scale to 0.01Hz and /2 */
      Value /= Prescaler;
      Step = 2;                         /* 2 decimal places */
    6ef4:	72 e0       	ldi	r23, 0x02	; 2
    6ef6:	a7 2e       	mov	r10, r23
       *  prescaler       :  1  8  64  256  1024
       *  decimal places  :  2  3   4    4     5
       */

      Temp = Prescaler;
      while (Temp >= 8)         /* loop through prescaler steps */
    6ef8:	e8 30       	cpi	r30, 0x08	; 8
    6efa:	f1 05       	cpc	r31, r1
    6efc:	68 f0       	brcs	.+26     	; 0x6f18 <PWM_Tool+0x168>
      {
        Value *= 10;            /* scale by factor 0.1 */
    6efe:	aa e0       	ldi	r26, 0x0A	; 10
    6f00:	b0 e0       	ldi	r27, 0x00	; 0
    6f02:	0e 94 0c 3f 	call	0x7e18	; 0x7e18 <__muluhisi3>
    6f06:	9b 01       	movw	r18, r22
    6f08:	ac 01       	movw	r20, r24
        Step++;                 /* one decimal place more */
    6f0a:	a3 94       	inc	r10
        Temp /= 8;              /* next lower prescaler */
    6f0c:	63 e0       	ldi	r22, 0x03	; 3
    6f0e:	f6 95       	lsr	r31
    6f10:	e7 95       	ror	r30
    6f12:	6a 95       	dec	r22
    6f14:	e1 f7       	brne	.-8      	; 0x6f0e <PWM_Tool+0x15e>
    6f16:	f0 cf       	rjmp	.-32     	; 0x6ef8 <PWM_Tool+0x148>
      }

      Value /= Top;

      Display_FullValue(Value, Step, 0);  /* display frequency */
    6f18:	ca 01       	movw	r24, r20
    6f1a:	b9 01       	movw	r22, r18
    6f1c:	98 01       	movw	r18, r16
    6f1e:	40 e0       	ldi	r20, 0x00	; 0
    6f20:	50 e0       	ldi	r21, 0x00	; 0
    6f22:	0e 94 af 3e 	call	0x7d5e	; 0x7d5e <__udivmodsi4>
    6f26:	ca 01       	movw	r24, r20
    6f28:	b9 01       	movw	r22, r18
    6f2a:	20 e0       	ldi	r18, 0x00	; 0
    6f2c:	4a 2d       	mov	r20, r10
    6f2e:	0e 94 ab 20 	call	0x4156	; 0x4156 <Display_FullValue>
      Display_EEString(Hertz_str);        /* display: Hz */
    6f32:	8b e3       	ldi	r24, 0x3B	; 59
    6f34:	92 e0       	ldi	r25, 0x02	; 2
    6f36:	0e 94 43 20 	call	0x4086	; 0x4086 <Display_EEString>

      Flag &= ~DISPLAY_FREQ;            /* clear flag */
    6f3a:	c7 7f       	andi	r28, 0xF7	; 247
    }


    if (Flag & DISPLAY_RATIO)      /* display ratio */
    6f3c:	c4 ff       	sbrs	r28, 4
    6f3e:	16 c0       	rjmp	.+44     	; 0x6f6c <PWM_Tool+0x1bc>
    {
      LCD_ClearLine(3);
    6f40:	83 e0       	ldi	r24, 0x03	; 3
    6f42:	0e 94 ca 3a 	call	0x7594	; 0x7594 <LCD_ClearLine>
      LCD_CharPos(1, 3);
    6f46:	63 e0       	ldi	r22, 0x03	; 3
    6f48:	81 e0       	ldi	r24, 0x01	; 1
    6f4a:	0e 94 9f 3a 	call	0x753e	; 0x753e <LCD_CharPos>
      MarkItem(MODE_RATIO, Mode);       /* mark mode if selected */
    6f4e:	6d 2f       	mov	r22, r29
    6f50:	82 e0       	ldi	r24, 0x02	; 2
    6f52:	0e 94 84 15 	call	0x2b08	; 0x2b08 <MarkItem>

      Display_Value(Ratio, 0, '%');     /* show ratio in % */
    6f56:	8d 2d       	mov	r24, r13
    6f58:	90 e0       	ldi	r25, 0x00	; 0
    6f5a:	a0 e0       	ldi	r26, 0x00	; 0
    6f5c:	b0 e0       	ldi	r27, 0x00	; 0
    6f5e:	25 e2       	ldi	r18, 0x25	; 37
    6f60:	40 e0       	ldi	r20, 0x00	; 0
    6f62:	bc 01       	movw	r22, r24
    6f64:	cd 01       	movw	r24, r26
    6f66:	0e 94 fa 20 	call	0x41f4	; 0x41f4 <Display_Value>

      Flag &= ~DISPLAY_RATIO;           /* clear flag */
    6f6a:	cf 7e       	andi	r28, 0xEF	; 239
    }

    /* smooth UI after long key press */
    if (Test == KEY_LONG)          /* long key press */
    6f6c:	92 e0       	ldi	r25, 0x02	; 2
    6f6e:	c9 12       	cpse	r12, r25
    6f70:	02 c0       	rjmp	.+4      	; 0x6f76 <PWM_Tool+0x1c6>
    {
      SmoothLongKeyPress();             /* delay next key press */
    6f72:	0e 94 42 15 	call	0x2a84	; 0x2a84 <SmoothLongKeyPress>
    /*
     *  user feedback
     */

    /* wait for user feedback */
    Test = TestKey(0, CHECK_KEY_TWICE | CHECK_BAT);
    6f76:	68 e1       	ldi	r22, 0x18	; 24
    6f78:	80 e0       	ldi	r24, 0x00	; 0
    6f7a:	90 e0       	ldi	r25, 0x00	; 0
    6f7c:	0e 94 0b 14 	call	0x2816	; 0x2816 <TestKey>
    6f80:	c8 2e       	mov	r12, r24

    /* consider rotary encoder's turning velocity */
    Step = UI.KeyStep;             /* get velocity (1-7) */
    6f82:	80 91 34 01 	lds	r24, 0x0134	; 0x800134 <UI+0xe>
    Step2 = Step;
    6f86:	28 2f       	mov	r18, r24
    6f88:	30 e0       	ldi	r19, 0x00	; 0
        Step *= 100 / 32;
      }
    }

    /* process user input */
    if (Test == KEY_SHORT)              /* short key press */
    6f8a:	91 e0       	ldi	r25, 0x01	; 1
    Test = TestKey(0, CHECK_KEY_TWICE | CHECK_BAT);

    /* consider rotary encoder's turning velocity */
    Step = UI.KeyStep;             /* get velocity (1-7) */
    Step2 = Step;
    if (Step > 1)                  /* larger step */
    6f8c:	82 30       	cpi	r24, 0x02	; 2
    6f8e:	58 f0       	brcs	.+22     	; 0x6fa6 <PWM_Tool+0x1f6>
    {
      /* increase step size based on turning velocity */
      if (Mode == MODE_FREQ)       /* frequency mode */
    6f90:	d1 30       	cpi	r29, 0x01	; 1
    6f92:	19 f4       	brne	.+6      	; 0x6f9a <PWM_Tool+0x1ea>
        Step *= 100 / 32;
      }
    }

    /* process user input */
    if (Test == KEY_SHORT)              /* short key press */
    6f94:	c9 12       	cpse	r12, r25
    6f96:	12 c0       	rjmp	.+36     	; 0x6fbc <PWM_Tool+0x20c>
    6f98:	0c c0       	rjmp	.+24     	; 0x6fb2 <PWM_Tool+0x202>
    6f9a:	c9 16       	cp	r12, r25
    6f9c:	41 f0       	breq	.+16     	; 0x6fae <PWM_Tool+0x1fe>
        Step2 *= Step2;            /* ^2 */
      }
      else                         /* ratio mode */
      {
        /* 0-100% */
        Step *= 100 / 32;
    6f9e:	98 2f       	mov	r25, r24
    6fa0:	99 0f       	add	r25, r25
    6fa2:	89 0f       	add	r24, r25
    6fa4:	14 c0       	rjmp	.+40     	; 0x6fce <PWM_Tool+0x21e>
      }
    }

    /* process user input */
    if (Test == KEY_SHORT)              /* short key press */
    6fa6:	c9 12       	cpse	r12, r25
    6fa8:	12 c0       	rjmp	.+36     	; 0x6fce <PWM_Tool+0x21e>
    {
      /* toggle frequency/ratio mode */
      if (Mode == MODE_FREQ)       /* frequency mode */
    6faa:	d1 30       	cpi	r29, 0x01	; 1
    6fac:	11 f0       	breq	.+4      	; 0x6fb2 <PWM_Tool+0x202>
      {
        Mode = MODE_RATIO;         /* change to ratio mode */
      }
      else                         /* ratio mode */
      {
        Mode = MODE_FREQ;          /* change to frequency mode */
    6fae:	d1 e0       	ldi	r29, 0x01	; 1
    6fb0:	01 c0       	rjmp	.+2      	; 0x6fb4 <PWM_Tool+0x204>
    if (Test == KEY_SHORT)              /* short key press */
    {
      /* toggle frequency/ratio mode */
      if (Mode == MODE_FREQ)       /* frequency mode */
      {
        Mode = MODE_RATIO;         /* change to ratio mode */
    6fb2:	d2 e0       	ldi	r29, 0x02	; 2
      else                         /* ratio mode */
      {
        Mode = MODE_FREQ;          /* change to frequency mode */
      }

      Flag |= DISPLAY_FREQ | DISPLAY_RATIO;  /* update display */
    6fb4:	c8 61       	ori	r28, 0x18	; 24
    6fb6:	cc 24       	eor	r12, r12
    6fb8:	c3 94       	inc	r12
    6fba:	30 cf       	rjmp	.-416    	; 0x6e1c <PWM_Tool+0x6c>
         *  -  256: 8191 -> 32767 / 4095 <- 16380
         *  - 1024: 8191 -> 65635 / 4095 <- 65635
         */

        /* step^4: 16 81 256 625 1296 2401 */
        Step2 *= Step;             /* ^2 */
    6fbc:	88 9f       	mul	r24, r24
    6fbe:	a0 01       	movw	r20, r0
    6fc0:	11 24       	eor	r1, r1
        Step2 *= Step2;            /* ^2 */
    6fc2:	44 9f       	mul	r20, r20
    6fc4:	90 01       	movw	r18, r0
    6fc6:	45 9f       	mul	r20, r21
    6fc8:	30 0d       	add	r19, r0
    6fca:	30 0d       	add	r19, r0
    6fcc:	11 24       	eor	r1, r1
        Mode = MODE_FREQ;          /* change to frequency mode */
      }

      Flag |= DISPLAY_FREQ | DISPLAY_RATIO;  /* update display */
    }
    else if (Test == KEY_TWICE)         /* two short key presses */
    6fce:	93 e0       	ldi	r25, 0x03	; 3
    6fd0:	c9 16       	cp	r12, r25
    6fd2:	09 f4       	brne	.+2      	; 0x6fd6 <PWM_Tool+0x226>
    6fd4:	43 c0       	rjmp	.+134    	; 0x705c <PWM_Tool+0x2ac>
    {
      Flag = 0;                         /* end loop */
    }
    else if (Test == KEY_LONG)          /* long key press */
    6fd6:	92 e0       	ldi	r25, 0x02	; 2
    6fd8:	c9 12       	cpse	r12, r25
    6fda:	10 c0       	rjmp	.+32     	; 0x6ffc <PWM_Tool+0x24c>
    {
      if (Mode == MODE_FREQ)       /* frequency mode */
    6fdc:	d1 30       	cpi	r29, 0x01	; 1
    6fde:	51 f4       	brne	.+20     	; 0x6ff4 <PWM_Tool+0x244>
        /* set 1kHz */
        Prescaler = 1;
        Index = 0;
        Bits = (1 << CS10);        /* prescaler register bits for 1 */
        Top = (CPU_FREQ / 2000);   /* 1kHz */
        Flag |= CHANGE_FREQ | DISPLAY_FREQ | CHANGE_RATIO;   /* set flags */
    6fe0:	ce 60       	ori	r28, 0x0E	; 14
      {
        /* set 1kHz */
        Prescaler = 1;
        Index = 0;
        Bits = (1 << CS10);        /* prescaler register bits for 1 */
        Top = (CPU_FREQ / 2000);   /* 1kHz */
    6fe2:	00 ea       	ldi	r16, 0xA0	; 160
    6fe4:	1f e0       	ldi	r17, 0x0F	; 15
    else if (Test == KEY_LONG)          /* long key press */
    {
      if (Mode == MODE_FREQ)       /* frequency mode */
      {
        /* set 1kHz */
        Prescaler = 1;
    6fe6:	ee 24       	eor	r14, r14
    6fe8:	e3 94       	inc	r14
    6fea:	f1 2c       	mov	r15, r1
        Index = 0;
        Bits = (1 << CS10);        /* prescaler register bits for 1 */
    6fec:	99 24       	eor	r9, r9
    6fee:	93 94       	inc	r9
    {
      if (Mode == MODE_FREQ)       /* frequency mode */
      {
        /* set 1kHz */
        Prescaler = 1;
        Index = 0;
    6ff0:	b1 2c       	mov	r11, r1
    6ff2:	14 cf       	rjmp	.-472    	; 0x6e1c <PWM_Tool+0x6c>
      }
      else                         /* ratio mode */
      {
        /* set 50% */
        Ratio = 50;
        Flag |= CHANGE_RATIO | DISPLAY_RATIO;     /* set flags */
    6ff4:	c4 61       	ori	r28, 0x14	; 20
        Flag |= CHANGE_FREQ | DISPLAY_FREQ | CHANGE_RATIO;   /* set flags */
      }
      else                         /* ratio mode */
      {
        /* set 50% */
        Ratio = 50;
    6ff6:	92 e3       	ldi	r25, 0x32	; 50
    6ff8:	d9 2e       	mov	r13, r25
    6ffa:	2e c0       	rjmp	.+92     	; 0x7058 <PWM_Tool+0x2a8>
        Flag |= CHANGE_RATIO | DISPLAY_RATIO;     /* set flags */
      }
    }
    else if (Test == KEY_RIGHT)    /* right key */
    6ffc:	94 e0       	ldi	r25, 0x04	; 4
    6ffe:	c9 12       	cpse	r12, r25
    7000:	15 c0       	rjmp	.+42     	; 0x702c <PWM_Tool+0x27c>
    {
      if (Mode == MODE_FREQ)       /* frequency mode */
    7002:	d1 30       	cpi	r29, 0x01	; 1
    7004:	61 f4       	brne	.+24     	; 0x701e <PWM_Tool+0x26e>
      {
        /* increase frequency -> decrease top */
        Temp = Top - Step2;        /* take advantage of underflow */
    7006:	c8 01       	movw	r24, r16
    7008:	82 1b       	sub	r24, r18
    700a:	93 0b       	sbc	r25, r19
        if ((Temp > Top) || (Temp < 0x0064))      /* underflow */
    700c:	08 17       	cp	r16, r24
    700e:	19 07       	cpc	r17, r25
    7010:	18 f0       	brcs	.+6      	; 0x7018 <PWM_Tool+0x268>
    7012:	84 36       	cpi	r24, 0x64	; 100
    7014:	91 05       	cpc	r25, r1
    7016:	b8 f4       	brcc	.+46     	; 0x7046 <PWM_Tool+0x296>
        {
          Temp = 0x0064;           /* lower limit */
    7018:	84 e6       	ldi	r24, 0x64	; 100
    701a:	90 e0       	ldi	r25, 0x00	; 0
    701c:	14 c0       	rjmp	.+40     	; 0x7046 <PWM_Tool+0x296>
        Flag |= CHANGE_FREQ | DISPLAY_FREQ | CHANGE_RATIO;  /* set flags */
      }
      else                         /* ratio mode */
      {
        /* increase ratio */
        Ratio += Step;             /* add (max 200) */
    701e:	d8 0e       	add	r13, r24
    7020:	84 e6       	ldi	r24, 0x64	; 100
    7022:	8d 15       	cp	r24, r13
    7024:	c0 f4       	brcc	.+48     	; 0x7056 <PWM_Tool+0x2a6>
    7026:	84 e6       	ldi	r24, 0x64	; 100
    7028:	d8 2e       	mov	r13, r24
    702a:	15 c0       	rjmp	.+42     	; 0x7056 <PWM_Tool+0x2a6>
        }

        Flag |= CHANGE_RATIO | DISPLAY_RATIO;     /* set flags */
      }
    }
    else if (Test == KEY_LEFT)     /* left key */
    702c:	95 e0       	ldi	r25, 0x05	; 5
    702e:	c9 12       	cpse	r12, r25
    7030:	f5 ce       	rjmp	.-534    	; 0x6e1c <PWM_Tool+0x6c>
    {
      if (Mode == MODE_FREQ)       /* frequency mode */
    7032:	d1 30       	cpi	r29, 0x01	; 1
    7034:	59 f4       	brne	.+22     	; 0x704c <PWM_Tool+0x29c>
      {
        /* decrease frequency -> increase top */
        Temp = Top + Step2;        /* take advantage of overflow */
    7036:	c8 01       	movw	r24, r16
    7038:	82 0f       	add	r24, r18
    703a:	93 1f       	adc	r25, r19
        if (Temp < Top)            /* overflow */
    703c:	80 17       	cp	r24, r16
    703e:	91 07       	cpc	r25, r17
    7040:	10 f4       	brcc	.+4      	; 0x7046 <PWM_Tool+0x296>
        {
          Temp = 0xFFFF;           /* upper limit */
    7042:	8f ef       	ldi	r24, 0xFF	; 255
    7044:	9f ef       	ldi	r25, 0xFF	; 255
        }
        Top = Temp;                /* set new value */

        Flag |= CHANGE_FREQ | DISPLAY_FREQ | CHANGE_RATIO;  /* set flags */
    7046:	ce 60       	ori	r28, 0x0E	; 14
        Temp = Top + Step2;        /* take advantage of overflow */
        if (Temp < Top)            /* overflow */
        {
          Temp = 0xFFFF;           /* upper limit */
        }
        Top = Temp;                /* set new value */
    7048:	8c 01       	movw	r16, r24
    704a:	e8 ce       	rjmp	.-560    	; 0x6e1c <PWM_Tool+0x6c>
        Flag |= CHANGE_FREQ | DISPLAY_FREQ | CHANGE_RATIO;  /* set flags */
      }
      else                         /* ratio mode */
      {
        /* decrease ratio */
        if (Ratio > Step)          /* no underflow */
    704c:	8d 15       	cp	r24, r13
    704e:	10 f4       	brcc	.+4      	; 0x7054 <PWM_Tool+0x2a4>
        {
          Ratio -= Step;           /* new ratio */
    7050:	d8 1a       	sub	r13, r24
    7052:	01 c0       	rjmp	.+2      	; 0x7056 <PWM_Tool+0x2a6>
        }
        else                       /* underflow */
        {
          Ratio = 0;               /* lower limit is 0 */
    7054:	d1 2c       	mov	r13, r1
        }

        Flag |= CHANGE_RATIO | DISPLAY_RATIO;     /* set flags */
    7056:	c4 61       	ori	r28, 0x14	; 20
    7058:	d2 e0       	ldi	r29, 0x02	; 2
    705a:	e0 ce       	rjmp	.-576    	; 0x6e1c <PWM_Tool+0x6c>

  /*
   *  clean up
   */

  TCCR1B = 0;                 /* disable timer */
    705c:	10 92 81 00 	sts	0x0081, r1	; 0x800081 <__DATA_REGION_ORIGIN__+0x21>
  TCCR1A = 0;                 /* reset flags (also frees PB2) */
    7060:	10 92 80 00 	sts	0x0080, r1	; 0x800080 <__DATA_REGION_ORIGIN__+0x20>

  #ifndef HW_FIXED_SIGNAL_OUTPUT
  R_DDR = 0;                            /* set HiZ mode */
    7064:	14 b8       	out	0x04, r1	; 4
  #undef DISPLAY_RATIO
  #undef DISPLAY_FREQ
  #undef CHANGE_RATIO
  #undef CHANGE_FREQ
  #undef RUN_FLAG
}
    7066:	cd b7       	in	r28, 0x3d	; 61
    7068:	de b7       	in	r29, 0x3e	; 62
    706a:	e2 e1       	ldi	r30, 0x12	; 18
    706c:	0c 94 33 3f 	jmp	0x7e66	; 0x7e66 <__epilogue_restores__>
  Ratio = 50;                      /* 50% PWM ratio */
  Prescaler = 1;
  Index = 0;
  Bits = (1 << CS10);              /* prescaler register bits for 1 */
  Top = (CPU_FREQ / 2000);         /* 1kHz */
  Flag = RUN_FLAG | CHANGE_FREQ | CHANGE_RATIO | DISPLAY_FREQ | DISPLAY_RATIO;
    7070:	ab 2c       	mov	r10, r11
    7072:	14 cf       	rjmp	.-472    	; 0x6e9c <PWM_Tool+0xec>

00007074 <SquareWave_SignalGenerator>:
 *  - requires additional keys (e.g. rotary encoder)
 *  - requires idle sleep mode to keep timer running when MCU is sleeping
 */

void SquareWave_SignalGenerator(void)
{
    7074:	a0 e0       	ldi	r26, 0x00	; 0
    7076:	b0 e0       	ldi	r27, 0x00	; 0
    7078:	e0 e4       	ldi	r30, 0x40	; 64
    707a:	f8 e3       	ldi	r31, 0x38	; 56
    707c:	0c 94 17 3f 	jmp	0x7e2e	; 0x7e2e <__prologue_saves__>
      64         125kHz     1.9Hz        31.25kHz
      256        31.25kHz   0.5Hz        7812.5Hz
      1024       7812.5Hz   0.12Hz       1953.125Hz 
  */

  ShortCircuit(0);                      /* make sure probes are not shorted */
    7080:	80 e0       	ldi	r24, 0x00	; 0
    7082:	0e 94 4d 15 	call	0x2a9a	; 0x2a9a <ShortCircuit>
  LCD_Clear();
    7086:	0e 94 31 3b 	call	0x7662	; 0x7662 <LCD_Clear>
  Display_EEString_Space(SquareWave_str);    /* display: Square Wave */
    708a:	8f e0       	ldi	r24, 0x0F	; 15
    708c:	92 e0       	ldi	r25, 0x02	; 2
    708e:	0e 94 72 20 	call	0x40e4	; 0x40e4 <Display_EEString_Space>
  #ifndef HW_FIXED_SIGNAL_OUTPUT
  ProbePinout(PROBES_PWM);              /* show probes used */
    7092:	80 e0       	ldi	r24, 0x00	; 0
    7094:	0e 94 5d 34 	call	0x68ba	; 0x68ba <ProbePinout>
  #endif

  #ifndef HW_FIXED_SIGNAL_OUTPUT
  /* probes 1 and 3 are signal ground, probe 2 is signal output */
  ADC_PORT = 0;                         /* pull down directly: */
    7098:	18 b8       	out	0x08, r1	; 8
  ADC_DDR = (1 << TP1) | (1 << TP3);    /* probe 1 & 3 */
    709a:	85 e0       	ldi	r24, 0x05	; 5
    709c:	87 b9       	out	0x07, r24	; 7
  R_DDR = (1 << R_RL_2);                /* enable Rl for probe 2 */
    709e:	84 e0       	ldi	r24, 0x04	; 4
    70a0:	84 b9       	out	0x04, r24	; 4
  R_PORT = 0;                           /* pull down probe 2 initially */
    70a2:	15 b8       	out	0x05, r1	; 5
   *  - top value by OCR1A
   *  - OC1B non-inverted output
   */

  /* enable OC1B pin and set timer mode */
  TCCR1A = (1 << WGM11) | (1 << WGM10) | (1 << COM1B1) | (1 << COM1B0);
    70a4:	83 e3       	ldi	r24, 0x33	; 51
    70a6:	80 93 80 00 	sts	0x0080, r24	; 0x800080 <__DATA_REGION_ORIGIN__+0x20>
  TCCR1B = (1 << WGM13) | (1 << WGM12);
    70aa:	88 e1       	ldi	r24, 0x18	; 24
    70ac:	80 93 81 00 	sts	0x0081, r24	; 0x800081 <__DATA_REGION_ORIGIN__+0x21>

  /* set values for default frequency: 1kHz */
  Index = 0;                       /* prescaler 1/1 */
  Prescaler = 1;                   /* prescaler 1/1 */
  Bits = (1 << CS10);              /* register bits for prescaler 1 */
  Top = (CPU_FREQ / 1000) - 1;     /* top = f_MCU / (prescaler * f_PWM) - 1 */
    70b0:	cf e3       	ldi	r28, 0x3F	; 63
    70b2:	df e1       	ldi	r29, 0x1F	; 31
   *  processing loop
   */

  /* set values for default frequency: 1kHz */
  Index = 0;                       /* prescaler 1/1 */
  Prescaler = 1;                   /* prescaler 1/1 */
    70b4:	01 e0       	ldi	r16, 0x01	; 1
    70b6:	10 e0       	ldi	r17, 0x00	; 0
  Bits = (1 << CS10);              /* register bits for prescaler 1 */
    70b8:	dd 24       	eor	r13, r13
    70ba:	d3 94       	inc	r13
  /*
   *  processing loop
   */

  /* set values for default frequency: 1kHz */
  Index = 0;                       /* prescaler 1/1 */
    70bc:	f1 2c       	mov	r15, r1
    /*
     *  change timer settings
     */

    /* update timer */
    TCCR1B = (1 << WGM13) | (1 << WGM12);    /* stop timer */
    70be:	e8 e1       	ldi	r30, 0x18	; 24
    70c0:	7e 2e       	mov	r7, r30
     *  display frequency
     *  - f_PWM = f_MCU / (prescaler * (1 + top))
     */

    Value = CPU_FREQ * 100;        /* scale to 0.01Hz */
    Value /= Prescaler;
    70c2:	81 2c       	mov	r8, r1
    70c4:	f8 e0       	ldi	r31, 0x08	; 8
    70c6:	9f 2e       	mov	r9, r31
    70c8:	ff ea       	ldi	r31, 0xAF	; 175
    70ca:	af 2e       	mov	r10, r31
    70cc:	ff e2       	ldi	r31, 0x2F	; 47
    70ce:	bf 2e       	mov	r11, r31
     */

    Test = Index;

    /* check if we should change the range */
    if (Top > 0x7FFF)              /* more than 15 bits */
    70d0:	d7 ff       	sbrs	r29, 7
    70d2:	07 c0       	rjmp	.+14     	; 0x70e2 <SquareWave_SignalGenerator+0x6e>
    {
      if (Index < (NUM_TIMER1 - 1))     /* don't exceed upper prescaler limit */
    70d4:	83 e0       	ldi	r24, 0x03	; 3
    70d6:	8f 15       	cp	r24, r15
    70d8:	08 f4       	brcc	.+2      	; 0x70dc <SquareWave_SignalGenerator+0x68>
    70da:	be c0       	rjmp	.+380    	; 0x7258 <SquareWave_SignalGenerator+0x1e4>
      {
        Index++;                   /* increase prescaler */
    70dc:	ee 24       	eor	r14, r14
    70de:	e3 94       	inc	r14
    70e0:	0a c0       	rjmp	.+20     	; 0x70f6 <SquareWave_SignalGenerator+0x82>
      }
    }
    else if (Top < 0x0FFF)         /* less than 12 bits */
    70e2:	cf 3f       	cpi	r28, 0xFF	; 255
    70e4:	9f e0       	ldi	r25, 0x0F	; 15
    70e6:	d9 07       	cpc	r29, r25
    70e8:	08 f0       	brcs	.+2      	; 0x70ec <SquareWave_SignalGenerator+0x78>
    70ea:	b6 c0       	rjmp	.+364    	; 0x7258 <SquareWave_SignalGenerator+0x1e4>
    {
      if (Index > 0)               /* don't exceed lower prescaler limit */
    70ec:	ff 20       	and	r15, r15
    70ee:	09 f4       	brne	.+2      	; 0x70f2 <SquareWave_SignalGenerator+0x7e>
    70f0:	b3 c0       	rjmp	.+358    	; 0x7258 <SquareWave_SignalGenerator+0x1e4>
      {
        Index--;                   /* decrease prescaler */
    70f2:	ee 24       	eor	r14, r14
    70f4:	ea 94       	dec	r14
    70f6:	ef 0c       	add	r14, r15
      }
    }

    /* process changed range */
    if (Index != Test)             /* range has changed */
    70f8:	ef 14       	cp	r14, r15
    70fa:	61 f1       	breq	.+88     	; 0x7154 <SquareWave_SignalGenerator+0xe0>
    {
      Step = Prescaler;            /* save old value */

      /* read new prescaler and register bits from table */
      Prescaler = DATA_read_word(&T1_Prescaler_table[Index]);
    70fc:	ce 2c       	mov	r12, r14
    70fe:	d1 2c       	mov	r13, r1
    7100:	c6 01       	movw	r24, r12
    7102:	88 0f       	add	r24, r24
    7104:	99 1f       	adc	r25, r25
    7106:	8b 5c       	subi	r24, 0xCB	; 203
    7108:	9f 4f       	sbci	r25, 0xFF	; 255
    710a:	0e 94 a2 3f 	call	0x7f44	; 0x7f44 <eeprom_read_word>
    710e:	58 2e       	mov	r5, r24
    7110:	69 2e       	mov	r6, r25
      Bits = DATA_read_byte(&T1_RegBits_table[Index]);
    7112:	c6 01       	movw	r24, r12
    7114:	80 5d       	subi	r24, 0xD0	; 208
    7116:	9f 4f       	sbci	r25, 0xFF	; 255
    7118:	0e 94 9a 3f 	call	0x7f34	; 0x7f34 <eeprom_read_byte>
    711c:	d8 2e       	mov	r13, r24

      /* adjust top value for changed prescaler */
      if (Index > Test)            /* larger prescaler */
    711e:	fe 14       	cp	r15, r14
    7120:	50 f4       	brcc	.+20     	; 0x7136 <SquareWave_SignalGenerator+0xc2>
      {
        /* decrease top value by same factor as the prescaler increased */
        Temp = Prescaler / Step;
        Top /= Temp;
    7122:	85 2d       	mov	r24, r5
    7124:	96 2d       	mov	r25, r6
    7126:	b8 01       	movw	r22, r16
    7128:	0e 94 87 3e 	call	0x7d0e	; 0x7d0e <__udivmodhi4>
    712c:	ce 01       	movw	r24, r28
    712e:	0e 94 87 3e 	call	0x7d0e	; 0x7d0e <__udivmodhi4>
    7132:	eb 01       	movw	r28, r22
    7134:	0d c0       	rjmp	.+26     	; 0x7150 <SquareWave_SignalGenerator+0xdc>
      }
      else                         /* smaller prescaler */
      {
        /* increase top value by same factor as the prescaler decreased */
        Temp = Step / Prescaler;
        Top *= Temp;  
    7136:	c8 01       	movw	r24, r16
    7138:	65 2d       	mov	r22, r5
    713a:	76 2d       	mov	r23, r6
    713c:	0e 94 87 3e 	call	0x7d0e	; 0x7d0e <__udivmodhi4>
    7140:	ce 01       	movw	r24, r28
    7142:	86 9f       	mul	r24, r22
    7144:	e0 01       	movw	r28, r0
    7146:	87 9f       	mul	r24, r23
    7148:	d0 0d       	add	r29, r0
    714a:	96 9f       	mul	r25, r22
    714c:	d0 0d       	add	r29, r0
    714e:	11 24       	eor	r1, r1
    if (Index != Test)             /* range has changed */
    {
      Step = Prescaler;            /* save old value */

      /* read new prescaler and register bits from table */
      Prescaler = DATA_read_word(&T1_Prescaler_table[Index]);
    7150:	05 2d       	mov	r16, r5
    7152:	16 2d       	mov	r17, r6
    /*
     *  change timer settings
     */

    /* update timer */
    TCCR1B = (1 << WGM13) | (1 << WGM12);    /* stop timer */
    7154:	70 92 81 00 	sts	0x0081, r7	; 0x800081 <__DATA_REGION_ORIGIN__+0x21>
    TCNT1 = 0;                               /* reset counter */
    7158:	10 92 85 00 	sts	0x0085, r1	; 0x800085 <__DATA_REGION_ORIGIN__+0x25>
    715c:	10 92 84 00 	sts	0x0084, r1	; 0x800084 <__DATA_REGION_ORIGIN__+0x24>
    OCR1B = Top / 2;                         /* 50% duty cycle */
    7160:	ce 01       	movw	r24, r28
    7162:	96 95       	lsr	r25
    7164:	87 95       	ror	r24
    7166:	90 93 8b 00 	sts	0x008B, r25	; 0x80008b <__DATA_REGION_ORIGIN__+0x2b>
    716a:	80 93 8a 00 	sts	0x008A, r24	; 0x80008a <__DATA_REGION_ORIGIN__+0x2a>
    OCR1A = Top;                             /* top value for frequency */
    716e:	d0 93 89 00 	sts	0x0089, r29	; 0x800089 <__DATA_REGION_ORIGIN__+0x29>
    7172:	c0 93 88 00 	sts	0x0088, r28	; 0x800088 <__DATA_REGION_ORIGIN__+0x28>
    TCCR1B = (1 << WGM13) | (1 << WGM12) | Bits;    /* (re)start timer */
    7176:	8d 2d       	mov	r24, r13
    7178:	88 61       	ori	r24, 0x18	; 24
    717a:	80 93 81 00 	sts	0x0081, r24	; 0x800081 <__DATA_REGION_ORIGIN__+0x21>
     *  display frequency
     *  - f_PWM = f_MCU / (prescaler * (1 + top))
     */

    Value = CPU_FREQ * 100;        /* scale to 0.01Hz */
    Value /= Prescaler;
    717e:	98 01       	movw	r18, r16
    7180:	40 e0       	ldi	r20, 0x00	; 0
    7182:	50 e0       	ldi	r21, 0x00	; 0
    7184:	c5 01       	movw	r24, r10
    7186:	b4 01       	movw	r22, r8
    7188:	0e 94 af 3e 	call	0x7d5e	; 0x7d5e <__udivmodsi4>
     *  optimize resolution of frequency without causing an overflow
     *  prescaler       :  1  8  64  256  1024
     *  decimal places  :  2  3   4    4     5
     */

    Temp = Prescaler;
    718c:	f8 01       	movw	r30, r16
     *  - f_PWM = f_MCU / (prescaler * (1 + top))
     */

    Value = CPU_FREQ * 100;        /* scale to 0.01Hz */
    Value /= Prescaler;
    Test = 2;                      /* 2 decimal places */
    718e:	62 e0       	ldi	r22, 0x02	; 2
    7190:	f6 2e       	mov	r15, r22
     *  prescaler       :  1  8  64  256  1024
     *  decimal places  :  2  3   4    4     5
     */

    Temp = Prescaler;
    while (Temp >= 8)         /* loop through prescaler steps */
    7192:	e8 30       	cpi	r30, 0x08	; 8
    7194:	f1 05       	cpc	r31, r1
    7196:	68 f0       	brcs	.+26     	; 0x71b2 <SquareWave_SignalGenerator+0x13e>
    {
      Value *= 10;            /* scale by factor 0.1 */
    7198:	aa e0       	ldi	r26, 0x0A	; 10
    719a:	b0 e0       	ldi	r27, 0x00	; 0
    719c:	0e 94 0c 3f 	call	0x7e18	; 0x7e18 <__muluhisi3>
    71a0:	9b 01       	movw	r18, r22
    71a2:	ac 01       	movw	r20, r24
      Test++;                 /* one decimal place more */
    71a4:	f3 94       	inc	r15
      Temp /= 8;              /* next lower prescaler */
    71a6:	83 e0       	ldi	r24, 0x03	; 3
    71a8:	f6 95       	lsr	r31
    71aa:	e7 95       	ror	r30
    71ac:	8a 95       	dec	r24
    71ae:	e1 f7       	brne	.-8      	; 0x71a8 <SquareWave_SignalGenerator+0x134>
    71b0:	f0 cf       	rjmp	.-32     	; 0x7192 <SquareWave_SignalGenerator+0x11e>
    }

    Value /= Top + 1;
    71b2:	1e 01       	movw	r2, r28
    71b4:	9f ef       	ldi	r25, 0xFF	; 255
    71b6:	29 1a       	sub	r2, r25
    71b8:	39 0a       	sbc	r3, r25
    71ba:	41 2c       	mov	r4, r1
    71bc:	51 2c       	mov	r5, r1
    71be:	ca 01       	movw	r24, r20
    71c0:	b9 01       	movw	r22, r18
    71c2:	a2 01       	movw	r20, r4
    71c4:	91 01       	movw	r18, r2
    71c6:	0e 94 af 3e 	call	0x7d5e	; 0x7d5e <__udivmodsi4>
    71ca:	19 01       	movw	r2, r18
    71cc:	2a 01       	movw	r4, r20
    LCD_ClearLine2();
    71ce:	0e 94 8f 20 	call	0x411e	; 0x411e <LCD_ClearLine2>
    Display_FullValue(Value, Test, 0);  /* display frequency */
    71d2:	20 e0       	ldi	r18, 0x00	; 0
    71d4:	4f 2d       	mov	r20, r15
    71d6:	c2 01       	movw	r24, r4
    71d8:	b1 01       	movw	r22, r2
    71da:	0e 94 ab 20 	call	0x4156	; 0x4156 <Display_FullValue>
    Display_EEString(Hertz_str);        /* display: Hz */
    71de:	8b e3       	ldi	r24, 0x3B	; 59
    71e0:	92 e0       	ldi	r25, 0x02	; 2
    71e2:	0e 94 43 20 	call	0x4086	; 0x4086 <Display_EEString>
    /*
     *  user feedback
     */

    /* wait for user feedback */
    Test = TestKey(0, CHECK_KEY_TWICE | CHECK_BAT);
    71e6:	68 e1       	ldi	r22, 0x18	; 24
    71e8:	80 e0       	ldi	r24, 0x00	; 0
    71ea:	90 e0       	ldi	r25, 0x00	; 0
    71ec:	0e 94 0b 14 	call	0x2816	; 0x2816 <TestKey>

    /* consider rotary encoder's turning velocity */
    Step = UI.KeyStep;             /* get velocity (1-7) */
    71f0:	40 91 34 01 	lds	r20, 0x0134	; 0x800134 <UI+0xe>
    71f4:	24 2f       	mov	r18, r20
    71f6:	30 e0       	ldi	r19, 0x00	; 0

    if (Step > 1)                  /* larger step */
    71f8:	22 30       	cpi	r18, 0x02	; 2
    71fa:	31 05       	cpc	r19, r1
    71fc:	48 f0       	brcs	.+18     	; 0x7210 <SquareWave_SignalGenerator+0x19c>
    {
      /* increase step size based on turning velocity */

      /* step^4: 16 81 256 625 1296 2401 */
      Step *= Step;                /* ^2 */
    71fe:	44 9f       	mul	r20, r20
    7200:	a0 01       	movw	r20, r0
    7202:	11 24       	eor	r1, r1
      Step *= Step;                /* ^2 */
    7204:	44 9f       	mul	r20, r20
    7206:	90 01       	movw	r18, r0
    7208:	45 9f       	mul	r20, r21
    720a:	30 0d       	add	r19, r0
    720c:	30 0d       	add	r19, r0
    720e:	11 24       	eor	r1, r1
    }

    /* process user input */
    if (Test == KEY_RIGHT)         /* encoder: right turn */
    7210:	84 30       	cpi	r24, 0x04	; 4
    7212:	51 f4       	brne	.+20     	; 0x7228 <SquareWave_SignalGenerator+0x1b4>
    {
      /* increase frequency -> decrease top value */
      Temp = Top - Step;                /* take advantage of underflow */
    7214:	ce 01       	movw	r24, r28
    7216:	82 1b       	sub	r24, r18
    7218:	93 0b       	sbc	r25, r19
      if ((Temp > Top) || (Temp < 0x003))    /* underflow */
    721a:	c8 17       	cp	r28, r24
    721c:	d9 07       	cpc	r29, r25
    721e:	40 f1       	brcs	.+80     	; 0x7270 <SquareWave_SignalGenerator+0x1fc>
    7220:	83 30       	cpi	r24, 0x03	; 3
    7222:	91 05       	cpc	r25, r1
    7224:	40 f5       	brcc	.+80     	; 0x7276 <SquareWave_SignalGenerator+0x202>
    7226:	24 c0       	rjmp	.+72     	; 0x7270 <SquareWave_SignalGenerator+0x1fc>
      {
        Temp = 0x0003;                  /* lower limit */
      }
      Top = Temp;                       /* set new value */
    }
    else if (Test == KEY_LEFT)     /* encoder: left turn */
    7228:	85 30       	cpi	r24, 0x05	; 5
    722a:	51 f4       	brne	.+20     	; 0x7240 <SquareWave_SignalGenerator+0x1cc>
    {
      /* decrease frequency -> increase top value */
      Temp = Top + Step;                /* take advantage of overflow */
    722c:	2c 0f       	add	r18, r28
    722e:	3d 1f       	adc	r19, r29
      if ((Temp < Top)  || (Temp == 0xFFFF))      /* overflow */
    7230:	2c 17       	cp	r18, r28
    7232:	3d 07       	cpc	r19, r29
    7234:	10 f1       	brcs	.+68     	; 0x727a <SquareWave_SignalGenerator+0x206>
    7236:	2f 3f       	cpi	r18, 0xFF	; 255
    7238:	8f ef       	ldi	r24, 0xFF	; 255
    723a:	38 07       	cpc	r19, r24
    723c:	09 f5       	brne	.+66     	; 0x7280 <SquareWave_SignalGenerator+0x20c>
    723e:	1d c0       	rjmp	.+58     	; 0x727a <SquareWave_SignalGenerator+0x206>
      {
        Temp = 0xFFFE;                  /* upper limit */
      }
      Top = Temp;                       /* set new value */
    }
    else if (Test == KEY_TWICE)    /* two short key presses */
    7240:	83 30       	cpi	r24, 0x03	; 3
    7242:	61 f0       	breq	.+24     	; 0x725c <SquareWave_SignalGenerator+0x1e8>
    {
      Flag = 0;                         /* end loop */
    }
    else if (Test == KEY_LONG)     /* long key press */
    7244:	82 30       	cpi	r24, 0x02	; 2
    7246:	e9 f4       	brne	.+58     	; 0x7282 <SquareWave_SignalGenerator+0x20e>
    {
      /* set default frequency: 1kHz */
      Index = 0;                        /* prescaler 1/1 */
      Prescaler = 1;                    /* prescaler 1/1 */
      Bits = (1 << CS10);               /* register bits for prescaler 1 */
      Top = (CPU_FREQ / 1000) - 1;      /* top = f_MCU / (prescaler * f) - 1 */
    7248:	cf e3       	ldi	r28, 0x3F	; 63
    724a:	df e1       	ldi	r29, 0x1F	; 31
    }
    else if (Test == KEY_LONG)     /* long key press */
    {
      /* set default frequency: 1kHz */
      Index = 0;                        /* prescaler 1/1 */
      Prescaler = 1;                    /* prescaler 1/1 */
    724c:	01 e0       	ldi	r16, 0x01	; 1
    724e:	10 e0       	ldi	r17, 0x00	; 0
      Bits = (1 << CS10);               /* register bits for prescaler 1 */
    7250:	dd 24       	eor	r13, r13
    7252:	d3 94       	inc	r13
      Flag = 0;                         /* end loop */
    }
    else if (Test == KEY_LONG)     /* long key press */
    {
      /* set default frequency: 1kHz */
      Index = 0;                        /* prescaler 1/1 */
    7254:	e1 2c       	mov	r14, r1
    7256:	15 c0       	rjmp	.+42     	; 0x7282 <SquareWave_SignalGenerator+0x20e>
  /*
   *  processing loop
   */

  /* set values for default frequency: 1kHz */
  Index = 0;                       /* prescaler 1/1 */
    7258:	ef 2c       	mov	r14, r15
    725a:	7c cf       	rjmp	.-264    	; 0x7154 <SquareWave_SignalGenerator+0xe0>

  /*
   *  clean up
   */

  TCCR1B = 0;                 /* disable timer */
    725c:	10 92 81 00 	sts	0x0081, r1	; 0x800081 <__DATA_REGION_ORIGIN__+0x21>
  TCCR1A = 0;                 /* reset flags (also frees PB2) */
    7260:	10 92 80 00 	sts	0x0080, r1	; 0x800080 <__DATA_REGION_ORIGIN__+0x20>

  #ifndef HW_FIXED_SIGNAL_OUTPUT
  R_DDR = 0;                  /* set HiZ mode */
    7264:	14 b8       	out	0x04, r1	; 4
  #endif

  #ifdef HW_FIXED_SIGNAL_OUTPUT
  SIGNAL_DDR &= ~(1 << SIGNAL_OUT);     /* set HiZ mode */
  #endif
}
    7266:	cd b7       	in	r28, 0x3d	; 61
    7268:	de b7       	in	r29, 0x3e	; 62
    726a:	e2 e1       	ldi	r30, 0x12	; 18
    726c:	0c 94 33 3f 	jmp	0x7e66	; 0x7e66 <__epilogue_restores__>
    {
      /* increase frequency -> decrease top value */
      Temp = Top - Step;                /* take advantage of underflow */
      if ((Temp > Top) || (Temp < 0x003))    /* underflow */
      {
        Temp = 0x0003;                  /* lower limit */
    7270:	c3 e0       	ldi	r28, 0x03	; 3
    7272:	d0 e0       	ldi	r29, 0x00	; 0
    7274:	06 c0       	rjmp	.+12     	; 0x7282 <SquareWave_SignalGenerator+0x20e>
    7276:	ec 01       	movw	r28, r24
    7278:	04 c0       	rjmp	.+8      	; 0x7282 <SquareWave_SignalGenerator+0x20e>
    {
      /* decrease frequency -> increase top value */
      Temp = Top + Step;                /* take advantage of overflow */
      if ((Temp < Top)  || (Temp == 0xFFFF))      /* overflow */
      {
        Temp = 0xFFFE;                  /* upper limit */
    727a:	ce ef       	ldi	r28, 0xFE	; 254
    727c:	df ef       	ldi	r29, 0xFF	; 255
    727e:	01 c0       	rjmp	.+2      	; 0x7282 <SquareWave_SignalGenerator+0x20e>
    7280:	e9 01       	movw	r28, r18
 *  - requires additional keys (e.g. rotary encoder)
 *  - requires idle sleep mode to keep timer running when MCU is sleeping
 */

void SquareWave_SignalGenerator(void)
{
    7282:	fe 2c       	mov	r15, r14
    7284:	25 cf       	rjmp	.-438    	; 0x70d0 <SquareWave_SignalGenerator+0x5c>

00007286 <__vector_16>:
 *  ISR for overflow of Timer0
 *  - catch overflows of pulse counter 
 */

ISR(TIMER0_OVF_vect, ISR_BLOCK)
{
    7286:	1f 92       	push	r1
    7288:	0f 92       	push	r0
    728a:	0f b6       	in	r0, 0x3f	; 63
    728c:	0f 92       	push	r0
    728e:	11 24       	eor	r1, r1
    7290:	8f 93       	push	r24
    7292:	9f 93       	push	r25
   *  - the TOV0 interrupt flag is cleared automatically
   *  - interrupt processing is disabled while this ISR runs
   *    (no nested interrupts)
   */

  Pulses += 256;              /* add overflow to global counter */
    7294:	80 91 ed 01 	lds	r24, 0x01ED	; 0x8001ed <Pulses>
    7298:	90 91 ee 01 	lds	r25, 0x01EE	; 0x8001ee <Pulses+0x1>
    729c:	93 95       	inc	r25
    729e:	90 93 ee 01 	sts	0x01EE, r25	; 0x8001ee <Pulses+0x1>
    72a2:	80 93 ed 01 	sts	0x01ED, r24	; 0x8001ed <Pulses>
}
    72a6:	9f 91       	pop	r25
    72a8:	8f 91       	pop	r24
    72aa:	0f 90       	pop	r0
    72ac:	0f be       	out	0x3f, r0	; 63
    72ae:	0f 90       	pop	r0
    72b0:	1f 90       	pop	r1
    72b2:	18 95       	reti

000072b4 <__vector_11>:
 *  ISR for match of Timer1's OCR1A (Output Compare Register A)
 *  - for gate time of frequency counter
 */

ISR(TIMER1_COMPA_vect, ISR_BLOCK)
{
    72b4:	1f 92       	push	r1
    72b6:	0f 92       	push	r0
    72b8:	0f b6       	in	r0, 0x3f	; 63
    72ba:	0f 92       	push	r0
    72bc:	11 24       	eor	r1, r1
    72be:	8f 93       	push	r24
    72c0:	ef 93       	push	r30
    72c2:	ff 93       	push	r31
   *  - interrupt processing is disabled while this ISR runs
   *    (no nested interrupts)
   */

  /* gate time has passed */
  TCCR1B = 0;                 /* disable Timer1 */
    72c4:	10 92 81 00 	sts	0x0081, r1	; 0x800081 <__DATA_REGION_ORIGIN__+0x21>
  TCCR0B = 0;                 /* disable Timer0 */
    72c8:	15 bc       	out	0x25, r1	; 37

  /* break TestKey() processing */
  Cfg.OP_Control |= OP_BREAK_KEY;       /* set break signal */
    72ca:	e0 ea       	ldi	r30, 0xA0	; 160
    72cc:	f1 e0       	ldi	r31, 0x01	; 1
    72ce:	81 81       	ldd	r24, Z+1	; 0x01
    72d0:	81 60       	ori	r24, 0x01	; 1
    72d2:	81 83       	std	Z+1, r24	; 0x01
}
    72d4:	ff 91       	pop	r31
    72d6:	ef 91       	pop	r30
    72d8:	8f 91       	pop	r24
    72da:	0f 90       	pop	r0
    72dc:	0f be       	out	0x3f, r0	; 63
    72de:	0f 90       	pop	r0
    72e0:	1f 90       	pop	r1
    72e2:	18 95       	reti

000072e4 <FrequencyCounter>:
 *  - frequency input: T0
 *  - requires idle sleep mode to keep timers running when MCU is sleeping
 */

void FrequencyCounter(void)
{
    72e4:	a0 e0       	ldi	r26, 0x00	; 0
    72e6:	b0 e0       	ldi	r27, 0x00	; 0
    72e8:	e8 e7       	ldi	r30, 0x78	; 120
    72ea:	f9 e3       	ldi	r31, 0x39	; 57
    72ec:	0c 94 17 3f 	jmp	0x7e2e	; 0x7e2e <__prologue_saves__>
  #define WAIT_FLAG      2         /* enter/run waiting loop */
  #define GATE_FLAG      3         /* gatetime flag */
  #define SHOW_FREQ      4         /* display frequency */

  /* show info */
  LCD_Clear();                          /* clear display */
    72f0:	0e 94 31 3b 	call	0x7662	; 0x7662 <LCD_Clear>
  Display_EEString(FreqCounter_str);    /* display: Freq. Counter */
    72f4:	87 ef       	ldi	r24, 0xF7	; 247
    72f6:	91 e0       	ldi	r25, 0x01	; 1
    72f8:	0e 94 43 20 	call	0x4086	; 0x4086 <Display_EEString>
  /* start values for autoranging (assuming high frequency) */
  GateTime = 10;                   /* gate time 10ms */
  Index = 1;                       /* prescaler table index (prescaler 8:1) */

  /* set up Timer0 (pulse counter) */
  TCCR0A = 0;                      /* normal mode (count up) */
    72fc:	14 bc       	out	0x24, r1	; 36
  TIFR0 = (1 << TOV0);             /* clear overflow flag */
    72fe:	81 e0       	ldi	r24, 0x01	; 1
    7300:	85 bb       	out	0x15, r24	; 21
  TIMSK0 = (1 << TOIE0);           /* enable overflow interrupt */
    7302:	80 93 6e 00 	sts	0x006E, r24	; 0x80006e <__DATA_REGION_ORIGIN__+0xe>

  /* set up Timer1 (gate time) */
  TCCR1A = 0;                      /* normal mode (count up) */
    7306:	10 92 80 00 	sts	0x0080, r1	; 0x800080 <__DATA_REGION_ORIGIN__+0x20>
  TIFR1 = (1 << OCF1A);            /* clear output compare A match flag */
    730a:	82 e0       	ldi	r24, 0x02	; 2
    730c:	86 bb       	out	0x16, r24	; 22
  TIMSK1 = (1 << OCIE1A);          /* enable output compare A match interrupt */
    730e:	80 93 6f 00 	sts	0x006F, r24	; 0x80006f <__DATA_REGION_ORIGIN__+0xf>
      10kHz-100kHz      100ms         64  all        1k-10k
      >100kHz            10ms          8  all        >1k (<50k)
   */

  /* start values for autoranging (assuming high frequency) */
  GateTime = 10;                   /* gate time 10ms */
    7312:	ca e0       	ldi	r28, 0x0A	; 10
    7314:	d0 e0       	ldi	r29, 0x00	; 0
  Index = 1;                       /* prescaler table index (prescaler 8:1) */
    7316:	11 e0       	ldi	r17, 0x01	; 1
    Flag = WAIT_FLAG;                   /* enter waiting loop */
    TCNT0 = 0;                          /* Timer0: reset pulse counter */
    TCNT1 = 0;                          /* Timer1: reset gate time counter */
    OCR1A = Top;                        /* Timer1: set gate time */
    TCCR1B = Bits;                      /* start Timer1: prescaler */
    TCCR0B = (1 << CS02) | (1 << CS01); /* start Timer0: clock source T0 on falling edge */
    7318:	36 e0       	ldi	r19, 0x06	; 6
    731a:	33 2e       	mov	r3, r19
      }
      else if (Pulses < 1000)           /* range underrun */
      {
        if (GateTime < 1000)            /* lower range limit not reached yet */
        {
          GateTime *= 10;               /* 1ms -> 10ms -> 100ms -> 1000ms */
    731c:	4a e0       	ldi	r20, 0x0A	; 10
    731e:	24 2e       	mov	r2, r20
      /* autoranging */
      if (Pulses > 10000)               /* range overrun */
      {
        if (GateTime > 10)              /* upper range limit not reached yet */
        {
          GateTime /= 10;               /* 1000ms -> 100ms -> 10ms */
    7320:	5a e0       	ldi	r21, 0x0A	; 10
    7322:	a5 2e       	mov	r10, r21
    7324:	b1 2c       	mov	r11, r1
   */

  while (Flag > 0)
  {
    /* set up T0 as input (pin might be shared with display) */
    Old_DDR = COUNTER_DDR;              /* save current settings */
    7326:	9a b0       	in	r9, 0x0a	; 10
    COUNTER_DDR &= ~(1 << COUNTER_IN);  /* signal input */
    7328:	54 98       	cbi	0x0a, 4	; 10
    wait500us();                        /* settle time */
    732a:	0e 94 7f 3c 	call	0x78fe	; 0x78fe <wait500us>

    /* update prescaler */
    Top = DATA_read_word(&T1_Prescaler_table[Index]);  /* prescaler value */
    732e:	c1 2e       	mov	r12, r17
    7330:	d1 2c       	mov	r13, r1
    7332:	c6 01       	movw	r24, r12
    7334:	88 0f       	add	r24, r24
    7336:	99 1f       	adc	r25, r25
    7338:	8b 5c       	subi	r24, 0xCB	; 203
    733a:	9f 4f       	sbci	r25, 0xFF	; 255
    733c:	0e 94 a2 3f 	call	0x7f44	; 0x7f44 <eeprom_read_word>
    7340:	7c 01       	movw	r14, r24
    Bits = DATA_read_byte(&T1_RegBits_table[Index]);   /* prescaler bits */
    7342:	c6 01       	movw	r24, r12
    7344:	80 5d       	subi	r24, 0xD0	; 208
    7346:	9f 4f       	sbci	r25, 0xFF	; 255
    7348:	0e 94 9a 3f 	call	0x7f34	; 0x7f34 <eeprom_read_byte>
    734c:	88 2e       	mov	r8, r24

    /* calculate compare value for Timer1 (gate time) */
    /* top = gatetime * MCU_cycles / timer prescaler */
    Value = GateTime;                   /* gatetime (in ms) */
    734e:	2e 01       	movw	r4, r28
    7350:	61 2c       	mov	r6, r1
    7352:	71 2c       	mov	r7, r1
    /* * MCU cycles per s and scale gatetime to s */
    Value *= (MCU_CYCLES_PER_US * 1000);
    7354:	9e 01       	movw	r18, r28
    7356:	a0 e4       	ldi	r26, 0x40	; 64
    7358:	bf e1       	ldi	r27, 0x1F	; 31
    735a:	0e 94 f6 3e 	call	0x7dec	; 0x7dec <__umulhisi3>
    Value /= Top;                       /* divide by timer prescaler */
    735e:	97 01       	movw	r18, r14
    7360:	40 e0       	ldi	r20, 0x00	; 0
    7362:	50 e0       	ldi	r21, 0x00	; 0
    7364:	0e 94 af 3e 	call	0x7d5e	; 0x7d5e <__udivmodsi4>
    7368:	69 01       	movw	r12, r18
    736a:	7a 01       	movw	r14, r20
    Top = (uint16_t)Value;              /* use lower 16 bit */

    /* start timers */
    Pulses = 0;                         /* reset pulse counter */
    736c:	10 92 ee 01 	sts	0x01EE, r1	; 0x8001ee <Pulses+0x1>
    7370:	10 92 ed 01 	sts	0x01ED, r1	; 0x8001ed <Pulses>
    Flag = WAIT_FLAG;                   /* enter waiting loop */
    TCNT0 = 0;                          /* Timer0: reset pulse counter */
    7374:	16 bc       	out	0x26, r1	; 38
    TCNT1 = 0;                          /* Timer1: reset gate time counter */
    7376:	10 92 85 00 	sts	0x0085, r1	; 0x800085 <__DATA_REGION_ORIGIN__+0x25>
    737a:	10 92 84 00 	sts	0x0084, r1	; 0x800084 <__DATA_REGION_ORIGIN__+0x24>
    OCR1A = Top;                        /* Timer1: set gate time */
    737e:	30 93 89 00 	sts	0x0089, r19	; 0x800089 <__DATA_REGION_ORIGIN__+0x29>
    7382:	20 93 88 00 	sts	0x0088, r18	; 0x800088 <__DATA_REGION_ORIGIN__+0x28>
    TCCR1B = Bits;                      /* start Timer1: prescaler */
    7386:	80 92 81 00 	sts	0x0081, r8	; 0x800081 <__DATA_REGION_ORIGIN__+0x21>
    TCCR0B = (1 << CS02) | (1 << CS01); /* start Timer0: clock source T0 on falling edge */
    738a:	35 bc       	out	0x25, r3	; 37

    /* wait for timer1 or key press */
    while (Flag == WAIT_FLAG)
    {
      if (TCCR1B == 0)                  /* Timer1 stopped by ISR */
    738c:	80 91 81 00 	lds	r24, 0x0081	; 0x800081 <__DATA_REGION_ORIGIN__+0x21>
    7390:	88 23       	and	r24, r24
    7392:	49 f0       	breq	.+18     	; 0x73a6 <FrequencyCounter+0xc2>
        Flag = GATE_FLAG;               /* end loop and signal Timer1 event */
      }
      else                              /* Timer1 still running */
      {
        /* wait for user feedback */
        Test = TestKey(0, CHECK_KEY_TWICE | CHECK_BAT);
    7394:	68 e1       	ldi	r22, 0x18	; 24
    7396:	80 e0       	ldi	r24, 0x00	; 0
    7398:	90 e0       	ldi	r25, 0x00	; 0
    739a:	0e 94 0b 14 	call	0x2816	; 0x2816 <TestKey>

        if (Test == KEY_TWICE)          /* two short key presses */
    739e:	83 30       	cpi	r24, 0x03	; 3
    73a0:	a9 f7       	brne	.-22     	; 0x738c <FrequencyCounter+0xa8>
        {
          Flag = 0;                     /* end processing loop */
    73a2:	00 e0       	ldi	r16, 0x00	; 0
    73a4:	01 c0       	rjmp	.+2      	; 0x73a8 <FrequencyCounter+0xc4>
    /* wait for timer1 or key press */
    while (Flag == WAIT_FLAG)
    {
      if (TCCR1B == 0)                  /* Timer1 stopped by ISR */
      {
        Flag = GATE_FLAG;               /* end loop and signal Timer1 event */
    73a6:	03 e0       	ldi	r16, 0x03	; 3
        }
      }
    }

    /* T0 pin might be shared with display */
    COUNTER_DDR = Old_DDR;              /* restore old settings */
    73a8:	9a b8       	out	0x0a, r9	; 10

    Cfg.OP_Control &= ~OP_BREAK_KEY;    /* clear break signal (just in case) */
    73aa:	80 91 a1 01 	lds	r24, 0x01A1	; 0x8001a1 <Cfg+0x1>
    73ae:	8e 7f       	andi	r24, 0xFE	; 254
    73b0:	80 93 a1 01 	sts	0x01A1, r24	; 0x8001a1 <Cfg+0x1>

    /*
     *  process measurement
     */

    if (Flag == GATE_FLAG)              /* got measurement */
    73b4:	03 30       	cpi	r16, 0x03	; 3
    73b6:	09 f0       	breq	.+2      	; 0x73ba <FrequencyCounter+0xd6>
    73b8:	46 c0       	rjmp	.+140    	; 0x7446 <FrequencyCounter+0x162>
    {
      /* total sum of pulses during gate period */
      Pulses += TCNT0;                  /* add counter of Timer0 */
    73ba:	26 b5       	in	r18, 0x26	; 38
    73bc:	80 91 ed 01 	lds	r24, 0x01ED	; 0x8001ed <Pulses>
    73c0:	90 91 ee 01 	lds	r25, 0x01EE	; 0x8001ee <Pulses+0x1>
    73c4:	82 0f       	add	r24, r18
    73c6:	91 1d       	adc	r25, r1
    73c8:	90 93 ee 01 	sts	0x01EE, r25	; 0x8001ee <Pulses+0x1>
    73cc:	80 93 ed 01 	sts	0x01ED, r24	; 0x8001ed <Pulses>
       *  - f = pulses / gatetime
       *  - 20MHz MCU: 5M pulses per second at maximum
       *    with 10ms gate time max. 50k pulses
       */

      Value = Pulses;                   /* number of pulses */
    73d0:	20 91 ed 01 	lds	r18, 0x01ED	; 0x8001ed <Pulses>
    73d4:	30 91 ee 01 	lds	r19, 0x01EE	; 0x8001ee <Pulses+0x1>
      Value *= 1000;                    /* scale to ms */
    73d8:	a8 ee       	ldi	r26, 0xE8	; 232
    73da:	b3 e0       	ldi	r27, 0x03	; 3
    73dc:	0e 94 f6 3e 	call	0x7dec	; 0x7dec <__umulhisi3>
      Value /= GateTime;                /* divide by gatetime (in ms) */
    73e0:	a3 01       	movw	r20, r6
    73e2:	92 01       	movw	r18, r4
    73e4:	0e 94 af 3e 	call	0x7d5e	; 0x7d5e <__udivmodsi4>
    73e8:	69 01       	movw	r12, r18
    73ea:	7a 01       	movw	r14, r20
      Flag = SHOW_FREQ;                 /* display frequency */

      /* autoranging */
      if (Pulses > 10000)               /* range overrun */
    73ec:	80 91 ed 01 	lds	r24, 0x01ED	; 0x8001ed <Pulses>
    73f0:	90 91 ee 01 	lds	r25, 0x01EE	; 0x8001ee <Pulses+0x1>
    73f4:	81 31       	cpi	r24, 0x11	; 17
    73f6:	97 42       	sbci	r25, 0x27	; 39
    73f8:	50 f0       	brcs	.+20     	; 0x740e <FrequencyCounter+0x12a>
      {
        if (GateTime > 10)              /* upper range limit not reached yet */
    73fa:	cb 30       	cpi	r28, 0x0B	; 11
    73fc:	d1 05       	cpc	r29, r1
    73fe:	d8 f0       	brcs	.+54     	; 0x7436 <FrequencyCounter+0x152>
        {
          GateTime /= 10;               /* 1000ms -> 100ms -> 10ms */
    7400:	ce 01       	movw	r24, r28
    7402:	b5 01       	movw	r22, r10
    7404:	0e 94 87 3e 	call	0x7d0e	; 0x7d0e <__udivmodhi4>
    7408:	eb 01       	movw	r28, r22
          Index--;                      /* one prescaler step down */
    740a:	11 50       	subi	r17, 0x01	; 1
    740c:	12 c0       	rjmp	.+36     	; 0x7432 <FrequencyCounter+0x14e>
          if (Index == 3) Index--;      /* skip 256, use 64 */
          #endif
          Flag = RUN_FLAG;              /* don't display frequency */
        }
      }
      else if (Pulses < 1000)           /* range underrun */
    740e:	80 91 ed 01 	lds	r24, 0x01ED	; 0x8001ed <Pulses>
    7412:	90 91 ee 01 	lds	r25, 0x01EE	; 0x8001ee <Pulses+0x1>
    7416:	88 3e       	cpi	r24, 0xE8	; 232
    7418:	93 40       	sbci	r25, 0x03	; 3
    741a:	68 f4       	brcc	.+26     	; 0x7436 <FrequencyCounter+0x152>
      {
        if (GateTime < 1000)            /* lower range limit not reached yet */
    741c:	c8 3e       	cpi	r28, 0xE8	; 232
    741e:	83 e0       	ldi	r24, 0x03	; 3
    7420:	d8 07       	cpc	r29, r24
    7422:	48 f4       	brcc	.+18     	; 0x7436 <FrequencyCounter+0x152>
        {
          GateTime *= 10;               /* 1ms -> 10ms -> 100ms -> 1000ms */
    7424:	ce 01       	movw	r24, r28
    7426:	28 9e       	mul	r2, r24
    7428:	e0 01       	movw	r28, r0
    742a:	29 9e       	mul	r2, r25
    742c:	d0 0d       	add	r29, r0
    742e:	11 24       	eor	r1, r1
          Index++;                      /* one prescaler step up */
    7430:	1f 5f       	subi	r17, 0xFF	; 255
          #if CPU_FREQ > 16000000 
          if (Index == 3) Index++;      /* skip 256, use 1024 */
          #endif
          Flag = RUN_FLAG;              /* don't display frequency */
    7432:	01 e0       	ldi	r16, 0x01	; 1
    7434:	01 c0       	rjmp	.+2      	; 0x7438 <FrequencyCounter+0x154>
       */

      Value = Pulses;                   /* number of pulses */
      Value *= 1000;                    /* scale to ms */
      Value /= GateTime;                /* divide by gatetime (in ms) */
      Flag = SHOW_FREQ;                 /* display frequency */
    7436:	04 e0       	ldi	r16, 0x04	; 4
          Flag = RUN_FLAG;              /* don't display frequency */
        }
      }

      /* prevent display of "0 Hz" */
      if (Pulses == 0)                  /* no signal or f too low */
    7438:	80 91 ed 01 	lds	r24, 0x01ED	; 0x8001ed <Pulses>
    743c:	90 91 ee 01 	lds	r25, 0x01EE	; 0x8001ee <Pulses+0x1>
    7440:	89 2b       	or	r24, r25
    7442:	09 f4       	brne	.+2      	; 0x7446 <FrequencyCounter+0x162>
      {
        Flag = RUN_FLAG;                /* don't display frequency */
    7444:	01 e0       	ldi	r16, 0x01	; 1

    /*
     *  display frequency (in line #2)
     */

    LCD_ClearLine2();                   /* clear line #2 */
    7446:	0e 94 8f 20 	call	0x411e	; 0x411e <LCD_ClearLine2>
    Display_Char('f');                  /* display: f */
    744a:	86 e6       	ldi	r24, 0x66	; 102
    744c:	0e 94 8a 3b 	call	0x7714	; 0x7714 <LCD_Char>
    Display_Space();
    7450:	0e 94 6e 20 	call	0x40dc	; 0x40dc <Display_Space>

    if (Flag == SHOW_FREQ)              /* valid frequency */
    7454:	04 30       	cpi	r16, 0x04	; 4
    7456:	59 f4       	brne	.+22     	; 0x746e <FrequencyCounter+0x18a>
    {
      Display_Value(Value, 0, 0);       /* display frequency */
    7458:	20 e0       	ldi	r18, 0x00	; 0
    745a:	40 e0       	ldi	r20, 0x00	; 0
    745c:	c7 01       	movw	r24, r14
    745e:	b6 01       	movw	r22, r12
    7460:	0e 94 fa 20 	call	0x41f4	; 0x41f4 <Display_Value>
      Display_EEString(Hertz_str);      /* display: Hz */
    7464:	8b e3       	ldi	r24, 0x3B	; 59
    7466:	92 e0       	ldi	r25, 0x02	; 2
    7468:	0e 94 43 20 	call	0x4086	; 0x4086 <Display_EEString>
    746c:	5c cf       	rjmp	.-328    	; 0x7326 <FrequencyCounter+0x42>
      Flag = RUN_FLAG;                  /* clear flag */
    }
    else                                /* invalid frequency */
    {
      Display_Char('-');                /* display: no value */
    746e:	8d e2       	ldi	r24, 0x2D	; 45
    7470:	0e 94 8a 3b 	call	0x7714	; 0x7714 <LCD_Char>

  /*
   *  measurement loop
   */

  while (Flag > 0)
    7474:	01 11       	cpse	r16, r1
    7476:	57 cf       	rjmp	.-338    	; 0x7326 <FrequencyCounter+0x42>

  /*
   *  clean up
   */

  TIMSK0 = 0;                 /* disable all interrupts for Timer0 */
    7478:	10 92 6e 00 	sts	0x006E, r1	; 0x80006e <__DATA_REGION_ORIGIN__+0xe>
  TIMSK1 = 0;                 /* disable all interrupts for Timer1 */
    747c:	10 92 6f 00 	sts	0x006F, r1	; 0x80006f <__DATA_REGION_ORIGIN__+0xf>
  /* local constants */
  #undef RUN_FLAG
  #undef WAIT_FLAG
  #undef GATE_FLAG
  #undef SHOW_FREQ
}
    7480:	cd b7       	in	r28, 0x3d	; 61
    7482:	de b7       	in	r29, 0x3e	; 62
    7484:	e2 e1       	ldi	r30, 0x12	; 18
    7486:	0c 94 33 3f 	jmp	0x7e66	; 0x7e66 <__epilogue_restores__>

0000748a <SPI_Setup>:
 */

void SPI_Setup(void)
{
  /* set up bus only once */
  if (Cfg.OP_Mode & OP_SPI) return;
    748a:	80 91 a0 01 	lds	r24, 0x01A0	; 0x8001a0 <Cfg>
    748e:	83 fd       	sbrc	r24, 3
    7490:	0b c0       	rjmp	.+22     	; 0x74a8 <SPI_Setup+0x1e>
  /* set MISO line to input mode */
  SPI_DDR &= ~(1 << SPI_MISO);
  #endif

  /* set SCK and MOSI to output mode */
  SPI_DDR |= (1 << SPI_SCK) | (1 << SPI_MOSI);
    7492:	8a b1       	in	r24, 0x0a	; 10
    7494:	8c 60       	ori	r24, 0x0C	; 12
    7496:	8a b9       	out	0x0a, r24	; 10

  /* preset lines to low */
  SPI_PORT &= ~((1 << SPI_SCK) | (1 << SPI_MOSI));
    7498:	8b b1       	in	r24, 0x0b	; 11
    749a:	83 7f       	andi	r24, 0xF3	; 243
    749c:	8b b9       	out	0x0b, r24	; 11

  /* bus is set up now */
  Cfg.OP_Mode |= OP_SPI;      /* set flag */
    749e:	80 91 a0 01 	lds	r24, 0x01A0	; 0x8001a0 <Cfg>
    74a2:	88 60       	ori	r24, 0x08	; 8
    74a4:	80 93 a0 01 	sts	0x01A0, r24	; 0x8001a0 <Cfg>
    74a8:	08 95       	ret

000074aa <SPI_Write_Byte>:
 *  requires:
 *  - Byte: byte to write
 */

void SPI_Write_Byte(uint8_t Byte)
{
    74aa:	98 e0       	ldi	r25, 0x08	; 8
   */

  while (n > 0)               /* for 8 bits */
  {
    /* get current MSB and set MOSI */
    if (Byte & 0b10000000)    /* 1 */
    74ac:	87 ff       	sbrs	r24, 7
    74ae:	02 c0       	rjmp	.+4      	; 0x74b4 <SPI_Write_Byte+0xa>
    {
      SPI_PORT |= (1 << SPI_MOSI);      /* set MOSI high */
    74b0:	5b 9a       	sbi	0x0b, 3	; 11
    74b2:	01 c0       	rjmp	.+2      	; 0x74b6 <SPI_Write_Byte+0xc>
    }
    else                      /* 0 */
    {
      SPI_PORT &= ~(1 << SPI_MOSI);     /* set MOSI low */
    74b4:	5b 98       	cbi	0x0b, 3	; 11
    }

    /* start clock pulse (slave takes bit on rising edge) */
    SPI_PORT |= (1 << SPI_SCK);         /* set SCK high */
    74b6:	5a 9a       	sbi	0x0b, 2	; 11

    /* end clock pulse (falling edge) */
    SPI_PORT &= ~(1 << SPI_SCK);        /* set SCK low */
    74b8:	5a 98       	cbi	0x0b, 2	; 11

    Byte <<= 1;               /* shift bits one step left */
    74ba:	88 0f       	add	r24, r24
    74bc:	91 50       	subi	r25, 0x01	; 1
   *  - simulate SPI mode 0 (CPOL = 0, CPHA = 0)
   *    - set MOSI before rising SCK
   *  - MSB first
   */

  while (n > 0)               /* for 8 bits */
    74be:	b1 f7       	brne	.-20     	; 0x74ac <SPI_Write_Byte+0x2>
  /*
   *  current state:
   *  - SCK low
   *  - MOSI undefined
   */
}
    74c0:	08 95       	ret

000074c2 <LCD_BusSetup>:

  /*
   *  set control signals
   */

  Bits = LCD_DDR;                  /* get current directions */
    74c2:	8a b1       	in	r24, 0x0a	; 10
  /* optional output pins */
  #ifdef LCD_RES
    Bits |= (1 << LCD_RES);        /* /RESX */
  #endif 
  #ifdef LCD_CS
    Bits |= (1 << LCD_CS);         /* /CSX */
    74c4:	83 62       	ori	r24, 0x23	; 35
  #endif

  LCD_DDR = Bits;                  /* set new directions */
    74c6:	8a b9       	out	0x0a, r24	; 10


  /* set default levels */
  #ifdef LCD_CS
    /* disable chip */
    LCD_PORT |= (1 << LCD_CS);          /* set /CSX high */
    74c8:	5d 9a       	sbi	0x0b, 5	; 11
  #endif
  #ifdef LCD_RES
    /* disable reset */
    LCD_PORT |= (1 << LCD_RES);         /* set /RESX high */
    74ca:	58 9a       	sbi	0x0b, 0	; 11
    74cc:	08 95       	ret

000074ce <LCD_Cmd>:
 */
 
void LCD_Cmd(uint8_t Cmd)
{
  /* indicate command mode */
  LCD_PORT &= ~(1 << LCD_DC);      /* set D/CX low */
    74ce:	59 98       	cbi	0x0b, 1	; 11

  /* select chip, if pin available */
  #ifdef LCD_CS
    LCD_PORT &= ~(1 << LCD_CS);    /* set /CSX low */
    74d0:	5d 98       	cbi	0x0b, 5	; 11
  #endif

  SPI_Write_Byte(Cmd);             /* write command byte */
    74d2:	0e 94 55 3a 	call	0x74aa	; 0x74aa <SPI_Write_Byte>

  /* deselect chip, if pin available */
  #ifdef LCD_CS
    LCD_PORT |= (1 << LCD_CS);     /* set /CSX high */
    74d6:	5d 9a       	sbi	0x0b, 5	; 11
    74d8:	08 95       	ret

000074da <LCD_Data>:
 */

void LCD_Data(uint8_t Data)
{
  /* indicate data mode */
  LCD_PORT |= (1 << LCD_DC);       /* set D/CX high */
    74da:	59 9a       	sbi	0x0b, 1	; 11

  /* select chip, if pin available */
  #ifdef LCD_CS
    LCD_PORT &= ~(1 << LCD_CS);    /* set /CSX low */
    74dc:	5d 98       	cbi	0x0b, 5	; 11
  #endif

  SPI_Write_Byte(Data);            /* write data byte */
    74de:	0e 94 55 3a 	call	0x74aa	; 0x74aa <SPI_Write_Byte>

  /* deselect chip, if pin available */
  #ifdef LCD_CS
    LCD_PORT |= (1 << LCD_CS);     /* set /CSX high */
    74e2:	5d 9a       	sbi	0x0b, 5	; 11
    74e4:	08 95       	ret

000074e6 <LCD_Data2>:
 *  requires:
 *  - 2-byte value to send
 */

void LCD_Data2(uint16_t Data)
{
    74e6:	cf 93       	push	r28
    74e8:	c8 2f       	mov	r28, r24
  uint8_t           Byte;     /* data byte */

  /* indicate data mode */
  LCD_PORT |= (1 << LCD_DC);       /* set D/CX high */
    74ea:	59 9a       	sbi	0x0b, 1	; 11

  /* select chip, if pin available */
  #ifdef LCD_CS
    LCD_PORT &= ~(1 << LCD_CS);    /* set /CSX low */
    74ec:	5d 98       	cbi	0x0b, 5	; 11
  #endif

  Byte = (uint8_t)Data;            /* save LSB */
  Data >>= 8;                      /* get MSB */

  SPI_Write_Byte((uint8_t)Data);   /* write MSB of data */
    74ee:	89 2f       	mov	r24, r25
    74f0:	0e 94 55 3a 	call	0x74aa	; 0x74aa <SPI_Write_Byte>
  SPI_Write_Byte(Byte);            /* write LSB of data */
    74f4:	8c 2f       	mov	r24, r28
    74f6:	0e 94 55 3a 	call	0x74aa	; 0x74aa <SPI_Write_Byte>

  /* deselect chip, if pin available */
  #ifdef LCD_CS
    LCD_PORT |= (1 << LCD_CS);     /* set /CSX high */
    74fa:	5d 9a       	sbi	0x0b, 5	; 11
  #endif
}
    74fc:	cf 91       	pop	r28
    74fe:	08 95       	ret

00007500 <LCD_AddressWindow>:
 */

void LCD_AddressWindow(void)
{
  /* X -> column */
  LCD_Cmd(CMD_COL_ADDR_SET);
    7500:	8a e2       	ldi	r24, 0x2A	; 42
    7502:	0e 94 67 3a 	call	0x74ce	; 0x74ce <LCD_Cmd>
  LCD_Data2(X_Start);               /* start column */
    7506:	80 91 f7 01 	lds	r24, 0x01F7	; 0x8001f7 <X_Start>
    750a:	90 91 f8 01 	lds	r25, 0x01F8	; 0x8001f8 <X_Start+0x1>
    750e:	0e 94 73 3a 	call	0x74e6	; 0x74e6 <LCD_Data2>
  LCD_Data2(X_End);                 /* end column */
    7512:	80 91 ef 01 	lds	r24, 0x01EF	; 0x8001ef <X_End>
    7516:	90 91 f0 01 	lds	r25, 0x01F0	; 0x8001f0 <X_End+0x1>
    751a:	0e 94 73 3a 	call	0x74e6	; 0x74e6 <LCD_Data2>

  /* Y -> row */
  LCD_Cmd(CMD_ROW_ADDR_SET);
    751e:	8b e2       	ldi	r24, 0x2B	; 43
    7520:	0e 94 67 3a 	call	0x74ce	; 0x74ce <LCD_Cmd>
  LCD_Data2(Y_Start);               /* start row */
    7524:	80 91 f5 01 	lds	r24, 0x01F5	; 0x8001f5 <Y_Start>
    7528:	90 91 f6 01 	lds	r25, 0x01F6	; 0x8001f6 <Y_Start+0x1>
    752c:	0e 94 73 3a 	call	0x74e6	; 0x74e6 <LCD_Data2>
  LCD_Data2(Y_End);                 /* end row */
    7530:	80 91 f1 01 	lds	r24, 0x01F1	; 0x8001f1 <Y_End>
    7534:	90 91 f2 01 	lds	r25, 0x01F2	; 0x8001f2 <Y_End+0x1>
    7538:	0e 94 73 3a 	call	0x74e6	; 0x74e6 <LCD_Data2>
    753c:	08 95       	ret

0000753e <LCD_CharPos>:
void LCD_CharPos(uint8_t x, uint8_t y)
{
  uint16_t          Mask = 1;  

  /* update UI */
  UI.CharPos_X = x;
    753e:	80 93 27 01 	sts	0x0127, r24	; 0x800127 <UI+0x1>
  UI.CharPos_Y = y;
    7542:	60 93 28 01 	sts	0x0128, r22	; 0x800128 <UI+0x2>

  y--;                        /* rows start at zero */
    7546:	61 50       	subi	r22, 0x01	; 1

  /* mark text line as used */
  if (y < 16)                 /* prevent overflow */
    7548:	60 31       	cpi	r22, 0x10	; 16
    754a:	90 f4       	brcc	.+36     	; 0x7570 <LCD_CharPos+0x32>
  {
    Mask <<= y;               /* shift to bit position for line */
    LineFlags |= Mask;        /* set bit for line */
    754c:	21 e0       	ldi	r18, 0x01	; 1
    754e:	30 e0       	ldi	r19, 0x00	; 0
    7550:	06 2e       	mov	r0, r22
    7552:	02 c0       	rjmp	.+4      	; 0x7558 <LCD_CharPos+0x1a>
    7554:	22 0f       	add	r18, r18
    7556:	33 1f       	adc	r19, r19
    7558:	0a 94       	dec	r0
    755a:	e2 f7       	brpl	.-8      	; 0x7554 <LCD_CharPos+0x16>
    755c:	40 91 f3 01 	lds	r20, 0x01F3	; 0x8001f3 <LineFlags>
    7560:	50 91 f4 01 	lds	r21, 0x01F4	; 0x8001f4 <LineFlags+0x1>
    7564:	24 2b       	or	r18, r20
    7566:	35 2b       	or	r19, r21
    7568:	30 93 f4 01 	sts	0x01F4, r19	; 0x8001f4 <LineFlags+0x1>
    756c:	20 93 f3 01 	sts	0x01F3, r18	; 0x8001f3 <LineFlags>
   *  calculate dot position
   *  - top left of character
   */

  /* horizontal position (column) */
  x--;                        /* columns start at 0 */
    7570:	81 50       	subi	r24, 0x01	; 1
  Mask = x;                   /* expand to 16 bit */
  Mask *= FONT_SIZE_X;        /* offset for character */
  #ifdef LCD_SHIFT_X
  Mask += LCD_SHIFT_X;        /* add display offset */
  #endif
  X_Start = Mask;             /* update start position */
    7572:	2a e0       	ldi	r18, 0x0A	; 10
    7574:	82 9f       	mul	r24, r18
    7576:	c0 01       	movw	r24, r0
    7578:	11 24       	eor	r1, r1
    757a:	90 93 f8 01 	sts	0x01F8, r25	; 0x8001f8 <X_Start+0x1>
    757e:	80 93 f7 01 	sts	0x01F7, r24	; 0x8001f7 <X_Start>
  Mask = y;                   /* expand to 16 bit */
  Mask *= FONT_SIZE_Y;        /* offset for character */
  #ifdef LCD_SHIFT_Y
  Mask += LCD_SHIFT_Y;        /* add display offset */
  #endif
  Y_Start = Mask;             /* update start position */
    7582:	80 e1       	ldi	r24, 0x10	; 16
    7584:	68 9f       	mul	r22, r24
    7586:	b0 01       	movw	r22, r0
    7588:	11 24       	eor	r1, r1
    758a:	70 93 f6 01 	sts	0x01F6, r23	; 0x8001f6 <Y_Start+0x1>
    758e:	60 93 f5 01 	sts	0x01F5, r22	; 0x8001f5 <Y_Start>
    7592:	08 95       	ret

00007594 <LCD_ClearLine>:
 *  - Line: line number (1-)
 *    special case line 0: clear remaining space in current line
 */ 

void LCD_ClearLine(uint8_t Line)
{
    7594:	0f 93       	push	r16
    7596:	1f 93       	push	r17
    7598:	cf 93       	push	r28
    759a:	68 2f       	mov	r22, r24
  uint16_t          x;             /* x position */
  uint8_t           y;             /* y position */
  uint8_t           Pos = 1;       /* character position */

  wdt_reset();                /* reset watchdog */
    759c:	a8 95       	wdr

  if (Line == 0)         /* special case: rest of current line */
    759e:	81 11       	cpse	r24, r1
    75a0:	05 c0       	rjmp	.+10     	; 0x75ac <LCD_ClearLine+0x18>
  {
    Line = UI.CharPos_Y;           /* get current line */
    75a2:	60 91 28 01 	lds	r22, 0x0128	; 0x800128 <UI+0x2>
    Pos = UI.CharPos_X;            /* get current character position */
    75a6:	80 91 27 01 	lds	r24, 0x0127	; 0x800127 <UI+0x1>
    75aa:	01 c0       	rjmp	.+2      	; 0x75ae <LCD_ClearLine+0x1a>

void LCD_ClearLine(uint8_t Line)
{
  uint16_t          x;             /* x position */
  uint8_t           y;             /* y position */
  uint8_t           Pos = 1;       /* character position */
    75ac:	81 e0       	ldi	r24, 0x01	; 1
    Line = UI.CharPos_Y;           /* get current line */
    Pos = UI.CharPos_X;            /* get current character position */
  }

  /* text line optimization */
  if (Line <= 16)                  /* prevent overflow */
    75ae:	61 31       	cpi	r22, 0x11	; 17
    75b0:	e8 f4       	brcc	.+58     	; 0x75ec <LCD_ClearLine+0x58>
  {
    y = Line - 1;                  /* bitfield starts at zero */
    x = 1;                         /* set start bit */
    x <<= y;                       /* bit for this line */
    75b2:	9f ef       	ldi	r25, 0xFF	; 255
    75b4:	96 0f       	add	r25, r22
    75b6:	21 e0       	ldi	r18, 0x01	; 1
    75b8:	30 e0       	ldi	r19, 0x00	; 0
    75ba:	02 c0       	rjmp	.+4      	; 0x75c0 <LCD_ClearLine+0x2c>
    75bc:	22 0f       	add	r18, r18
    75be:	33 1f       	adc	r19, r19
    75c0:	9a 95       	dec	r25
    75c2:	e2 f7       	brpl	.-8      	; 0x75bc <LCD_ClearLine+0x28>

    if (! (LineFlags & x))         /* bit not set */
    75c4:	40 91 f3 01 	lds	r20, 0x01F3	; 0x8001f3 <LineFlags>
    75c8:	50 91 f4 01 	lds	r21, 0x01F4	; 0x8001f4 <LineFlags+0x1>
    75cc:	f9 01       	movw	r30, r18
    75ce:	e4 23       	and	r30, r20
    75d0:	f5 23       	and	r31, r21
    75d2:	ef 2b       	or	r30, r31
    75d4:	09 f4       	brne	.+2      	; 0x75d8 <LCD_ClearLine+0x44>
    75d6:	41 c0       	rjmp	.+130    	; 0x765a <LCD_ClearLine+0xc6>
    {
      /* empty text line, already cleared */
      return;                      /* nothing do to */
    }
    else if (Pos == 1)             /* bit set and complete line */
    75d8:	81 30       	cpi	r24, 0x01	; 1
    75da:	41 f4       	brne	.+16     	; 0x75ec <LCD_ClearLine+0x58>
    {
      /* we'll clear this line completely */
      LineFlags &= ~x;             /* clear bit */
    75dc:	20 95       	com	r18
    75de:	30 95       	com	r19
    75e0:	24 23       	and	r18, r20
    75e2:	35 23       	and	r19, r21
    75e4:	30 93 f4 01 	sts	0x01F4, r19	; 0x8001f4 <LineFlags+0x1>
    75e8:	20 93 f3 01 	sts	0x01F3, r18	; 0x8001f3 <LineFlags>
    }
  }

  /* manage address window */
  LCD_CharPos(Pos, Line);         /* update character position */
    75ec:	0e 94 9f 3a 	call	0x753e	; 0x753e <LCD_CharPos>
  #else
    /* native Y resolution */
    #define LCD_MAX_Y          LCD_PIXELS_Y
  #endif

  X_End = LCD_MAX_X - 1;                /* last column */
    75f0:	8f e9       	ldi	r24, 0x9F	; 159
    75f2:	90 e0       	ldi	r25, 0x00	; 0
    75f4:	90 93 f0 01 	sts	0x01F0, r25	; 0x8001f0 <X_End+0x1>
    75f8:	80 93 ef 01 	sts	0x01EF, r24	; 0x8001ef <X_End>
  Y_End = Y_Start + FONT_SIZE_Y - 1;    /* last row */
    75fc:	80 91 f5 01 	lds	r24, 0x01F5	; 0x8001f5 <Y_Start>
    7600:	90 91 f6 01 	lds	r25, 0x01F6	; 0x8001f6 <Y_Start+0x1>
    7604:	9c 01       	movw	r18, r24
    7606:	21 5f       	subi	r18, 0xF1	; 241
    7608:	3f 4f       	sbci	r19, 0xFF	; 255
  y = FONT_SIZE_Y;                      /* set default */

  /* partial text line at bottom of display */
  if (Y_End > (LCD_MAX_Y - 1))          /* row overflow */
    760a:	20 38       	cpi	r18, 0x80	; 128
    760c:	31 05       	cpc	r19, r1
    760e:	30 f4       	brcc	.+12     	; 0x761c <LCD_ClearLine+0x88>
    /* native Y resolution */
    #define LCD_MAX_Y          LCD_PIXELS_Y
  #endif

  X_End = LCD_MAX_X - 1;                /* last column */
  Y_End = Y_Start + FONT_SIZE_Y - 1;    /* last row */
    7610:	30 93 f2 01 	sts	0x01F2, r19	; 0x8001f2 <Y_End+0x1>
    7614:	20 93 f1 01 	sts	0x01F1, r18	; 0x8001f1 <Y_End>
  y = FONT_SIZE_Y;                      /* set default */
    7618:	c0 e1       	ldi	r28, 0x10	; 16
    761a:	08 c0       	rjmp	.+16     	; 0x762c <LCD_ClearLine+0x98>

  /* partial text line at bottom of display */
  if (Y_End > (LCD_MAX_Y - 1))          /* row overflow */
  {
    x = Y_End - (LCD_MAX_Y - 1);        /* difference */
    y -= (uint8_t)x;                    /* adjust number of rows */
    761c:	c0 e8       	ldi	r28, 0x80	; 128
    761e:	c8 1b       	sub	r28, r24
    Y_End = LCD_MAX_Y - 1;              /* set last row */    
    7620:	8f e7       	ldi	r24, 0x7F	; 127
    7622:	90 e0       	ldi	r25, 0x00	; 0
    7624:	90 93 f2 01 	sts	0x01F2, r25	; 0x8001f2 <Y_End+0x1>
    7628:	80 93 f1 01 	sts	0x01F1, r24	; 0x8001f1 <Y_End>
  }

  LCD_AddressWindow();                  /* set window */
    762c:	0e 94 80 3a 	call	0x7500	; 0x7500 <LCD_AddressWindow>

  /* clear all pixels in window */
  LCD_Cmd(CMD_MEM_WRITE);          /* start writing */
    7630:	8c e2       	ldi	r24, 0x2C	; 44
    7632:	0e 94 67 3a 	call	0x74ce	; 0x74ce <LCD_Cmd>

  while (y > 0)                    /* character height (pages) */
    7636:	cc 23       	and	r28, r28
    7638:	81 f0       	breq	.+32     	; 0x765a <LCD_ClearLine+0xc6>
  {
    x = X_Start;                   /* reset start position */
    763a:	00 91 f7 01 	lds	r16, 0x01F7	; 0x8001f7 <X_Start>
    763e:	10 91 f8 01 	lds	r17, 0x01F8	; 0x8001f8 <X_Start+0x1>
    while (x < LCD_MAX_X)          /* all columns */
    7642:	00 3a       	cpi	r16, 0xA0	; 160
    7644:	11 05       	cpc	r17, r1
    7646:	38 f4       	brcc	.+14     	; 0x7656 <LCD_ClearLine+0xc2>
    {
      /* send background color */
      LCD_Data2(COLOR_BACKGROUND);
    7648:	80 e0       	ldi	r24, 0x00	; 0
    764a:	90 e0       	ldi	r25, 0x00	; 0
    764c:	0e 94 73 3a 	call	0x74e6	; 0x74e6 <LCD_Data2>

      x++;                         /* next column */
    7650:	0f 5f       	subi	r16, 0xFF	; 255
    7652:	1f 4f       	sbci	r17, 0xFF	; 255
    7654:	f6 cf       	rjmp	.-20     	; 0x7642 <LCD_ClearLine+0xae>
    }

    y--;                           /* next page */
    7656:	c1 50       	subi	r28, 0x01	; 1
    7658:	ee cf       	rjmp	.-36     	; 0x7636 <LCD_ClearLine+0xa2>
  }

  /* clean up local constants */
  #undef LCD_MAX_X
  #undef LCD_MAX_Y
}
    765a:	cf 91       	pop	r28
    765c:	1f 91       	pop	r17
    765e:	0f 91       	pop	r16
    7660:	08 95       	ret

00007662 <LCD_Clear>:
/*
 *  clear the display 
 */ 

void LCD_Clear(void)
{
    7662:	cf 93       	push	r28
  uint8_t           n = 1;         /* counter */
    7664:	c1 e0       	ldi	r28, 0x01	; 1
  /* we have to clear all dots manually :-( */
  while (n <= (LCD_CHAR_Y + 1))    /* for all text lines */
  {
    /* +1 is for a possible partial line at the bottom */

    LCD_ClearLine(n);              /* clear line */
    7666:	8c 2f       	mov	r24, r28
    7668:	0e 94 ca 3a 	call	0x7594	; 0x7594 <LCD_ClearLine>
    n++;                           /* next line */
    766c:	cf 5f       	subi	r28, 0xFF	; 255
void LCD_Clear(void)
{
  uint8_t           n = 1;         /* counter */

  /* we have to clear all dots manually :-( */
  while (n <= (LCD_CHAR_Y + 1))    /* for all text lines */
    766e:	ca 30       	cpi	r28, 0x0A	; 10
    7670:	d1 f7       	brne	.-12     	; 0x7666 <LCD_Clear+0x4>

    LCD_ClearLine(n);              /* clear line */
    n++;                           /* next line */
  }

  LCD_CharPos(1, 1);          /* reset character position */
    7672:	61 e0       	ldi	r22, 0x01	; 1
    7674:	81 e0       	ldi	r24, 0x01	; 1
    7676:	0e 94 9f 3a 	call	0x753e	; 0x753e <LCD_CharPos>
}
    767a:	cf 91       	pop	r28
    767c:	08 95       	ret

0000767e <LCD_Init>:
{
  uint8_t           Bits;

  /* hardware reset */
  #ifdef LCD_RES
  LCD_PORT = LCD_PORT & ~(1 << LCD_RES);     /* set /RESX low */
    767e:	58 98       	cbi	0x0b, 0	; 11
  wait10us();                                /* wait 10s */
    7680:	0e 94 88 3c 	call	0x7910	; 0x7910 <wait10us>
  LCD_PORT = LCD_PORT | (1 << LCD_RES);      /* set /RESX high */
    7684:	58 9a       	sbi	0x0b, 0	; 11
  /* blanking sequence needs up to 120ms */
  /* but we may send command after 5ms */
  MilliSleep(5);                             /* wait 5ms */
    7686:	85 e0       	ldi	r24, 0x05	; 5
    7688:	90 e0       	ldi	r25, 0x00	; 0
    768a:	0e 94 2e 17 	call	0x2e5c	; 0x2e5c <MilliSleep>
  #endif

  /* memory access control */
  LCD_Cmd(CMD_MEM_CTRL);
    768e:	86 e3       	ldi	r24, 0x36	; 54
    7690:	0e 94 67 3a 	call	0x74ce	; 0x74ce <LCD_Cmd>
    Bits |= FLAG_COL_REV;          /* flip x */
  #endif
  #ifdef LCD_FLIP_Y
    Bits |= FLAG_ROW_REV;          /* flip y */
  #endif
  LCD_Data(Bits);
    7694:	80 e6       	ldi	r24, 0x60	; 96
    7696:	0e 94 6d 3a 	call	0x74da	; 0x74da <LCD_Data>

  /* set pixel format for RGB image data */
  LCD_Cmd(CMD_PIX_FORMAT);
    769a:	8a e3       	ldi	r24, 0x3A	; 58
    769c:	0e 94 67 3a 	call	0x74ce	; 0x74ce <LCD_Cmd>
  LCD_Data(FLAG_IFPF_16);          /* 16 Bits per pixel */
    76a0:	85 e0       	ldi	r24, 0x05	; 5
    76a2:	0e 94 6d 3a 	call	0x74da	; 0x74da <LCD_Data>

  /* address window */
  X_Start = 0;
    76a6:	10 92 f8 01 	sts	0x01F8, r1	; 0x8001f8 <X_Start+0x1>
    76aa:	10 92 f7 01 	sts	0x01F7, r1	; 0x8001f7 <X_Start>
  X_End = LCD_PIXELS_X - 1;
    76ae:	8f e9       	ldi	r24, 0x9F	; 159
    76b0:	90 e0       	ldi	r25, 0x00	; 0
    76b2:	90 93 f0 01 	sts	0x01F0, r25	; 0x8001f0 <X_End+0x1>
    76b6:	80 93 ef 01 	sts	0x01EF, r24	; 0x8001ef <X_End>
  Y_Start = 0;
    76ba:	10 92 f6 01 	sts	0x01F6, r1	; 0x8001f6 <Y_Start+0x1>
    76be:	10 92 f5 01 	sts	0x01F5, r1	; 0x8001f5 <Y_Start>
  Y_End = LCD_PIXELS_Y - 1;
    76c2:	8f e7       	ldi	r24, 0x7F	; 127
    76c4:	90 e0       	ldi	r25, 0x00	; 0
    76c6:	90 93 f2 01 	sts	0x01F2, r25	; 0x8001f2 <Y_End+0x1>
    76ca:	80 93 f1 01 	sts	0x01F1, r24	; 0x8001f1 <Y_End>
  LCD_AddressWindow();
    76ce:	0e 94 80 3a 	call	0x7500	; 0x7500 <LCD_AddressWindow>

  /* power on */
  MilliSleep(115);                 /* pause for 120ms (blanking sequence) */
    76d2:	83 e7       	ldi	r24, 0x73	; 115
    76d4:	90 e0       	ldi	r25, 0x00	; 0
    76d6:	0e 94 2e 17 	call	0x2e5c	; 0x2e5c <MilliSleep>
  LCD_Cmd(CMD_SLEEP_OUT);          /* leave sleep mode */
    76da:	81 e1       	ldi	r24, 0x11	; 17
    76dc:	0e 94 67 3a 	call	0x74ce	; 0x74ce <LCD_Cmd>
  MilliSleep(120);                 /* pause for 120ms (booster & clocks) */
    76e0:	88 e7       	ldi	r24, 0x78	; 120
    76e2:	90 e0       	ldi	r25, 0x00	; 0
    76e4:	0e 94 2e 17 	call	0x2e5c	; 0x2e5c <MilliSleep>
  #ifndef LCD_LATE_ON
  /* turn on display early as visual feedback */
  LCD_Cmd(CMD_DISPLAY_ON);         /* enable display output */
    76e8:	89 e2       	ldi	r24, 0x29	; 41
    76ea:	0e 94 67 3a 	call	0x74ce	; 0x74ce <LCD_Cmd>
  #endif

  /* update maximums */
  UI.CharMax_X = LCD_CHAR_X;       /* characters per line */
    76ee:	e6 e2       	ldi	r30, 0x26	; 38
    76f0:	f1 e0       	ldi	r31, 0x01	; 1
    76f2:	80 e1       	ldi	r24, 0x10	; 16
    76f4:	83 83       	std	Z+3, r24	; 0x03
  UI.CharMax_Y = LCD_CHAR_Y;       /* lines */
    76f6:	88 e0       	ldi	r24, 0x08	; 8
    76f8:	84 83       	std	Z+4, r24	; 0x04
  #ifdef SW_SYMBOLS
  UI.SymbolSize_X = LCD_SYMBOL_CHAR_X;  /* x size in chars */
    76fa:	83 e0       	ldi	r24, 0x03	; 3
    76fc:	81 87       	std	Z+9, r24	; 0x09
  UI.SymbolSize_Y = LCD_SYMBOL_CHAR_Y;  /* y size in chars */
    76fe:	82 e0       	ldi	r24, 0x02	; 2
    7700:	82 87       	std	Z+10, r24	; 0x0a
  #endif

  LineFlags = 0xffff;              /* clear all lines by default */
    7702:	8f ef       	ldi	r24, 0xFF	; 255
    7704:	9f ef       	ldi	r25, 0xFF	; 255
    7706:	90 93 f4 01 	sts	0x01F4, r25	; 0x8001f4 <LineFlags+0x1>
    770a:	80 93 f3 01 	sts	0x01F3, r24	; 0x8001f3 <LineFlags>
  LCD_Clear();                     /* clear display */
    770e:	0e 94 31 3b 	call	0x7662	; 0x7662 <LCD_Clear>
    7712:	08 95       	ret

00007714 <LCD_Char>:
 *  requires:
 *  - Char: character to display
 */

void LCD_Char(unsigned char Char)
{
    7714:	a3 e0       	ldi	r26, 0x03	; 3
    7716:	b0 e0       	ldi	r27, 0x00	; 0
    7718:	e0 e9       	ldi	r30, 0x90	; 144
    771a:	fb e3       	ldi	r31, 0x3B	; 59
    771c:	0c 94 1f 3f 	jmp	0x7e3e	; 0x7e3e <__prologue_saves__+0x10>
    7720:	e8 2f       	mov	r30, r24
  uint8_t           y = 1;         /* bitmap y byte counter */
  uint8_t           Bits;          /* number of bits to be sent */
  uint8_t           n;             /* bitmap bit counter */

  /* prevent x overflow */
  if (UI.CharPos_X > LCD_CHAR_X) return;
    7722:	80 91 27 01 	lds	r24, 0x0127	; 0x800127 <UI+0x1>
    7726:	81 31       	cpi	r24, 0x11	; 17
    7728:	08 f0       	brcs	.+2      	; 0x772c <LCD_Char+0x18>
    772a:	62 c0       	rjmp	.+196    	; 0x77f0 <LCD_Char+0xdc>

  /* get font index number from lookup table */
  Table = (uint8_t *)&FontTable;        /* start address */
  Table += Char;                        /* add offset for character */
  Index = pgm_read_byte(Table);         /* get index number */
    772c:	f0 e0       	ldi	r31, 0x00	; 0
    772e:	e6 53       	subi	r30, 0x36	; 54
    7730:	f8 4f       	sbci	r31, 0xF8	; 248
    7732:	24 91       	lpm	r18, Z
  if (Index == 0xff) return;            /* no character bitmap available */
    7734:	2f 3f       	cpi	r18, 0xFF	; 255
    7736:	09 f4       	brne	.+2      	; 0x773a <LCD_Char+0x26>
    7738:	5b c0       	rjmp	.+182    	; 0x77f0 <LCD_Char+0xdc>

  /* calculate start address of character bitmap */
  Table = (uint8_t *)&FontData;        /* start address of font data */
  Offset = FONT_BYTES_N * Index;       /* offset for character */
  Table += Offset;                     /* address of character data */
    773a:	e2 2f       	mov	r30, r18
    773c:	20 e2       	ldi	r18, 0x20	; 32
    773e:	e2 9f       	mul	r30, r18
    7740:	f0 01       	movw	r30, r0
    7742:	11 24       	eor	r1, r1
    7744:	e6 53       	subi	r30, 0x36	; 54
    7746:	f7 4f       	sbci	r31, 0xF7	; 247
    7748:	fb 83       	std	Y+3, r31	; 0x03
    774a:	ea 83       	std	Y+2, r30	; 0x02

  /* LCD's address window */
  LCD_CharPos(UI.CharPos_X, UI.CharPos_Y);   /* update character position */
    774c:	60 91 28 01 	lds	r22, 0x0128	; 0x800128 <UI+0x2>
    7750:	0e 94 9f 3a 	call	0x753e	; 0x753e <LCD_CharPos>
                                             /* also updates X_Start and Y_Start */
  X_End = X_Start + FONT_SIZE_X - 1;   /* offset for end */
    7754:	80 91 f7 01 	lds	r24, 0x01F7	; 0x8001f7 <X_Start>
    7758:	90 91 f8 01 	lds	r25, 0x01F8	; 0x8001f8 <X_Start+0x1>
    775c:	09 96       	adiw	r24, 0x09	; 9
    775e:	90 93 f0 01 	sts	0x01F0, r25	; 0x8001f0 <X_End+0x1>
    7762:	80 93 ef 01 	sts	0x01EF, r24	; 0x8001ef <X_End>
  Y_End = Y_Start + FONT_SIZE_Y - 1;   /* offset for end */
    7766:	80 91 f5 01 	lds	r24, 0x01F5	; 0x8001f5 <Y_Start>
    776a:	90 91 f6 01 	lds	r25, 0x01F6	; 0x8001f6 <Y_Start+0x1>
    776e:	0f 96       	adiw	r24, 0x0f	; 15
    7770:	90 93 f2 01 	sts	0x01F2, r25	; 0x8001f2 <Y_End+0x1>
    7774:	80 93 f1 01 	sts	0x01F1, r24	; 0x8001f1 <Y_End>
  LCD_AddressWindow();                 /* set address window */
    7778:	0e 94 80 3a 	call	0x7500	; 0x7500 <LCD_AddressWindow>

  #ifdef LCD_COLOR
  /* color feature enabled */
  Offset = UI.PenColor;                 /* get pen color */
    777c:	a0 90 2c 01 	lds	r10, 0x012C	; 0x80012c <UI+0x6>
    7780:	b0 90 2d 01 	lds	r11, 0x012D	; 0x80012d <UI+0x7>
  #else
  /* color feature disabled */
  Offset = COLOR_PEN;                   /* use default pen color */
  #endif

  LCD_Cmd(CMD_MEM_WRITE);              /* start writing */
    7784:	8c e2       	ldi	r24, 0x2C	; 44
    7786:	0e 94 67 3a 	call	0x74ce	; 0x74ce <LCD_Cmd>
    778a:	80 e1       	ldi	r24, 0x10	; 16
    778c:	d8 2e       	mov	r13, r24

    /* read and send all bytes for this row */
    while (x <= FONT_BYTES_X)
    {
      /* track x bits */
      if (Pixels >= 8)             /* a byte or more left */
    778e:	ea 80       	ldd	r14, Y+2	; 0x02
    7790:	fb 80       	ldd	r15, Y+3	; 0x03
    7792:	92 e0       	ldi	r25, 0x02	; 2
    7794:	99 83       	std	Y+1, r25	; 0x01
    7796:	0a e0       	ldi	r16, 0x0A	; 10
      {
        Bits = 8;                  /* send full byte */
    7798:	18 e0       	ldi	r17, 0x08	; 8
      }
      else                         /* less than a byte left */
      {
        Bits = Pixels;             /* send remaining bits */
      }
      Pixels -= Bits;              /* update counter */
    779a:	01 1b       	sub	r16, r17

      Index = pgm_read_byte(Table);     /* read byte */
    779c:	f7 01       	movw	r30, r14
    779e:	c4 90       	lpm	r12, Z

      /* send color for each bit */
      n = Bits;
      while (n > 0)
    77a0:	11 23       	and	r17, r17
    77a2:	59 f0       	breq	.+22     	; 0x77ba <LCD_Char+0xa6>
      {
        if (Index & 0b00000001)         /* bit set */
    77a4:	c0 fe       	sbrs	r12, 0
    77a6:	02 c0       	rjmp	.+4      	; 0x77ac <LCD_Char+0x98>
        {
          LCD_Data2(Offset);            /* foreground color */
    77a8:	c5 01       	movw	r24, r10
    77aa:	02 c0       	rjmp	.+4      	; 0x77b0 <LCD_Char+0x9c>
        }
        else                            /* bit unset */
        {
          LCD_Data2(COLOR_BACKGROUND);  /* background color */
    77ac:	80 e0       	ldi	r24, 0x00	; 0
    77ae:	90 e0       	ldi	r25, 0x00	; 0
    77b0:	0e 94 73 3a 	call	0x74e6	; 0x74e6 <LCD_Data2>
        }

        Index >>= 1;                      /* shift byte for next bit */
    77b4:	c6 94       	lsr	r12
        n--;                              /* next bit */
    77b6:	11 50       	subi	r17, 0x01	; 1
    77b8:	f3 cf       	rjmp	.-26     	; 0x77a0 <LCD_Char+0x8c>
      }

      Table++;                          /* address for next byte */
    77ba:	ff ef       	ldi	r31, 0xFF	; 255
    77bc:	ef 1a       	sub	r14, r31
    77be:	ff 0a       	sbc	r15, r31
  {
    Pixels = FONT_SIZE_X;               /* track x bits to be sent */
    x = 1;                              /* reset counter */

    /* read and send all bytes for this row */
    while (x <= FONT_BYTES_X)
    77c0:	29 81       	ldd	r18, Y+1	; 0x01
    77c2:	21 30       	cpi	r18, 0x01	; 1
    77c4:	41 f0       	breq	.+16     	; 0x77d6 <LCD_Char+0xc2>
    {
      /* track x bits */
      if (Pixels >= 8)             /* a byte or more left */
    77c6:	08 30       	cpi	r16, 0x08	; 8
    77c8:	10 f4       	brcc	.+4      	; 0x77ce <LCD_Char+0xba>
    77ca:	10 2f       	mov	r17, r16
    77cc:	01 c0       	rjmp	.+2      	; 0x77d0 <LCD_Char+0xbc>
      {
        Bits = 8;                  /* send full byte */
    77ce:	18 e0       	ldi	r17, 0x08	; 8
    77d0:	f1 e0       	ldi	r31, 0x01	; 1
    77d2:	f9 83       	std	Y+1, r31	; 0x01
    77d4:	e2 cf       	rjmp	.-60     	; 0x779a <LCD_Char+0x86>
    77d6:	8a 81       	ldd	r24, Y+2	; 0x02
    77d8:	9b 81       	ldd	r25, Y+3	; 0x03
    77da:	02 96       	adiw	r24, 0x02	; 2
    77dc:	9b 83       	std	Y+3, r25	; 0x03
    77de:	8a 83       	std	Y+2, r24	; 0x02
    77e0:	da 94       	dec	r13
  #endif

  LCD_Cmd(CMD_MEM_WRITE);              /* start writing */

  /* read character bitmap and send it to display */
  while (y <= FONT_BYTES_Y)
    77e2:	d1 10       	cpse	r13, r1
    77e4:	d4 cf       	rjmp	.-88     	; 0x778e <LCD_Char+0x7a>
    }

    y++;                                /* next row */
  }

  UI.CharPos_X++;             /* update character position */
    77e6:	80 91 27 01 	lds	r24, 0x0127	; 0x800127 <UI+0x1>
    77ea:	8f 5f       	subi	r24, 0xFF	; 255
    77ec:	80 93 27 01 	sts	0x0127, r24	; 0x800127 <UI+0x1>
}
    77f0:	23 96       	adiw	r28, 0x03	; 3
    77f2:	ea e0       	ldi	r30, 0x0A	; 10
    77f4:	0c 94 3b 3f 	jmp	0x7e76	; 0x7e76 <__epilogue_restores__+0x10>

000077f8 <LCD_Cursor>:
 *    0: cursor on
 *    1: cursor off
 */

void LCD_Cursor(uint8_t Mode)
{
    77f8:	cf 93       	push	r28
    77fa:	c8 2f       	mov	r28, r24
  LCD_CharPos(LCD_CHAR_X, LCD_CHAR_Y);     /* move to bottom right */
    77fc:	68 e0       	ldi	r22, 0x08	; 8
    77fe:	80 e1       	ldi	r24, 0x10	; 16
    7800:	0e 94 9f 3a 	call	0x753e	; 0x753e <LCD_CharPos>

  if (Mode)              /* cursor on */
    7804:	cc 23       	and	r28, r28
    7806:	11 f0       	breq	.+4      	; 0x780c <LCD_Cursor+0x14>
  {
    LCD_Char('>');
    7808:	8e e3       	ldi	r24, 0x3E	; 62
    780a:	01 c0       	rjmp	.+2      	; 0x780e <LCD_Cursor+0x16>
  }
  else                   /* cursor off */
  {
    LCD_Char(' ');
    780c:	80 e2       	ldi	r24, 0x20	; 32
    780e:	0e 94 8a 3b 	call	0x7714	; 0x7714 <LCD_Char>
  }
}
    7812:	cf 91       	pop	r28
    7814:	08 95       	ret

00007816 <LCD_Symbol>:
 *  requires:
 *  - ID: symbol to display
 */

void LCD_Symbol(uint8_t ID)
{
    7816:	a0 e0       	ldi	r26, 0x00	; 0
    7818:	b0 e0       	ldi	r27, 0x00	; 0
    781a:	e1 e1       	ldi	r30, 0x11	; 17
    781c:	fc e3       	ldi	r31, 0x3C	; 60
    781e:	0c 94 1e 3f 	jmp	0x7e3c	; 0x7e3c <__prologue_saves__+0xe>
  uint8_t           Factor = SYMBOL_RESIZE;  /* resize factor */

  /* calculate start address of character bitmap */
  Table = (uint8_t *)&SymbolData;       /* start address of symbol data */
  Offset = SYMBOL_BYTES_N * ID;         /* offset for symbol */
  Table += Offset;                      /* address of symbol data */
    7822:	20 e8       	ldi	r18, 0x80	; 128
    7824:	82 9f       	mul	r24, r18
    7826:	c0 01       	movw	r24, r0
    7828:	11 24       	eor	r1, r1
    782a:	8c 01       	movw	r16, r24
    782c:	06 53       	subi	r16, 0x36	; 54
    782e:	1f 4f       	sbci	r17, 0xFF	; 255

  /* LCD's address window */
  LCD_CharPos(UI.CharPos_X, UI.CharPos_Y);   /* update character position */
    7830:	60 91 28 01 	lds	r22, 0x0128	; 0x800128 <UI+0x2>
    7834:	80 91 27 01 	lds	r24, 0x0127	; 0x800127 <UI+0x1>
    7838:	0e 94 9f 3a 	call	0x753e	; 0x753e <LCD_CharPos>
                                             /* also updates X_Start and Y_Start */
  X_End = X_Start + (SYMBOL_SIZE_X * SYMBOL_RESIZE) - 1;  /* offset for end */
    783c:	80 91 f7 01 	lds	r24, 0x01F7	; 0x8001f7 <X_Start>
    7840:	90 91 f8 01 	lds	r25, 0x01F8	; 0x8001f8 <X_Start+0x1>
    7844:	4d 96       	adiw	r24, 0x1d	; 29
    7846:	90 93 f0 01 	sts	0x01F0, r25	; 0x8001f0 <X_End+0x1>
    784a:	80 93 ef 01 	sts	0x01EF, r24	; 0x8001ef <X_End>
  Y_End = Y_Start + (SYMBOL_SIZE_Y * SYMBOL_RESIZE) - 1;  /* offset for end */
    784e:	80 91 f5 01 	lds	r24, 0x01F5	; 0x8001f5 <Y_Start>
    7852:	90 91 f6 01 	lds	r25, 0x01F6	; 0x8001f6 <Y_Start+0x1>
    7856:	4f 96       	adiw	r24, 0x1f	; 31
    7858:	90 93 f2 01 	sts	0x01F2, r25	; 0x8001f2 <Y_End+0x1>
    785c:	80 93 f1 01 	sts	0x01F1, r24	; 0x8001f1 <Y_End>
  LCD_AddressWindow();                  /* set address window */
    7860:	0e 94 80 3a 	call	0x7500	; 0x7500 <LCD_AddressWindow>

  #ifdef LCD_COLOR
  /* color feature enabled */
  Offset = UI.PenColor;                 /* get pen color */
    7864:	a0 90 2c 01 	lds	r10, 0x012C	; 0x80012c <UI+0x6>
    7868:	b0 90 2d 01 	lds	r11, 0x012D	; 0x80012d <UI+0x7>
  #else
  /* color feature disabled */
  Offset = COLOR_PEN;                   /* use default pen color */
  #endif

  LCD_Cmd(CMD_MEM_WRITE);               /* start writing */
    786c:	8c e2       	ldi	r24, 0x2C	; 44
    786e:	0e 94 67 3a 	call	0x74ce	; 0x74ce <LCD_Cmd>
    7872:	90 e2       	ldi	r25, 0x20	; 32
    7874:	e9 2e       	mov	r14, r25

      /* read and send all bytes for this row */
      while (x <= SYMBOL_BYTES_X)
      {
        /* track x bits */
        if (Pixels >= 8)           /* a byte or more left */
    7876:	68 01       	movw	r12, r16
    7878:	84 e0       	ldi	r24, 0x04	; 4
    787a:	f8 2e       	mov	r15, r24
    787c:	de e1       	ldi	r29, 0x1E	; 30
        {
          Bits = 8;                /* send full byte */
    787e:	c8 e0       	ldi	r28, 0x08	; 8
        }
        else                       /* less than a byte left */
        {
          Bits = Pixels;           /* send remaining bits */
        }
        Pixels -= Bits;            /* update counter */
    7880:	dc 1b       	sub	r29, r28

        Data = pgm_read_byte(Table);    /* read byte */
    7882:	f6 01       	movw	r30, r12
    7884:	94 90       	lpm	r9, Z

        /* send color for each bit */
        n = Bits;                       /* reset counter */
        n *= SYMBOL_RESIZE;             /* and consider resize factor */

        while (n > 0)                   /* x pixels */
    7886:	cc 23       	and	r28, r28
    7888:	59 f0       	breq	.+22     	; 0x78a0 <LCD_Symbol+0x8a>
        {
          if (Data & 0b00000001)             /* bit set */
    788a:	90 fe       	sbrs	r9, 0
    788c:	02 c0       	rjmp	.+4      	; 0x7892 <LCD_Symbol+0x7c>
          {
            LCD_Data2(Offset);               /* foreground color */
    788e:	c5 01       	movw	r24, r10
    7890:	02 c0       	rjmp	.+4      	; 0x7896 <LCD_Symbol+0x80>
          }
          else                               /* bit unset */
          {
            LCD_Data2(COLOR_BACKGROUND);     /* background color */
    7892:	80 e0       	ldi	r24, 0x00	; 0
    7894:	90 e0       	ldi	r25, 0x00	; 0
    7896:	0e 94 73 3a 	call	0x74e6	; 0x74e6 <LCD_Data2>
          }

          n--;                          /* next pixel */
    789a:	c1 50       	subi	r28, 0x01	; 1

          if (n % SYMBOL_RESIZE == 0)   /* for every resize step */
          {
            Data >>= 1;                 /* shift byte for next bit */
    789c:	96 94       	lsr	r9
    789e:	f3 cf       	rjmp	.-26     	; 0x7886 <LCD_Symbol+0x70>
          }
        }

        Table++;                        /* address for next byte */
    78a0:	ff ef       	ldi	r31, 0xFF	; 255
    78a2:	cf 1a       	sub	r12, r31
    78a4:	df 0a       	sbc	r13, r31
    78a6:	fa 94       	dec	r15

      Pixels = SYMBOL_SIZE_X;           /* x bits to be sent */
      x = 1;                            /* reset counter */

      /* read and send all bytes for this row */
      while (x <= SYMBOL_BYTES_X)
    78a8:	ff 20       	and	r15, r15
    78aa:	21 f0       	breq	.+8      	; 0x78b4 <LCD_Symbol+0x9e>
      {
        /* track x bits */
        if (Pixels >= 8)           /* a byte or more left */
    78ac:	d8 30       	cpi	r29, 0x08	; 8
    78ae:	38 f7       	brcc	.-50     	; 0x787e <LCD_Symbol+0x68>
    78b0:	cd 2f       	mov	r28, r29
    78b2:	e6 cf       	rjmp	.-52     	; 0x7880 <LCD_Symbol+0x6a>
    78b4:	0c 5f       	subi	r16, 0xFC	; 252
    78b6:	1f 4f       	sbci	r17, 0xFF	; 255
    78b8:	ea 94       	dec	r14
  #endif

  LCD_Cmd(CMD_MEM_WRITE);               /* start writing */

  /* read character bitmap and send it to display */
  while (y <= SYMBOL_BYTES_Y)
    78ba:	e1 10       	cpse	r14, r1
    78bc:	dc cf       	rjmp	.-72     	; 0x7876 <LCD_Symbol+0x60>
    }              
  }

  /* mark text lines as used */
  n = LCD_SYMBOL_CHAR_Y;           /* set line counter */
  x = UI.SymbolPos_Y;              /* start line */
    78be:	60 91 32 01 	lds	r22, 0x0132	; 0x800132 <UI+0xc>
  while (n > 1)                    /* first line already set */
  {
    x++;                           /* next line */
    LCD_CharPos(1, x);             /* mark line */
    78c2:	6f 5f       	subi	r22, 0xFF	; 255
    78c4:	81 e0       	ldi	r24, 0x01	; 1
    78c6:	0e 94 9f 3a 	call	0x753e	; 0x753e <LCD_CharPos>
    n--;                           /* next line */
  }
}
    78ca:	cd b7       	in	r28, 0x3d	; 61
    78cc:	de b7       	in	r29, 0x3e	; 62
    78ce:	eb e0       	ldi	r30, 0x0B	; 11
    78d0:	0c 94 3a 3f 	jmp	0x7e74	; 0x7e74 <__epilogue_restores__+0xe>

000078d4 <wait5s>:
/*
 *  20s and up (clock rate independent)
 */

wait5s:
 rcall wait1s		;1s	12+x return addresses
    78d4:	03 d0       	rcall	.+6      	; 0x78dc <wait1000ms>

000078d6 <wait4s>:
;proceed with wait4s	;+4s

wait4s:
 rcall wait1s		;1s	12+x return addresses
    78d6:	02 d0       	rcall	.+4      	; 0x78dc <wait1000ms>

000078d8 <wait3s>:
;proceed with wait3s	;+3s

wait3s:
 rcall wait1s		;1s	12+x return addresses
    78d8:	01 d0       	rcall	.+2      	; 0x78dc <wait1000ms>

000078da <wait2s>:
;proceed with wait2s	;+2s

wait2s:
 rcall wait1s		;1s     12+x return addresses
    78da:	00 d0       	rcall	.+0      	; 0x78dc <wait1000ms>

000078dc <wait1000ms>:
;proceed with wait1s	;+1s

wait1s:
wait1000ms:	
 rcall wait500ms	;500ms	11+x return addresses
    78dc:	00 d0       	rcall	.+0      	; 0x78de <wait500ms>

000078de <wait500ms>:
;proceed with wait500ms	;+500ms	

wait500ms:
 rcall wait100ms	;100ms	10+x return addresses
    78de:	03 d0       	rcall	.+6      	; 0x78e6 <wait100ms>

000078e0 <wait400ms>:
;proceed with wait400ms	;+400ms

wait400ms:
 rcall wait100ms	;100ms	10+x return addresses
    78e0:	02 d0       	rcall	.+4      	; 0x78e6 <wait100ms>

000078e2 <wait300ms>:
;proceed with wait300ms	;+300ms

wait300ms:
 rcall wait100ms        ;100ms	10+x return addresses
    78e2:	01 d0       	rcall	.+2      	; 0x78e6 <wait100ms>

000078e4 <wait200ms>:
;proceed with wait200ms	;+200ms

wait200ms:
 rcall wait100ms	;100ms	10+x return addresses
    78e4:	00 d0       	rcall	.+0      	; 0x78e6 <wait100ms>

000078e6 <wait100ms>:
;proceed with wait100ms ;+100ms

wait100ms:
 wdr			;reset watchdog every 100ms!
    78e6:	a8 95       	wdr
 rcall wait50ms	    	;50ms	9+x return addresses
    78e8:	00 d0       	rcall	.+0      	; 0x78ea <wait50ms>

000078ea <wait50ms>:
;proceed with wait50ms 	;+50ms

wait50ms:
 rcall wait10ms	    	;10ms	8+x return addresses 
    78ea:	03 d0       	rcall	.+6      	; 0x78f2 <wait10ms>

000078ec <wait40ms>:
;proceed with wait40ms	;+40ms

wait40ms:
 rcall wait10ms	    	;10ms	8+x return addresses
    78ec:	02 d0       	rcall	.+4      	; 0x78f2 <wait10ms>

000078ee <wait30ms>:
;proceed with wait30us 	;+30ms

wait30ms:
 rcall wait10ms	    	;10ms	8+x return addresses
    78ee:	01 d0       	rcall	.+2      	; 0x78f2 <wait10ms>

000078f0 <wait20ms>:
;proceed with wait20us 	;+20ms

wait20ms:
 rcall wait10ms	    	;10ms	8+x return addresses
    78f0:	00 d0       	rcall	.+0      	; 0x78f2 <wait10ms>

000078f2 <wait10ms>:
;proceed with wait10ms	;+10ms

wait10ms:
 rcall wait5ms	   	;5ms	7+x return addresses
    78f2:	00 d0       	rcall	.+0      	; 0x78f4 <wait5ms>

000078f4 <wait5ms>:
;proceed with wait5ms	;+5ms

wait5ms:
 rcall wait1ms	   	;1ms	6+x return addresses
    78f4:	03 d0       	rcall	.+6      	; 0x78fc <wait1ms>

000078f6 <wait4ms>:
;proceed with wait4ms	;+4ms

wait4ms:
 rcall wait1ms	   	;1ms	6+x return addresses
    78f6:	02 d0       	rcall	.+4      	; 0x78fc <wait1ms>

000078f8 <wait3ms>:
;proceed with wait3ms	;+3ms	

wait3ms:
 rcall wait1ms	   	;1ms	6+x return addresses
    78f8:	01 d0       	rcall	.+2      	; 0x78fc <wait1ms>

000078fa <wait2ms>:
;proceed with wait2ms	;+2ms

wait2ms:
 rcall wait1ms	   	;1ms	6+x return addresses
    78fa:	00 d0       	rcall	.+0      	; 0x78fc <wait1ms>

000078fc <wait1ms>:
;proceed with wait1ms	;+1ms

wait1ms:
 rcall wait500us    	;500s	5+x return addresses
    78fc:	00 d0       	rcall	.+0      	; 0x78fe <wait500us>

000078fe <wait500us>:
;laeuft in wait500us	;+500s

wait500us:
 rcall wait100us    	;100s	4+x return addresses
    78fe:	03 d0       	rcall	.+6      	; 0x7906 <wait100us>

00007900 <wait400us>:
;proceed with wait400us	;+400s

wait400us:
 rcall wait100us    	;100s	4+x return addresses
    7900:	02 d0       	rcall	.+4      	; 0x7906 <wait100us>

00007902 <wait300us>:
;proceed with wait300us	;+300s

wait300us:
 rcall wait100us    	;100s	4+x return addresses
    7902:	01 d0       	rcall	.+2      	; 0x7906 <wait100us>

00007904 <wait200us>:
;proceed with wait200us	;+200s

wait200us:
 rcall wait100us    	;100s	4+x return addresses
    7904:	00 d0       	rcall	.+0      	; 0x7906 <wait100us>

00007906 <wait100us>:
;proceed with wait100us	;+100s	

wait100us:
 rcall wait50us	    	;50s	3+x return addresses
    7906:	00 d0       	rcall	.+0      	; 0x7908 <wait50us>

00007908 <wait50us>:
;proceed with wait50us	;+50s	

wait50us:
 rcall wait10us     	;10s	2+x return addresses
    7908:	03 d0       	rcall	.+6      	; 0x7910 <wait10us>

0000790a <wait40us>:
;proceed with wait40us	;+40s

wait40us:
 rcall wait10us     	;10s	2+x return addresses
    790a:	02 d0       	rcall	.+4      	; 0x7910 <wait10us>

0000790c <wait30us>:
;proceed with wait30us	;+30s

wait30us:
 rcall wait10us     	;10s	2+x return addresses
    790c:	01 d0       	rcall	.+2      	; 0x7910 <wait10us>

0000790e <wait20us>:
;proceed with wait20us	;+20s

wait20us:
 rcall wait10us		;10s	2+x return addresses
    790e:	00 d0       	rcall	.+0      	; 0x7910 <wait10us>

00007910 <wait10us>:
.global wait3us		;wait 3s
.global wait2us		;wait 2s
.global wait1us		;wait 1s

;wait10us
 rcall wait5us		;5s
    7910:	00 d0       	rcall	.+0      	; 0x7912 <wait5us>

00007912 <wait5us>:
;proceed with wait5us	;+5s

wait5us:
 rcall wait1us		;1s
    7912:	03 d0       	rcall	.+6      	; 0x791a <wait1us>

00007914 <wait4us>:
;proceed with wait4us	;+4s

wait4us:
 rcall wait1us		;1s
    7914:	02 d0       	rcall	.+4      	; 0x791a <wait1us>

00007916 <wait3us>:
;proceed with wait3us	;+3us

wait3us:
 rcall wait1us		;1s
    7916:	01 d0       	rcall	.+2      	; 0x791a <wait1us>

00007918 <wait2us>:
;proceed with wait2us	;+2s

wait2us:
 rcall wait1us		;1s
    7918:	00 d0       	rcall	.+0      	; 0x791a <wait1us>

0000791a <wait1us>:
;proceed with wait1us	;+1s

wait1us:
 nop			;1s
    791a:	00 00       	nop
 nop
 nop                    ;500ns
#endif


 ret
    791c:	08 95       	ret

0000791e <main>:
/*
 *  main function
 */

int main(void)
{
    791e:	ef 92       	push	r14
    7920:	ff 92       	push	r15
    7922:	0f 93       	push	r16
    7924:	1f 93       	push	r17
    7926:	cf 93       	push	r28
    7928:	df 93       	push	r29
   *  init hardware
   */

  #ifdef POWER_SWITCH_SOFT
  /* switch on power to keep me alive */
  POWER_DDR = (1 << POWER_CTRL);        /* set pin as output */
    792a:	80 e4       	ldi	r24, 0x40	; 64
    792c:	8a b9       	out	0x0a, r24	; 10
  POWER_PORT = (1 << POWER_CTRL);       /* set pin to drive power management transistor */
    792e:	8b b9       	out	0x0b, r24	; 11
  #endif

  /* set up MCU */
  MCUCR = (1 << PUD);                   /* disable pull-up resistors globally */
    7930:	80 e1       	ldi	r24, 0x10	; 16
    7932:	85 bf       	out	0x35, r24	; 53
  ADCSRA = (1 << ADEN) | ADC_CLOCK_DIV; /* enable ADC and set clock divider */
    7934:	86 e8       	ldi	r24, 0x86	; 134
    7936:	80 93 7a 00 	sts	0x007A, r24	; 0x80007a <__DATA_REGION_ORIGIN__+0x1a>
                                        /* ADC_PORT should be 0 */
  ADC_DDR = (1 << TP_REF);              /* disable relay */
  #endif

  /* catch watchdog */  
  Test = (MCUSR & (1 << WDRF));         /* save watchdog flag */
    793a:	c4 b7       	in	r28, 0x34	; 52
    793c:	c8 70       	andi	r28, 0x08	; 8
  MCUSR &= ~(1 << WDRF);                /* reset watchdog flag */
    793e:	84 b7       	in	r24, 0x34	; 52
    7940:	87 7f       	andi	r24, 0xF7	; 247
    7942:	84 bf       	out	0x34, r24	; 52
    7944:	0f b6       	in	r0, 0x3f	; 63
    7946:	f8 94       	cli
    7948:	a8 95       	wdr
    794a:	80 91 60 00 	lds	r24, 0x0060	; 0x800060 <__DATA_REGION_ORIGIN__>
    794e:	88 61       	ori	r24, 0x18	; 24
    7950:	80 93 60 00 	sts	0x0060, r24	; 0x800060 <__DATA_REGION_ORIGIN__>
    7954:	10 92 60 00 	sts	0x0060, r1	; 0x800060 <__DATA_REGION_ORIGIN__>
    7958:	0f be       	out	0x3f, r0	; 63
   *  set important default values
   */

  #if defined (UI_AUTOHOLD) || defined (UI_SERIAL_COMMANDS)
    /* reset mode/state flags and set auto-hold mode */
    Cfg.OP_Mode = OP_AUTOHOLD;          /* set auto-hold */
    795a:	81 e0       	ldi	r24, 0x01	; 1
    795c:	80 93 a0 01 	sts	0x01A0, r24	; 0x8001a0 <Cfg>
  #else
    /* reset mode/state flags and set continuous mode */
    Cfg.OP_Mode = OP_NONE;              /* none = continuous */
  #endif
  Cfg.OP_Control = OP_OUT_LCD;          /* reset control/signal flags */
    7960:	82 e0       	ldi	r24, 0x02	; 2
    7962:	80 93 a1 01 	sts	0x01A1, r24	; 0x8001a1 <Cfg+0x1>
                                        /* enable output to display */
  #ifdef SAVE_POWER
  Cfg.SleepMode = SLEEP_MODE_PWR_SAVE;  /* sleep mode: power save */
    7966:	86 e0       	ldi	r24, 0x06	; 6
    7968:	80 93 a2 01 	sts	0x01A2, r24	; 0x8001a2 <Cfg+0x2>
  I2C_Setup();                          /* set up I2C bus */
  #endif

  #ifdef HW_SPI
  /* hardware or bitbang SPI */
  SPI_Setup();                          /* set up SPI bus */
    796c:	0e 94 45 3a 	call	0x748a	; 0x748a <SPI_Setup>
  #endif

  /* display module */
  LCD_BusSetup();                       /* set up display bus */
    7970:	0e 94 61 3a 	call	0x74c2	; 0x74c2 <LCD_BusSetup>
   *  - Does only work if the capacitor at the base of the power management
   *    transistor is large enough to survive a MCU reset. Otherwise the
   *    tester simply loses power.
   */

  if (Test)
    7974:	cc 23       	and	r28, r28
    7976:	b1 f0       	breq	.+44     	; 0x79a4 <main+0x86>
  {
    /* Display was initialized before but some global variables in the driver
       might be zeroed. Drivers with line tracking won't clear screen. */
    LCD_Clear();                        /* clear display */
    7978:	0e 94 31 3b 	call	0x7662	; 0x7662 <LCD_Clear>
    #ifdef LCD_COLOR
    UI.PenColor = COLOR_TITLE;          /* set pen color */
    797c:	8f ef       	ldi	r24, 0xFF	; 255
    797e:	97 e0       	ldi	r25, 0x07	; 7
    7980:	90 93 2d 01 	sts	0x012D, r25	; 0x80012d <UI+0x7>
    7984:	80 93 2c 01 	sts	0x012C, r24	; 0x80012c <UI+0x6>
    #endif
    Display_EEString(Timeout_str);      /* display: timeout */
    7988:	87 ed       	ldi	r24, 0xD7	; 215
    798a:	92 e0       	ldi	r25, 0x02	; 2
    798c:	0e 94 43 20 	call	0x4086	; 0x4086 <Display_EEString>
    Display_NL_EEString(Error_str);     /* display: error */
    7990:	83 e6       	ldi	r24, 0x63	; 99
    7992:	92 e0       	ldi	r25, 0x02	; 2
    7994:	0e 94 77 20 	call	0x40ee	; 0x40ee <Display_NL_EEString>
    MilliSleep(2000);                   /* give user some time to read */
    7998:	80 ed       	ldi	r24, 0xD0	; 208
    799a:	97 e0       	ldi	r25, 0x07	; 7
    799c:	0e 94 2e 17 	call	0x2e5c	; 0x2e5c <MilliSleep>
    #ifdef POWER_SWITCH_SOFT
      POWER_PORT &= ~(1 << POWER_CTRL);      /* power off myself */
    79a0:	5e 98       	cbi	0x0b, 6	; 11
      /* user should power off tester */
      set_sleep_mode(SLEEP_MODE_PWR_DOWN);   /* set sleep mode to "power down" */
      sleep_mode();                          /* enter sleep mode */
    #endif

    return 0;                           /* exit program */
    79a2:	84 c1       	rjmp	.+776    	; 0x7cac <main+0x38e>
   */

  Key = 0;                              /* reset key press type */

  /* catch key press */
  if (!(BUTTON_PIN & (1 << TEST_BUTTON)))    /* test button pressed */
    79a4:	4f 99       	sbic	0x09, 7	; 9
    79a6:	10 c0       	rjmp	.+32     	; 0x79c8 <main+0xaa>
  {
    Test = 0;                      /* ticks counter */

    while (Key == 0)               /* loop until we got a type */
    {
      MilliSleep(20);                   /* wait 20ms */
    79a8:	84 e1       	ldi	r24, 0x14	; 20
    79aa:	90 e0       	ldi	r25, 0x00	; 0
    79ac:	0e 94 2e 17 	call	0x2e5c	; 0x2e5c <MilliSleep>

      if (!(BUTTON_PIN & (1 << TEST_BUTTON)))     /* button still pressed */
    79b0:	4f 99       	sbic	0x09, 7	; 9
    79b2:	05 c0       	rjmp	.+10     	; 0x79be <main+0xa0>
      {
        Test++;                         /* increase counter */
    79b4:	cf 5f       	subi	r28, 0xFF	; 255
        if (Test > 100) Key = 3;        /* >2000ms */
    79b6:	c5 36       	cpi	r28, 0x65	; 101
    79b8:	b9 f7       	brne	.-18     	; 0x79a8 <main+0x8a>
    79ba:	c3 e0       	ldi	r28, 0x03	; 3
    79bc:	71 c1       	rjmp	.+738    	; 0x7ca0 <main+0x382>
      }
      else                                        /* button released */
      {
        Key = 1;                        /* <300ms */
        if (Test > 15) Key = 2;         /* >300ms */
    79be:	c0 31       	cpi	r28, 0x10	; 16
    79c0:	08 f0       	brcs	.+2      	; 0x79c4 <main+0xa6>
    79c2:	6d c1       	rjmp	.+730    	; 0x7c9e <main+0x380>
    79c4:	c1 e0       	ldi	r28, 0x01	; 1
    79c6:	01 c0       	rjmp	.+2      	; 0x79ca <main+0xac>
   *  - short key press -> continuous mode
   *  - long key press -> auto-hold mode
   *  - very long key press -> reset to defaults
   */

  Key = 0;                              /* reset key press type */
    79c8:	c0 e0       	ldi	r28, 0x00	; 0
  }
  #endif

  #ifdef POWER_OFF_TIMEOUT
  /* automatic power-off for auto-hold mode */
  if (Cfg.OP_Mode & OP_AUTOHOLD)        /* in auto-hold mode */
    79ca:	80 91 a0 01 	lds	r24, 0x01A0	; 0x8001a0 <Cfg>
    79ce:	80 ff       	sbrs	r24, 0
    79d0:	05 c0       	rjmp	.+10     	; 0x79dc <main+0xbe>
  {
    Cfg.OP_Control |= OP_PWR_TIMEOUT;   /* enable power-off timeout */
    79d2:	80 91 a1 01 	lds	r24, 0x01A1	; 0x8001a1 <Cfg+0x1>
    79d6:	80 62       	ori	r24, 0x20	; 32
    79d8:	80 93 a1 01 	sts	0x01A1, r24	; 0x8001a1 <Cfg+0x1>

  #ifdef SW_DISPLAY_ID
  Cfg.DisplayID = 0;                    /* reset display ID */
  #endif

  LCD_Init();                           /* initialize LCD */
    79dc:	0e 94 3f 3b 	call	0x767e	; 0x767e <LCD_Init>

  UI.LineMode = LINE_STD;               /* reset next-line mode */
    79e0:	10 92 26 01 	sts	0x0126, r1	; 0x800126 <UI>
  #ifdef LCD_COLOR
  UI.PenColor = COLOR_TITLE;            /* set pen color */
    79e4:	8f ef       	ldi	r24, 0xFF	; 255
    79e6:	97 e0       	ldi	r25, 0x07	; 7
    79e8:	90 93 2d 01 	sts	0x012D, r25	; 0x80012d <UI+0x7>
    79ec:	80 93 2c 01 	sts	0x012C, r24	; 0x80012c <UI+0x6>

  /*
   *  load saved adjustment offsets and values
   */

  if (Key == 3)               /* key press >2s resets to defaults */
    79f0:	c3 30       	cpi	r28, 0x03	; 3
    79f2:	19 f4       	brne	.+6      	; 0x79fa <main+0xdc>
  {
    SetAdjustmentDefaults();       /* set default values */
    79f4:	0e 94 9d 17 	call	0x2f3a	; 0x2f3a <SetAdjustmentDefaults>
    79f8:	04 c0       	rjmp	.+8      	; 0x7a02 <main+0xe4>
  }
  else                        /* normal mode */
  {
    /* load adjustment values: profile #1 */
    ManageAdjustmentStorage(STORAGE_LOAD, 1);
    79fa:	61 e0       	ldi	r22, 0x01	; 1
    79fc:	81 e0       	ldi	r24, 0x01	; 1
    79fe:	0e 94 be 17 	call	0x2f7c	; 0x2f7c <ManageAdjustmentStorage>

  #ifdef UI_SERIAL_COPY
  Display_Serial_On();                  /* enable serial output & NL */
  #endif

  Display_EEString(Tester_str);         /* display: Component Tester */
    7a02:	8a ee       	ldi	r24, 0xEA	; 234
    7a04:	92 e0       	ldi	r25, 0x02	; 2
    7a06:	0e 94 43 20 	call	0x4086	; 0x4086 <Display_EEString>
  Display_NL_EEString(Version_str);     /* display firmware version */
    7a0a:	85 eb       	ldi	r24, 0xB5	; 181
    7a0c:	91 e0       	ldi	r25, 0x01	; 1
    7a0e:	0e 94 77 20 	call	0x40ee	; 0x40ee <Display_NL_EEString>
  #ifdef UI_SERIAL_COPY
  Display_Serial_Off();                 /* disable serial output & NL */
  #endif

  #ifdef LCD_COLOR
  UI.PenColor = COLOR_PEN;              /* set pen color */
    7a12:	80 ee       	ldi	r24, 0xE0	; 224
    7a14:	97 e0       	ldi	r25, 0x07	; 7
    7a16:	90 93 2d 01 	sts	0x012D, r25	; 0x80012d <UI+0x7>
    7a1a:	80 93 2c 01 	sts	0x012C, r24	; 0x80012c <UI+0x6>
  #endif

  MilliSleep(1500);                     /* let the user read the display */
    7a1e:	8c ed       	ldi	r24, 0xDC	; 220
    7a20:	95 e0       	ldi	r25, 0x05	; 5
    7a22:	0e 94 2e 17 	call	0x2e5c	; 0x2e5c <MilliSleep>
   *  init variables
   */

  /* cycling */
  #if CYCLE_MAX < 255
  MissedParts = 0;                      /* reset counter */
    7a26:	10 92 ad 01 	sts	0x01AD, r1	; 0x8001ad <MissedParts>
  #endif
  Key = KEY_POWER_ON;                   /* just powered on */

  /* default offsets and values */
  Cfg.Samples = ADC_SAMPLES;            /* number of ADC samples */
    7a2a:	89 e1       	ldi	r24, 0x19	; 25
    7a2c:	80 93 a3 01 	sts	0x01A3, r24	; 0x8001a3 <Cfg+0x3>
  Cfg.AutoScale = 1;                    /* enable ADC auto scaling */
    7a30:	81 e0       	ldi	r24, 0x01	; 1
    7a32:	80 93 a4 01 	sts	0x01A4, r24	; 0x8001a4 <Cfg+0x4>
  Cfg.Ref = 1;                          /* no ADC reference set yet */
    7a36:	80 93 a5 01 	sts	0x01A5, r24	; 0x8001a5 <Cfg+0x5>
  Cfg.Vcc = UREF_VCC;                   /* voltage of Vcc */
    7a3a:	89 e8       	ldi	r24, 0x89	; 137
    7a3c:	93 e1       	ldi	r25, 0x13	; 19
    7a3e:	90 93 a9 01 	sts	0x01A9, r25	; 0x8001a9 <Cfg+0x9>
    7a42:	80 93 a8 01 	sts	0x01A8, r24	; 0x8001a8 <Cfg+0x8>
				: "r0"
		);
	}
	else
	{
		__asm__ __volatile__ (
    7a46:	9f e0       	ldi	r25, 0x0F	; 15
    7a48:	88 e1       	ldi	r24, 0x18	; 24
    7a4a:	0f b6       	in	r0, 0x3f	; 63
    7a4c:	f8 94       	cli
    7a4e:	a8 95       	wdr
    7a50:	80 93 60 00 	sts	0x0060, r24	; 0x800060 <__DATA_REGION_ORIGIN__>
    7a54:	0f be       	out	0x3f, r0	; 63
    7a56:	90 93 60 00 	sts	0x0060, r25	; 0x800060 <__DATA_REGION_ORIGIN__>

  /*
   *  interrupts
   */

  sei();                           /* enable interrupts */
    7a5a:	78 94       	sei
  Info.Comp1 = NULL;               /* reset pointer to first component */
  Info.Comp2 = NULL;               /* reset pointer to second component */
  #endif
  #ifdef HW_KEYS
  UI.KeyOld = KEY_NONE;            /* no key */
  UI.KeyStepOld = 1;               /* step size 1 */
    7a5c:	d1 e0       	ldi	r29, 0x01	; 1
  #endif
  #ifdef SW_SYMBOLS
  UI.SymbolLine = 3;               /* default: line #3 */
    7a5e:	c3 e0       	ldi	r28, 0x03	; 3
     *  This also enables the discharge relay via the external reference
     *  and removes the short circuit.
     */
  #endif

  UI.LineMode = LINE_KEEP;              /* next-line mode: keep first line */
    7a60:	82 e0       	ldi	r24, 0x02	; 2
    7a62:	f8 2e       	mov	r15, r24
  UI.LineMode = LINE_STD;          /* reset next-line mode */

  /* wait for key press or timeout */
  #ifdef UI_KEY_HINTS
    Display_LastLine();
    UI.KeyHint = (unsigned char *)Menu_or_Test_str;
    7a64:	0f e1       	ldi	r16, 0x1F	; 31
    7a66:	12 e0       	ldi	r17, 0x02	; 2
   */

cycle_start:

  /* reset variables */
  Check.Found = COMP_NONE;         /* no component */
    7a68:	10 92 06 01 	sts	0x0106, r1	; 0x800106 <__data_end>
  Check.Type = 0;                  /* reset type flags */
    7a6c:	10 92 07 01 	sts	0x0107, r1	; 0x800107 <__data_end+0x1>
  Check.Done = DONE_NONE;          /* no transistor */
    7a70:	10 92 08 01 	sts	0x0108, r1	; 0x800108 <__data_end+0x2>
  Check.AltFound = COMP_NONE;      /* no alternative component */
    7a74:	10 92 09 01 	sts	0x0109, r1	; 0x800109 <__data_end+0x3>
  Check.Diodes = 0;                /* reset diode counter */
    7a78:	10 92 0b 01 	sts	0x010B, r1	; 0x80010b <__data_end+0x5>
  Check.Resistors = 0;             /* reset resistor counter */
    7a7c:	10 92 0a 01 	sts	0x010A, r1	; 0x80010a <__data_end+0x4>
  Semi.Flags = 0;                  /* reset flags */
    7a80:	10 92 b2 01 	sts	0x01B2, r1	; 0x8001b2 <Semi+0x3>
  Semi.U_1 = 0;                    /* reset values */
    7a84:	10 92 b4 01 	sts	0x01B4, r1	; 0x8001b4 <Semi+0x5>
    7a88:	10 92 b3 01 	sts	0x01B3, r1	; 0x8001b3 <Semi+0x4>
  Semi.U_2 = 0;
    7a8c:	10 92 b6 01 	sts	0x01B6, r1	; 0x8001b6 <Semi+0x7>
    7a90:	10 92 b5 01 	sts	0x01B5, r1	; 0x8001b5 <Semi+0x6>
  Semi.U_3 = 0;
    7a94:	10 92 b8 01 	sts	0x01B8, r1	; 0x8001b8 <Semi+0x9>
    7a98:	10 92 b7 01 	sts	0x01B7, r1	; 0x8001b7 <Semi+0x8>
  Semi.F_1 = 0;
    7a9c:	10 92 b9 01 	sts	0x01B9, r1	; 0x8001b9 <Semi+0xa>
    7aa0:	10 92 ba 01 	sts	0x01BA, r1	; 0x8001ba <Semi+0xb>
    7aa4:	10 92 bb 01 	sts	0x01BB, r1	; 0x8001bb <Semi+0xc>
    7aa8:	10 92 bc 01 	sts	0x01BC, r1	; 0x8001bc <Semi+0xd>
  #ifdef SW_REVERSE_HFE
  Semi.F_2 = 0;
    7aac:	10 92 bd 01 	sts	0x01BD, r1	; 0x8001bd <Semi+0xe>
    7ab0:	10 92 be 01 	sts	0x01BE, r1	; 0x8001be <Semi+0xf>
    7ab4:	10 92 bf 01 	sts	0x01BF, r1	; 0x8001bf <Semi+0x10>
    7ab8:	10 92 c0 01 	sts	0x01C0, r1	; 0x8001c0 <Semi+0x11>
  #endif
  Semi.I_value = 0;
    7abc:	10 92 c1 01 	sts	0x01C1, r1	; 0x8001c1 <Semi+0x12>
    7ac0:	10 92 c2 01 	sts	0x01C2, r1	; 0x8001c2 <Semi+0x13>
    7ac4:	10 92 c3 01 	sts	0x01C3, r1	; 0x8001c3 <Semi+0x14>
    7ac8:	10 92 c4 01 	sts	0x01C4, r1	; 0x8001c4 <Semi+0x15>
  AltSemi.U_1 = 0;
    7acc:	10 92 40 01 	sts	0x0140, r1	; 0x800140 <AltSemi+0x4>
    7ad0:	10 92 3f 01 	sts	0x013F, r1	; 0x80013f <AltSemi+0x3>
  AltSemi.U_2 = 0;
    7ad4:	10 92 42 01 	sts	0x0142, r1	; 0x800142 <AltSemi+0x6>
    7ad8:	10 92 41 01 	sts	0x0141, r1	; 0x800141 <AltSemi+0x5>
  Info.Flags = INFO_NONE;          /* reset flags */
  Info.Comp1 = NULL;               /* reset pointer to first component */
  Info.Comp2 = NULL;               /* reset pointer to second component */
  #endif
  #ifdef HW_KEYS
  UI.KeyOld = KEY_NONE;            /* no key */
    7adc:	10 92 33 01 	sts	0x0133, r1	; 0x800133 <UI+0xd>
  UI.KeyStepOld = 1;               /* step size 1 */
    7ae0:	d0 93 35 01 	sts	0x0135, r29	; 0x800135 <UI+0xf>
  #endif
  #ifdef SW_SYMBOLS
  UI.SymbolLine = 3;               /* default: line #3 */
    7ae4:	c0 93 2e 01 	sts	0x012E, r28	; 0x80012e <UI+0x8>
  #endif

  /* reset hardware */
  ADC_DDR = 0;                     /* set all pins of ADC port as input */
    7ae8:	17 b8       	out	0x07, r1	; 7
     *  This also enables the discharge relay via the external reference
     *  and removes the short circuit.
     */
  #endif

  UI.LineMode = LINE_KEEP;              /* next-line mode: keep first line */
    7aea:	f0 92 26 01 	sts	0x0126, r15	; 0x800126 <UI>
  LCD_Clear();                          /* clear LCD */
    7aee:	0e 94 31 3b 	call	0x7662	; 0x7662 <LCD_Clear>

  /*
   *  voltage references
   */

  CheckVoltageRefs();                   /* manage voltage references */
    7af2:	0e 94 11 12 	call	0x2422	; 0x2422 <CheckVoltageRefs>
  #ifdef BAT_NONE
    /* no battery monitoring */
    Display_EEString(Tester_str);       /* display: Component Tester */
  #else
    /* battery monitoring */
    CheckBattery();                     /* check battery voltage */
    7af6:	0e 94 b9 12 	call	0x2572	; 0x2572 <CheckBattery>
                                        /* will power off on low battery */
    ShowBattery();                      /* display battery status */
    7afa:	0e 94 77 12 	call	0x24ee	; 0x24ee <ShowBattery>
    /* will also change Key */
  }
  #endif

  /* display start of probing */
  Display_NL_EEString(Probing_str);     /* display: probing... */
    7afe:	8f ed       	ldi	r24, 0xDF	; 223
    7b00:	92 e0       	ldi	r25, 0x02	; 2
    7b02:	0e 94 77 20 	call	0x40ee	; 0x40ee <Display_NL_EEString>

  /* try to discharge any connected component */
  DischargeProbes();
    7b06:	0e 94 2d 1d 	call	0x3a5a	; 0x3a5a <DischargeProbes>
  if (Check.Found == COMP_ERROR)   /* discharge failed */
    7b0a:	80 91 06 01 	lds	r24, 0x0106	; 0x800106 <__data_end>
    7b0e:	81 30       	cpi	r24, 0x01	; 1
    7b10:	d1 f1       	breq	.+116    	; 0x7b86 <main+0x268>
    goto cycle_action;             /* perform action */
  }
  #endif

  /* check all 6 combinations of the 3 probes */
  CheckProbes(PROBE_1, PROBE_2, PROBE_3);
    7b12:	42 e0       	ldi	r20, 0x02	; 2
    7b14:	61 e0       	ldi	r22, 0x01	; 1
    7b16:	80 e0       	ldi	r24, 0x00	; 0
    7b18:	0e 94 45 1f 	call	0x3e8a	; 0x3e8a <CheckProbes>
  CheckProbes(PROBE_2, PROBE_1, PROBE_3);
    7b1c:	42 e0       	ldi	r20, 0x02	; 2
    7b1e:	60 e0       	ldi	r22, 0x00	; 0
    7b20:	81 e0       	ldi	r24, 0x01	; 1
    7b22:	0e 94 45 1f 	call	0x3e8a	; 0x3e8a <CheckProbes>
  CheckProbes(PROBE_1, PROBE_3, PROBE_2);
    7b26:	41 e0       	ldi	r20, 0x01	; 1
    7b28:	62 e0       	ldi	r22, 0x02	; 2
    7b2a:	80 e0       	ldi	r24, 0x00	; 0
    7b2c:	0e 94 45 1f 	call	0x3e8a	; 0x3e8a <CheckProbes>
  CheckProbes(PROBE_3, PROBE_1, PROBE_2);
    7b30:	41 e0       	ldi	r20, 0x01	; 1
    7b32:	60 e0       	ldi	r22, 0x00	; 0
    7b34:	82 e0       	ldi	r24, 0x02	; 2
    7b36:	0e 94 45 1f 	call	0x3e8a	; 0x3e8a <CheckProbes>
  CheckProbes(PROBE_2, PROBE_3, PROBE_1);
    7b3a:	40 e0       	ldi	r20, 0x00	; 0
    7b3c:	62 e0       	ldi	r22, 0x02	; 2
    7b3e:	81 e0       	ldi	r24, 0x01	; 1
    7b40:	0e 94 45 1f 	call	0x3e8a	; 0x3e8a <CheckProbes>
  CheckProbes(PROBE_3, PROBE_2, PROBE_1);
    7b44:	40 e0       	ldi	r20, 0x00	; 0
    7b46:	61 e0       	ldi	r22, 0x01	; 1
    7b48:	82 e0       	ldi	r24, 0x02	; 2
    7b4a:	0e 94 45 1f 	call	0x3e8a	; 0x3e8a <CheckProbes>

  CheckAlternatives();             /* process alternatives */
    7b4e:	0e 94 ea 1f 	call	0x3fd4	; 0x3fd4 <CheckAlternatives>

  /* if component might be a capacitor */
  if ((Check.Found == COMP_NONE) ||
    7b52:	80 91 06 01 	lds	r24, 0x0106	; 0x800106 <__data_end>
    7b56:	88 23       	and	r24, r24
    7b58:	11 f0       	breq	.+4      	; 0x7b5e <main+0x240>
    7b5a:	8a 30       	cpi	r24, 0x0A	; 10
    7b5c:	a1 f4       	brne	.+40     	; 0x7b86 <main+0x268>
      (Check.Found == COMP_RESISTOR))
  {
    /* tell user to be patient with large caps :-) */
    Display_Space();
    7b5e:	0e 94 6e 20 	call	0x40dc	; 0x40dc <Display_Space>
    Display_Char('C');    
    7b62:	83 e4       	ldi	r24, 0x43	; 67
    7b64:	0e 94 8a 3b 	call	0x7714	; 0x7714 <LCD_Char>

    /* check all possible combinations */
    MeasureCap(PROBE_3, PROBE_1, 0);
    7b68:	40 e0       	ldi	r20, 0x00	; 0
    7b6a:	60 e0       	ldi	r22, 0x00	; 0
    7b6c:	82 e0       	ldi	r24, 0x02	; 2
    7b6e:	0e 94 80 29 	call	0x5300	; 0x5300 <MeasureCap>
    MeasureCap(PROBE_3, PROBE_2, 1);
    7b72:	41 e0       	ldi	r20, 0x01	; 1
    7b74:	61 e0       	ldi	r22, 0x01	; 1
    7b76:	82 e0       	ldi	r24, 0x02	; 2
    7b78:	0e 94 80 29 	call	0x5300	; 0x5300 <MeasureCap>
    MeasureCap(PROBE_2, PROBE_1, 2);
    7b7c:	42 e0       	ldi	r20, 0x02	; 2
    7b7e:	60 e0       	ldi	r22, 0x00	; 0
    7b80:	81 e0       	ldi	r24, 0x01	; 1
    7b82:	0e 94 80 29 	call	0x5300	; 0x5300 <MeasureCap>
   *  output test results
   */

show_component:

  LCD_Clear();                     /* clear LCD */
    7b86:	0e 94 31 3b 	call	0x7662	; 0x7662 <LCD_Clear>
  if (Key == KEY_PROBE)            /* probing by command */
  {
    Test = LINE_KEEP;              /* don't wait for key/timeout */
  }
  #endif
  UI.LineMode = Test;              /* change mode */
    7b8a:	c0 93 26 01 	sts	0x0126, r28	; 0x800126 <UI>
    Info.Quantity = 1;             /* got one at least */
  }
  #endif

  /* call output function based on component type */
  switch (Check.Found)
    7b8e:	80 91 06 01 	lds	r24, 0x0106	; 0x800106 <__data_end>
    7b92:	8f 31       	cpi	r24, 0x1F	; 31
    7b94:	39 f1       	breq	.+78     	; 0x7be4 <main+0x2c6>
    7b96:	88 f4       	brcc	.+34     	; 0x7bba <main+0x29c>
    7b98:	8b 30       	cpi	r24, 0x0B	; 11
    7b9a:	81 f1       	breq	.+96     	; 0x7bfc <main+0x2de>
    7b9c:	38 f4       	brcc	.+14     	; 0x7bac <main+0x28e>
    7b9e:	81 30       	cpi	r24, 0x01	; 1
    7ba0:	d9 f0       	breq	.+54     	; 0x7bd8 <main+0x2ba>
    7ba2:	8a 30       	cpi	r24, 0x0A	; 10
    7ba4:	71 f5       	brne	.+92     	; 0x7c02 <main+0x2e4>
      Show_UJT();
      break;
    #endif

    case COMP_RESISTOR:
      Show_Resistor();
    7ba6:	0e 94 8a 0c 	call	0x1914	; 0x1914 <Show_Resistor>
      break;
    7baa:	2d c0       	rjmp	.+90     	; 0x7c06 <main+0x2e8>
    Info.Quantity = 1;             /* got one at least */
  }
  #endif

  /* call output function based on component type */
  switch (Check.Found)
    7bac:	84 31       	cpi	r24, 0x14	; 20
    7bae:	b9 f0       	breq	.+46     	; 0x7bde <main+0x2c0>
    7bb0:	8e 31       	cpi	r24, 0x1E	; 30
    7bb2:	39 f5       	brne	.+78     	; 0x7c02 <main+0x2e4>
    case COMP_DIODE:
      Show_Diode();
      break;

    case COMP_BJT:
      Show_BJT();
    7bb4:	0e 94 73 0f 	call	0x1ee6	; 0x1ee6 <Show_BJT>
      break;
    7bb8:	26 c0       	rjmp	.+76     	; 0x7c06 <main+0x2e8>
    Info.Quantity = 1;             /* got one at least */
  }
  #endif

  /* call output function based on component type */
  switch (Check.Found)
    7bba:	82 32       	cpi	r24, 0x22	; 34
    7bbc:	c9 f0       	breq	.+50     	; 0x7bf0 <main+0x2d2>
    7bbe:	28 f4       	brcc	.+10     	; 0x7bca <main+0x2ac>
    7bc0:	80 32       	cpi	r24, 0x20	; 32
    7bc2:	99 f0       	breq	.+38     	; 0x7bea <main+0x2cc>
    7bc4:	81 32       	cpi	r24, 0x21	; 33
    7bc6:	a1 f0       	breq	.+40     	; 0x7bf0 <main+0x2d2>
    7bc8:	1c c0       	rjmp	.+56     	; 0x7c02 <main+0x2e4>
    7bca:	83 32       	cpi	r24, 0x23	; 35
    7bcc:	a1 f0       	breq	.+40     	; 0x7bf6 <main+0x2d8>
    7bce:	84 32       	cpi	r24, 0x24	; 36
    7bd0:	c1 f4       	brne	.+48     	; 0x7c02 <main+0x2e4>
      Show_PUT();
      break;

    #ifdef SW_UJT
    case COMP_UJT:
      Show_UJT();
    7bd2:	0e 94 f7 11 	call	0x23ee	; 0x23ee <Show_UJT>
      break;
    7bd6:	17 c0       	rjmp	.+46     	; 0x7c06 <main+0x2e8>

  /* call output function based on component type */
  switch (Check.Found)
  {
    case COMP_ERROR:
      Show_Error();
    7bd8:	0e 94 4e 0c 	call	0x189c	; 0x189c <Show_Error>
      break;
    7bdc:	14 c0       	rjmp	.+40     	; 0x7c06 <main+0x2e8>

    case COMP_DIODE:
      Show_Diode();
    7bde:	0e 94 0d 0e 	call	0x1c1a	; 0x1c1a <Show_Diode>
      break;
    7be2:	11 c0       	rjmp	.+34     	; 0x7c06 <main+0x2e8>
    case COMP_BJT:
      Show_BJT();
      break;

    case COMP_FET:
      Show_FET();
    7be4:	0e 94 41 11 	call	0x2282	; 0x2282 <Show_FET>
      break;
    7be8:	0e c0       	rjmp	.+28     	; 0x7c06 <main+0x2e8>

    case COMP_IGBT:
      Show_IGBT();
    7bea:	0e 94 8e 11 	call	0x231c	; 0x231c <Show_IGBT>
      break;
    7bee:	0b c0       	rjmp	.+22     	; 0x7c06 <main+0x2e8>
    case COMP_THYRISTOR:
      Show_ThyristorTriac();
      break;

    case COMP_TRIAC:
      Show_ThyristorTriac();
    7bf0:	0e 94 a0 11 	call	0x2340	; 0x2340 <Show_ThyristorTriac>
      break;
    7bf4:	08 c0       	rjmp	.+16     	; 0x7c06 <main+0x2e8>

    case COMP_PUT:
      Show_PUT();
    7bf6:	0e 94 cd 11 	call	0x239a	; 0x239a <Show_PUT>
      break;
    7bfa:	05 c0       	rjmp	.+10     	; 0x7c06 <main+0x2e8>
    case COMP_RESISTOR:
      Show_Resistor();
      break;

    case COMP_CAPACITOR:
      Show_Capacitor();
    7bfc:	0e 94 42 0d 	call	0x1a84	; 0x1a84 <Show_Capacitor>
      break;
    7c00:	02 c0       	rjmp	.+4      	; 0x7c06 <main+0x2e8>

    default:                  /* no component found */
      Show_Fail();
    7c02:	0e 94 40 0c 	call	0x1880	; 0x1880 <Show_Fail>
  Display_Serial_Off();            /* disable serial output & NL */
  #endif

  #ifdef SW_SYMBOLS
  /* display fancy pinout for 3-pin semiconductors */
  if (Check.Found >= COMP_BJT)     /* 3-pin semi */
    7c06:	80 91 06 01 	lds	r24, 0x0106	; 0x800106 <__data_end>
    7c0a:	8e 31       	cpi	r24, 0x1E	; 30
    7c0c:	28 f0       	brcs	.+10     	; 0x7c18 <main+0x2fa>
  {
    if (UI.SymbolLine)             /* not zero */
    7c0e:	80 91 2e 01 	lds	r24, 0x012E	; 0x80012e <UI+0x8>
    7c12:	81 11       	cpse	r24, r1
    {
      LCD_FancySemiPinout(UI.SymbolLine);    /* display pinout */
    7c14:	0e 94 eb 21 	call	0x43d6	; 0x43d6 <LCD_FancySemiPinout>
  }
  #endif

  #if CYCLE_MAX < 255
  /* component was found */
  if (Check.Found >= COMP_RESISTOR)
    7c18:	80 91 06 01 	lds	r24, 0x0106	; 0x800106 <__data_end>
    7c1c:	8a 30       	cpi	r24, 0x0A	; 10
    7c1e:	10 f0       	brcs	.+4      	; 0x7c24 <main+0x306>
  {
    MissedParts = 0;          /* reset counter */
    7c20:	10 92 ad 01 	sts	0x01AD, r1	; 0x8001ad <MissedParts>

  #ifdef SERIAL_RW
  Serial_Ctrl(SER_RX_RESUME);      /* enable TTL serial RX */
  #endif

  UI.LineMode = LINE_STD;          /* reset next-line mode */
    7c24:	10 92 26 01 	sts	0x0126, r1	; 0x800126 <UI>

  /* wait for key press or timeout */
  #ifdef UI_KEY_HINTS
    Display_LastLine();
    7c28:	0e 94 2d 20 	call	0x405a	; 0x405a <Display_LastLine>
    UI.KeyHint = (unsigned char *)Menu_or_Test_str;
    7c2c:	10 93 3b 01 	sts	0x013B, r17	; 0x80013b <UI+0x15>
    7c30:	00 93 3a 01 	sts	0x013A, r16	; 0x80013a <UI+0x14>
    Key = TestKey((uint16_t)CYCLE_DELAY, CURSOR_BLINK | CURSOR_TEXT | CHECK_OP_MODE | CHECK_KEY_TWICE | CHECK_BAT);
    7c34:	6e e3       	ldi	r22, 0x3E	; 62
    7c36:	88 e8       	ldi	r24, 0x88	; 136
    7c38:	93 e1       	ldi	r25, 0x13	; 19
    7c3a:	0e 94 0b 14 	call	0x2816	; 0x2816 <TestKey>
  #else
    Key = TestKey((uint16_t)CYCLE_DELAY, CURSOR_BLINK | CHECK_OP_MODE | CHECK_KEY_TWICE | CHECK_BAT);
  #endif

  if (Key == KEY_TIMEOUT)          /* timeout (no key press) */
    7c3e:	81 11       	cpse	r24, r1
    7c40:	05 c0       	rjmp	.+10     	; 0x7c4c <main+0x32e>
  {
    /* implies continuous mode */

    #if CYCLE_MAX < 255
    /* check if we reached the maximum number of missed parts in a row */
    if (MissedParts >= CYCLE_MAX)
    7c42:	80 91 ad 01 	lds	r24, 0x01AD	; 0x8001ad <MissedParts>
    7c46:	85 30       	cpi	r24, 0x05	; 5
    7c48:	38 f5       	brcc	.+78     	; 0x7c98 <main+0x37a>
    7c4a:	0e cf       	rjmp	.-484    	; 0x7a68 <main+0x14a>
    {
      Key = KEY_POWER_OFF;         /* signal power off */
    }
    #endif
  }
  else if (Key == KEY_TWICE)       /* two short key presses */
    7c4c:	83 30       	cpi	r24, 0x03	; 3
    7c4e:	31 f0       	breq	.+12     	; 0x7c5c <main+0x33e>
  {
    Key = KEY_MAINMENU;            /* signal main menu */
  }
  else if (Key == KEY_LONG)        /* long key press */
    7c50:	82 30       	cpi	r24, 0x02	; 2
    7c52:	11 f1       	breq	.+68     	; 0x7c98 <main+0x37a>
  {
    Key = KEY_POWER_OFF;           /* signal power off */
  }
  #ifdef HW_KEYS
  else if (Key == KEY_LEFT)        /* rotary encoder: left turn */
    7c54:	85 30       	cpi	r24, 0x05	; 5
    7c56:	11 f0       	breq	.+4      	; 0x7c5c <main+0x33e>
  #ifdef SERIAL_RW
  Serial_Ctrl(SER_RX_PAUSE);       /* disable TTL serial RX */
  /* todo: when we got a locked buffer meanwhile? */
  #endif

  if (Key == KEY_MAINMENU)         /* run main menu */
    7c58:	85 36       	cpi	r24, 0x65	; 101
    7c5a:	d9 f4       	brne	.+54     	; 0x7c92 <main+0x374>
  {
    #ifdef SAVE_POWER
    /* change sleep mode the Idle to keep timers & other stuff running */
    Test = Cfg.SleepMode;               /* get current mode */
    7c5c:	e0 90 a2 01 	lds	r14, 0x01A2	; 0x8001a2 <Cfg+0x2>
    Cfg.SleepMode = SLEEP_MODE_IDLE;    /* change sleep mode to Idle */
    7c60:	10 92 a2 01 	sts	0x01A2, r1	; 0x8001a2 <Cfg+0x2>
    /* todo: move this to MainMenu()? (after selecting item) */
    #endif

    #ifdef POWER_OFF_TIMEOUT
    /* automatic power-off for auto-hold mode */
    if (Cfg.OP_Mode & OP_AUTOHOLD)        /* in auto-hold mode */
    7c64:	80 91 a0 01 	lds	r24, 0x01A0	; 0x8001a0 <Cfg>
    7c68:	80 ff       	sbrs	r24, 0
    7c6a:	05 c0       	rjmp	.+10     	; 0x7c76 <main+0x358>
    {
      Cfg.OP_Control &= ~OP_PWR_TIMEOUT;  /* disable power-off timeout */
    7c6c:	80 91 a1 01 	lds	r24, 0x01A1	; 0x8001a1 <Cfg+0x1>
    7c70:	8f 7d       	andi	r24, 0xDF	; 223
    7c72:	80 93 a1 01 	sts	0x01A1, r24	; 0x8001a1 <Cfg+0x1>
    }
    #endif

    MainMenu();                    /* enter main menu */
    7c76:	0e 94 ec 16 	call	0x2dd8	; 0x2dd8 <MainMenu>

    #ifdef POWER_OFF_TIMEOUT
    /* automatic power-off for auto-hold mode */
    if (Cfg.OP_Mode & OP_AUTOHOLD)        /* in auto-hold mode */
    7c7a:	80 91 a0 01 	lds	r24, 0x01A0	; 0x8001a0 <Cfg>
    7c7e:	80 ff       	sbrs	r24, 0
    7c80:	05 c0       	rjmp	.+10     	; 0x7c8c <main+0x36e>
    {
      Cfg.OP_Control |= OP_PWR_TIMEOUT;   /* enable power-off timeout */
    7c82:	80 91 a1 01 	lds	r24, 0x01A1	; 0x8001a1 <Cfg+0x1>
    7c86:	80 62       	ori	r24, 0x20	; 32
    7c88:	80 93 a1 01 	sts	0x01A1, r24	; 0x8001a1 <Cfg+0x1>
    }
    #endif

    #ifdef SAVE_POWER
    /* change sleep mode back */
    Cfg.SleepMode = Test;          /* change sleep mode back */
    7c8c:	e0 92 a2 01 	sts	0x01A2, r14	; 0x8001a2 <Cfg+0x2>
    #endif

    goto cycle_control;            /* re-run cycle control */
    7c90:	c9 cf       	rjmp	.-110    	; 0x7c24 <main+0x306>
  }
  else if (Key == KEY_POWER_OFF)   /* power off */
    7c92:	87 36       	cpi	r24, 0x67	; 103
    7c94:	09 f0       	breq	.+2      	; 0x7c98 <main+0x37a>
    7c96:	e8 ce       	rjmp	.-560    	; 0x7a68 <main+0x14a>
  {
    PowerOff();                    /* power off */
    7c98:	0e 94 52 12 	call	0x24a4	; 0x24a4 <PowerOff>
  else                             /* default action */
  {
    goto cycle_start;              /* next round */
  }

  return 0;
    7c9c:	07 c0       	rjmp	.+14     	; 0x7cac <main+0x38e>
        if (Test > 100) Key = 3;        /* >2000ms */
      }
      else                                        /* button released */
      {
        Key = 1;                        /* <300ms */
        if (Test > 15) Key = 2;         /* >300ms */
    7c9e:	c2 e0       	ldi	r28, 0x02	; 2
  /* key press >300ms selects alternative operation mode */
  if (Key > 1)
  {
    #ifdef UI_AUTOHOLD
      /* change mode to continuous */
      Cfg.OP_Mode &= ~OP_AUTOHOLD;      /* clear auto-hold */
    7ca0:	80 91 a0 01 	lds	r24, 0x01A0	; 0x8001a0 <Cfg>
    7ca4:	8e 7f       	andi	r24, 0xFE	; 254
    7ca6:	80 93 a0 01 	sts	0x01A0, r24	; 0x8001a0 <Cfg>
    7caa:	8f ce       	rjmp	.-738    	; 0x79ca <main+0xac>
  {
    goto cycle_start;              /* next round */
  }

  return 0;
}
    7cac:	80 e0       	ldi	r24, 0x00	; 0
    7cae:	90 e0       	ldi	r25, 0x00	; 0
    7cb0:	cd b7       	in	r28, 0x3d	; 61
    7cb2:	de b7       	in	r29, 0x3e	; 62
    7cb4:	e6 e0       	ldi	r30, 0x06	; 6
    7cb6:	0c 94 3f 3f 	jmp	0x7e7e	; 0x7e7e <__epilogue_restores__+0x18>

00007cba <__mulsi3>:
    7cba:	db 01       	movw	r26, r22
    7cbc:	8f 93       	push	r24
    7cbe:	9f 93       	push	r25
    7cc0:	0e 94 0c 3f 	call	0x7e18	; 0x7e18 <__muluhisi3>
    7cc4:	bf 91       	pop	r27
    7cc6:	af 91       	pop	r26
    7cc8:	a2 9f       	mul	r26, r18
    7cca:	80 0d       	add	r24, r0
    7ccc:	91 1d       	adc	r25, r1
    7cce:	a3 9f       	mul	r26, r19
    7cd0:	90 0d       	add	r25, r0
    7cd2:	b2 9f       	mul	r27, r18
    7cd4:	90 0d       	add	r25, r0
    7cd6:	11 24       	eor	r1, r1
    7cd8:	08 95       	ret

00007cda <__udivmodqi4>:
    7cda:	99 1b       	sub	r25, r25
    7cdc:	79 e0       	ldi	r23, 0x09	; 9
    7cde:	04 c0       	rjmp	.+8      	; 0x7ce8 <__udivmodqi4_ep>

00007ce0 <__udivmodqi4_loop>:
    7ce0:	99 1f       	adc	r25, r25
    7ce2:	96 17       	cp	r25, r22
    7ce4:	08 f0       	brcs	.+2      	; 0x7ce8 <__udivmodqi4_ep>
    7ce6:	96 1b       	sub	r25, r22

00007ce8 <__udivmodqi4_ep>:
    7ce8:	88 1f       	adc	r24, r24
    7cea:	7a 95       	dec	r23
    7cec:	c9 f7       	brne	.-14     	; 0x7ce0 <__udivmodqi4_loop>
    7cee:	80 95       	com	r24
    7cf0:	08 95       	ret

00007cf2 <__divmodqi4>:
    7cf2:	87 fb       	bst	r24, 7
    7cf4:	08 2e       	mov	r0, r24
    7cf6:	06 26       	eor	r0, r22
    7cf8:	87 fd       	sbrc	r24, 7
    7cfa:	81 95       	neg	r24
    7cfc:	67 fd       	sbrc	r22, 7
    7cfe:	61 95       	neg	r22
    7d00:	0e 94 6d 3e 	call	0x7cda	; 0x7cda <__udivmodqi4>
    7d04:	0e f4       	brtc	.+2      	; 0x7d08 <__divmodqi4_1>
    7d06:	91 95       	neg	r25

00007d08 <__divmodqi4_1>:
    7d08:	07 fc       	sbrc	r0, 7
    7d0a:	81 95       	neg	r24

00007d0c <__divmodqi4_exit>:
    7d0c:	08 95       	ret

00007d0e <__udivmodhi4>:
    7d0e:	aa 1b       	sub	r26, r26
    7d10:	bb 1b       	sub	r27, r27
    7d12:	51 e1       	ldi	r21, 0x11	; 17
    7d14:	07 c0       	rjmp	.+14     	; 0x7d24 <__udivmodhi4_ep>

00007d16 <__udivmodhi4_loop>:
    7d16:	aa 1f       	adc	r26, r26
    7d18:	bb 1f       	adc	r27, r27
    7d1a:	a6 17       	cp	r26, r22
    7d1c:	b7 07       	cpc	r27, r23
    7d1e:	10 f0       	brcs	.+4      	; 0x7d24 <__udivmodhi4_ep>
    7d20:	a6 1b       	sub	r26, r22
    7d22:	b7 0b       	sbc	r27, r23

00007d24 <__udivmodhi4_ep>:
    7d24:	88 1f       	adc	r24, r24
    7d26:	99 1f       	adc	r25, r25
    7d28:	5a 95       	dec	r21
    7d2a:	a9 f7       	brne	.-22     	; 0x7d16 <__udivmodhi4_loop>
    7d2c:	80 95       	com	r24
    7d2e:	90 95       	com	r25
    7d30:	bc 01       	movw	r22, r24
    7d32:	cd 01       	movw	r24, r26
    7d34:	08 95       	ret

00007d36 <__divmodhi4>:
    7d36:	97 fb       	bst	r25, 7
    7d38:	07 2e       	mov	r0, r23
    7d3a:	16 f4       	brtc	.+4      	; 0x7d40 <__divmodhi4+0xa>
    7d3c:	00 94       	com	r0
    7d3e:	07 d0       	rcall	.+14     	; 0x7d4e <__divmodhi4_neg1>
    7d40:	77 fd       	sbrc	r23, 7
    7d42:	09 d0       	rcall	.+18     	; 0x7d56 <__divmodhi4_neg2>
    7d44:	0e 94 87 3e 	call	0x7d0e	; 0x7d0e <__udivmodhi4>
    7d48:	07 fc       	sbrc	r0, 7
    7d4a:	05 d0       	rcall	.+10     	; 0x7d56 <__divmodhi4_neg2>
    7d4c:	3e f4       	brtc	.+14     	; 0x7d5c <__divmodhi4_exit>

00007d4e <__divmodhi4_neg1>:
    7d4e:	90 95       	com	r25
    7d50:	81 95       	neg	r24
    7d52:	9f 4f       	sbci	r25, 0xFF	; 255
    7d54:	08 95       	ret

00007d56 <__divmodhi4_neg2>:
    7d56:	70 95       	com	r23
    7d58:	61 95       	neg	r22
    7d5a:	7f 4f       	sbci	r23, 0xFF	; 255

00007d5c <__divmodhi4_exit>:
    7d5c:	08 95       	ret

00007d5e <__udivmodsi4>:
    7d5e:	a1 e2       	ldi	r26, 0x21	; 33
    7d60:	1a 2e       	mov	r1, r26
    7d62:	aa 1b       	sub	r26, r26
    7d64:	bb 1b       	sub	r27, r27
    7d66:	fd 01       	movw	r30, r26
    7d68:	0d c0       	rjmp	.+26     	; 0x7d84 <__udivmodsi4_ep>

00007d6a <__udivmodsi4_loop>:
    7d6a:	aa 1f       	adc	r26, r26
    7d6c:	bb 1f       	adc	r27, r27
    7d6e:	ee 1f       	adc	r30, r30
    7d70:	ff 1f       	adc	r31, r31
    7d72:	a2 17       	cp	r26, r18
    7d74:	b3 07       	cpc	r27, r19
    7d76:	e4 07       	cpc	r30, r20
    7d78:	f5 07       	cpc	r31, r21
    7d7a:	20 f0       	brcs	.+8      	; 0x7d84 <__udivmodsi4_ep>
    7d7c:	a2 1b       	sub	r26, r18
    7d7e:	b3 0b       	sbc	r27, r19
    7d80:	e4 0b       	sbc	r30, r20
    7d82:	f5 0b       	sbc	r31, r21

00007d84 <__udivmodsi4_ep>:
    7d84:	66 1f       	adc	r22, r22
    7d86:	77 1f       	adc	r23, r23
    7d88:	88 1f       	adc	r24, r24
    7d8a:	99 1f       	adc	r25, r25
    7d8c:	1a 94       	dec	r1
    7d8e:	69 f7       	brne	.-38     	; 0x7d6a <__udivmodsi4_loop>
    7d90:	60 95       	com	r22
    7d92:	70 95       	com	r23
    7d94:	80 95       	com	r24
    7d96:	90 95       	com	r25
    7d98:	9b 01       	movw	r18, r22
    7d9a:	ac 01       	movw	r20, r24
    7d9c:	bd 01       	movw	r22, r26
    7d9e:	cf 01       	movw	r24, r30
    7da0:	08 95       	ret

00007da2 <__divmodsi4>:
    7da2:	05 2e       	mov	r0, r21
    7da4:	97 fb       	bst	r25, 7
    7da6:	1e f4       	brtc	.+6      	; 0x7dae <__divmodsi4+0xc>
    7da8:	00 94       	com	r0
    7daa:	0e 94 e8 3e 	call	0x7dd0	; 0x7dd0 <__negsi2>
    7dae:	57 fd       	sbrc	r21, 7
    7db0:	07 d0       	rcall	.+14     	; 0x7dc0 <__divmodsi4_neg2>
    7db2:	0e 94 af 3e 	call	0x7d5e	; 0x7d5e <__udivmodsi4>
    7db6:	07 fc       	sbrc	r0, 7
    7db8:	03 d0       	rcall	.+6      	; 0x7dc0 <__divmodsi4_neg2>
    7dba:	4e f4       	brtc	.+18     	; 0x7dce <__divmodsi4_exit>
    7dbc:	0c 94 e8 3e 	jmp	0x7dd0	; 0x7dd0 <__negsi2>

00007dc0 <__divmodsi4_neg2>:
    7dc0:	50 95       	com	r21
    7dc2:	40 95       	com	r20
    7dc4:	30 95       	com	r19
    7dc6:	21 95       	neg	r18
    7dc8:	3f 4f       	sbci	r19, 0xFF	; 255
    7dca:	4f 4f       	sbci	r20, 0xFF	; 255
    7dcc:	5f 4f       	sbci	r21, 0xFF	; 255

00007dce <__divmodsi4_exit>:
    7dce:	08 95       	ret

00007dd0 <__negsi2>:
    7dd0:	90 95       	com	r25
    7dd2:	80 95       	com	r24
    7dd4:	70 95       	com	r23
    7dd6:	61 95       	neg	r22
    7dd8:	7f 4f       	sbci	r23, 0xFF	; 255
    7dda:	8f 4f       	sbci	r24, 0xFF	; 255
    7ddc:	9f 4f       	sbci	r25, 0xFF	; 255
    7dde:	08 95       	ret

00007de0 <__tablejump2__>:
    7de0:	ee 0f       	add	r30, r30
    7de2:	ff 1f       	adc	r31, r31
    7de4:	05 90       	lpm	r0, Z+
    7de6:	f4 91       	lpm	r31, Z
    7de8:	e0 2d       	mov	r30, r0
    7dea:	09 94       	ijmp

00007dec <__umulhisi3>:
    7dec:	a2 9f       	mul	r26, r18
    7dee:	b0 01       	movw	r22, r0
    7df0:	b3 9f       	mul	r27, r19
    7df2:	c0 01       	movw	r24, r0
    7df4:	a3 9f       	mul	r26, r19
    7df6:	70 0d       	add	r23, r0
    7df8:	81 1d       	adc	r24, r1
    7dfa:	11 24       	eor	r1, r1
    7dfc:	91 1d       	adc	r25, r1
    7dfe:	b2 9f       	mul	r27, r18
    7e00:	70 0d       	add	r23, r0
    7e02:	81 1d       	adc	r24, r1
    7e04:	11 24       	eor	r1, r1
    7e06:	91 1d       	adc	r25, r1
    7e08:	08 95       	ret

00007e0a <__usmulhisi3>:
    7e0a:	0e 94 f6 3e 	call	0x7dec	; 0x7dec <__umulhisi3>

00007e0e <__usmulhisi3_tail>:
    7e0e:	b7 ff       	sbrs	r27, 7
    7e10:	08 95       	ret
    7e12:	82 1b       	sub	r24, r18
    7e14:	93 0b       	sbc	r25, r19
    7e16:	08 95       	ret

00007e18 <__muluhisi3>:
    7e18:	0e 94 f6 3e 	call	0x7dec	; 0x7dec <__umulhisi3>
    7e1c:	a5 9f       	mul	r26, r21
    7e1e:	90 0d       	add	r25, r0
    7e20:	b4 9f       	mul	r27, r20
    7e22:	90 0d       	add	r25, r0
    7e24:	a4 9f       	mul	r26, r20
    7e26:	80 0d       	add	r24, r0
    7e28:	91 1d       	adc	r25, r1
    7e2a:	11 24       	eor	r1, r1
    7e2c:	08 95       	ret

00007e2e <__prologue_saves__>:
    7e2e:	2f 92       	push	r2
    7e30:	3f 92       	push	r3
    7e32:	4f 92       	push	r4
    7e34:	5f 92       	push	r5
    7e36:	6f 92       	push	r6
    7e38:	7f 92       	push	r7
    7e3a:	8f 92       	push	r8
    7e3c:	9f 92       	push	r9
    7e3e:	af 92       	push	r10
    7e40:	bf 92       	push	r11
    7e42:	cf 92       	push	r12
    7e44:	df 92       	push	r13
    7e46:	ef 92       	push	r14
    7e48:	ff 92       	push	r15
    7e4a:	0f 93       	push	r16
    7e4c:	1f 93       	push	r17
    7e4e:	cf 93       	push	r28
    7e50:	df 93       	push	r29
    7e52:	cd b7       	in	r28, 0x3d	; 61
    7e54:	de b7       	in	r29, 0x3e	; 62
    7e56:	ca 1b       	sub	r28, r26
    7e58:	db 0b       	sbc	r29, r27
    7e5a:	0f b6       	in	r0, 0x3f	; 63
    7e5c:	f8 94       	cli
    7e5e:	de bf       	out	0x3e, r29	; 62
    7e60:	0f be       	out	0x3f, r0	; 63
    7e62:	cd bf       	out	0x3d, r28	; 61
    7e64:	09 94       	ijmp

00007e66 <__epilogue_restores__>:
    7e66:	2a 88       	ldd	r2, Y+18	; 0x12
    7e68:	39 88       	ldd	r3, Y+17	; 0x11
    7e6a:	48 88       	ldd	r4, Y+16	; 0x10
    7e6c:	5f 84       	ldd	r5, Y+15	; 0x0f
    7e6e:	6e 84       	ldd	r6, Y+14	; 0x0e
    7e70:	7d 84       	ldd	r7, Y+13	; 0x0d
    7e72:	8c 84       	ldd	r8, Y+12	; 0x0c
    7e74:	9b 84       	ldd	r9, Y+11	; 0x0b
    7e76:	aa 84       	ldd	r10, Y+10	; 0x0a
    7e78:	b9 84       	ldd	r11, Y+9	; 0x09
    7e7a:	c8 84       	ldd	r12, Y+8	; 0x08
    7e7c:	df 80       	ldd	r13, Y+7	; 0x07
    7e7e:	ee 80       	ldd	r14, Y+6	; 0x06
    7e80:	fd 80       	ldd	r15, Y+5	; 0x05
    7e82:	0c 81       	ldd	r16, Y+4	; 0x04
    7e84:	1b 81       	ldd	r17, Y+3	; 0x03
    7e86:	aa 81       	ldd	r26, Y+2	; 0x02
    7e88:	b9 81       	ldd	r27, Y+1	; 0x01
    7e8a:	ce 0f       	add	r28, r30
    7e8c:	d1 1d       	adc	r29, r1
    7e8e:	0f b6       	in	r0, 0x3f	; 63
    7e90:	f8 94       	cli
    7e92:	de bf       	out	0x3e, r29	; 62
    7e94:	0f be       	out	0x3f, r0	; 63
    7e96:	cd bf       	out	0x3d, r28	; 61
    7e98:	ed 01       	movw	r28, r26
    7e9a:	08 95       	ret

00007e9c <__ultoa_ncheck>:
    7e9c:	bb 27       	eor	r27, r27

00007e9e <__ultoa_common>:
    7e9e:	fa 01       	movw	r30, r20
    7ea0:	a6 2f       	mov	r26, r22
    7ea2:	62 17       	cp	r22, r18
    7ea4:	71 05       	cpc	r23, r1
    7ea6:	81 05       	cpc	r24, r1
    7ea8:	91 05       	cpc	r25, r1
    7eaa:	33 0b       	sbc	r19, r19
    7eac:	30 fb       	bst	r19, 0
    7eae:	66 f0       	brts	.+24     	; 0x7ec8 <__ultoa_common+0x2a>
    7eb0:	aa 27       	eor	r26, r26
    7eb2:	66 0f       	add	r22, r22
    7eb4:	77 1f       	adc	r23, r23
    7eb6:	88 1f       	adc	r24, r24
    7eb8:	99 1f       	adc	r25, r25
    7eba:	aa 1f       	adc	r26, r26
    7ebc:	a2 17       	cp	r26, r18
    7ebe:	10 f0       	brcs	.+4      	; 0x7ec4 <__ultoa_common+0x26>
    7ec0:	a2 1b       	sub	r26, r18
    7ec2:	63 95       	inc	r22
    7ec4:	38 50       	subi	r19, 0x08	; 8
    7ec6:	a9 f7       	brne	.-22     	; 0x7eb2 <__ultoa_common+0x14>
    7ec8:	a0 5d       	subi	r26, 0xD0	; 208
    7eca:	aa 33       	cpi	r26, 0x3A	; 58
    7ecc:	08 f0       	brcs	.+2      	; 0x7ed0 <__ultoa_common+0x32>
    7ece:	a9 5d       	subi	r26, 0xD9	; 217
    7ed0:	a1 93       	st	Z+, r26
    7ed2:	36 f7       	brtc	.-52     	; 0x7ea0 <__ultoa_common+0x2>
    7ed4:	b1 11       	cpse	r27, r1
    7ed6:	b1 93       	st	Z+, r27
    7ed8:	10 82       	st	Z, r1
    7eda:	ca 01       	movw	r24, r20
    7edc:	0c 94 8a 3f 	jmp	0x7f14	; 0x7f14 <strrev>

00007ee0 <__utoa_ncheck>:
    7ee0:	bb 27       	eor	r27, r27

00007ee2 <__utoa_common>:
    7ee2:	fb 01       	movw	r30, r22
    7ee4:	55 27       	eor	r21, r21
    7ee6:	aa 27       	eor	r26, r26
    7ee8:	88 0f       	add	r24, r24
    7eea:	99 1f       	adc	r25, r25
    7eec:	aa 1f       	adc	r26, r26
    7eee:	a4 17       	cp	r26, r20
    7ef0:	10 f0       	brcs	.+4      	; 0x7ef6 <__utoa_common+0x14>
    7ef2:	a4 1b       	sub	r26, r20
    7ef4:	83 95       	inc	r24
    7ef6:	50 51       	subi	r21, 0x10	; 16
    7ef8:	b9 f7       	brne	.-18     	; 0x7ee8 <__utoa_common+0x6>
    7efa:	a0 5d       	subi	r26, 0xD0	; 208
    7efc:	aa 33       	cpi	r26, 0x3A	; 58
    7efe:	08 f0       	brcs	.+2      	; 0x7f02 <__utoa_common+0x20>
    7f00:	a9 5d       	subi	r26, 0xD9	; 217
    7f02:	a1 93       	st	Z+, r26
    7f04:	00 97       	sbiw	r24, 0x00	; 0
    7f06:	79 f7       	brne	.-34     	; 0x7ee6 <__utoa_common+0x4>
    7f08:	b1 11       	cpse	r27, r1
    7f0a:	b1 93       	st	Z+, r27
    7f0c:	11 92       	st	Z+, r1
    7f0e:	cb 01       	movw	r24, r22
    7f10:	0c 94 8a 3f 	jmp	0x7f14	; 0x7f14 <strrev>

00007f14 <strrev>:
    7f14:	dc 01       	movw	r26, r24
    7f16:	fc 01       	movw	r30, r24
    7f18:	67 2f       	mov	r22, r23
    7f1a:	71 91       	ld	r23, Z+
    7f1c:	77 23       	and	r23, r23
    7f1e:	e1 f7       	brne	.-8      	; 0x7f18 <strrev+0x4>
    7f20:	32 97       	sbiw	r30, 0x02	; 2
    7f22:	04 c0       	rjmp	.+8      	; 0x7f2c <strrev+0x18>
    7f24:	7c 91       	ld	r23, X
    7f26:	6d 93       	st	X+, r22
    7f28:	70 83       	st	Z, r23
    7f2a:	62 91       	ld	r22, -Z
    7f2c:	ae 17       	cp	r26, r30
    7f2e:	bf 07       	cpc	r27, r31
    7f30:	c8 f3       	brcs	.-14     	; 0x7f24 <strrev+0x10>
    7f32:	08 95       	ret

00007f34 <eeprom_read_byte>:
    7f34:	f9 99       	sbic	0x1f, 1	; 31
    7f36:	fe cf       	rjmp	.-4      	; 0x7f34 <eeprom_read_byte>
    7f38:	92 bd       	out	0x22, r25	; 34
    7f3a:	81 bd       	out	0x21, r24	; 33
    7f3c:	f8 9a       	sbi	0x1f, 0	; 31
    7f3e:	99 27       	eor	r25, r25
    7f40:	80 b5       	in	r24, 0x20	; 32
    7f42:	08 95       	ret

00007f44 <eeprom_read_word>:
    7f44:	a8 e1       	ldi	r26, 0x18	; 24
    7f46:	b0 e0       	ldi	r27, 0x00	; 0
    7f48:	42 e0       	ldi	r20, 0x02	; 2
    7f4a:	50 e0       	ldi	r21, 0x00	; 0
    7f4c:	0c 94 b8 3f 	jmp	0x7f70	; 0x7f70 <eeprom_read_blraw>

00007f50 <eeprom_write_byte>:
    7f50:	26 2f       	mov	r18, r22

00007f52 <eeprom_write_r18>:
    7f52:	f9 99       	sbic	0x1f, 1	; 31
    7f54:	fe cf       	rjmp	.-4      	; 0x7f52 <eeprom_write_r18>
    7f56:	1f ba       	out	0x1f, r1	; 31
    7f58:	92 bd       	out	0x22, r25	; 34
    7f5a:	81 bd       	out	0x21, r24	; 33
    7f5c:	20 bd       	out	0x20, r18	; 32
    7f5e:	0f b6       	in	r0, 0x3f	; 63
    7f60:	f8 94       	cli
    7f62:	fa 9a       	sbi	0x1f, 2	; 31
    7f64:	f9 9a       	sbi	0x1f, 1	; 31
    7f66:	0f be       	out	0x3f, r0	; 63
    7f68:	01 96       	adiw	r24, 0x01	; 1
    7f6a:	08 95       	ret

00007f6c <eeprom_read_block>:
    7f6c:	dc 01       	movw	r26, r24
    7f6e:	cb 01       	movw	r24, r22

00007f70 <eeprom_read_blraw>:
    7f70:	fc 01       	movw	r30, r24
    7f72:	f9 99       	sbic	0x1f, 1	; 31
    7f74:	fe cf       	rjmp	.-4      	; 0x7f72 <eeprom_read_blraw+0x2>
    7f76:	06 c0       	rjmp	.+12     	; 0x7f84 <eeprom_read_blraw+0x14>
    7f78:	f2 bd       	out	0x22, r31	; 34
    7f7a:	e1 bd       	out	0x21, r30	; 33
    7f7c:	f8 9a       	sbi	0x1f, 0	; 31
    7f7e:	31 96       	adiw	r30, 0x01	; 1
    7f80:	00 b4       	in	r0, 0x20	; 32
    7f82:	0d 92       	st	X+, r0
    7f84:	41 50       	subi	r20, 0x01	; 1
    7f86:	50 40       	sbci	r21, 0x00	; 0
    7f88:	b8 f7       	brcc	.-18     	; 0x7f78 <eeprom_read_blraw+0x8>
    7f8a:	08 95       	ret

00007f8c <_exit>:
    7f8c:	f8 94       	cli

00007f8e <__stop_program>:
    7f8e:	ff cf       	rjmp	.-2      	; 0x7f8e <__stop_program>
